
/home/adarsh/Desktop/Projects/Pico_lect/codes/mpu6050/build/blinker.elf:     file format elf32-littlearm

Sections:
Idx Name          Size      VMA       LMA       File off  Algn
  0 .boot2        00000100  10000000  10000000  00001000  2**0
                  CONTENTS, ALLOC, LOAD, READONLY, CODE
  1 .text         00006b80  10000100  10000100  00001100  2**3
                  CONTENTS, ALLOC, LOAD, READONLY, CODE
  2 .rodata       00000684  10006c80  10006c80  00007c80  2**3
                  CONTENTS, ALLOC, LOAD, READONLY, DATA
  3 .binary_info  00000020  10007304  10007304  00008304  2**2
                  CONTENTS, ALLOC, LOAD, READONLY, DATA
  4 .ram_vector_table 000000c0  20000000  20000000  0000b000  2**2
                  ALLOC
  5 .uninitialized_data 00000000  200000c0  200000c0  0000a068  2**0
                  CONTENTS
  6 .data         00000fa8  200000c0  10007324  000090c0  2**4
                  CONTENTS, ALLOC, LOAD, READONLY, CODE
  7 .tdata        00000000  20001068  20001068  0000a068  2**0
                  CONTENTS, ALLOC, LOAD, DATA, THREAD_LOCAL
  8 .tbss         00000000  20001068  20001068  00000000  2**0
                  ALLOC, THREAD_LOCAL
  9 .bss          00001204  20001068  100082cc  0000a068  2**3
                  ALLOC
 10 .heap         0003dd94  2000226c  100082cc  0000a26c  2**2
                  ALLOC, READONLY
 11 .scratch_x    00000000  20040000  20040000  0000a068  2**0
                  CONTENTS
 12 .scratch_y    00000000  20041000  20041000  0000a068  2**0
                  CONTENTS
 13 .stack_dummy  00000800  20041000  20041000  0000a080  2**5
                  CONTENTS, READONLY
 14 .ARM.attributes 00000028  00000000  00000000  0000a880  2**0
                  CONTENTS, READONLY
 15 .comment      00000026  00000000  00000000  0000a8a8  2**0
                  CONTENTS, READONLY
 16 .debug_info   00030938  00000000  00000000  0000a8ce  2**0
                  CONTENTS, READONLY, DEBUGGING, OCTETS
 17 .debug_abbrev 00008fb3  00000000  00000000  0003b206  2**0
                  CONTENTS, READONLY, DEBUGGING, OCTETS
 18 .debug_loclists 0001a82b  00000000  00000000  000441b9  2**0
                  CONTENTS, READONLY, DEBUGGING, OCTETS
 19 .debug_aranges 00001730  00000000  00000000  0005e9e8  2**3
                  CONTENTS, READONLY, DEBUGGING, OCTETS
 20 .debug_rnglists 000043e5  00000000  00000000  00060118  2**0
                  CONTENTS, READONLY, DEBUGGING, OCTETS
 21 .debug_line   000223da  00000000  00000000  000644fd  2**0
                  CONTENTS, READONLY, DEBUGGING, OCTETS
 22 .debug_str    00008aae  00000000  00000000  000868d7  2**0
                  CONTENTS, READONLY, DEBUGGING, OCTETS
 23 .debug_frame  00003010  00000000  00000000  0008f388  2**2
                  CONTENTS, READONLY, DEBUGGING, OCTETS
 24 .debug_line_str 00000318  00000000  00000000  00092398  2**0
                  CONTENTS, READONLY, DEBUGGING, OCTETS

/home/adarsh/Desktop/Projects/Pico_lect/codes/mpu6050/build/blinker.elf:     file format elf32-littlearm


Disassembly of section .boot2:

10000000 <__boot2_start__>:
10000000:	4b32b500 	.word	0x4b32b500
10000004:	60582021 	.word	0x60582021
10000008:	21026898 	.word	0x21026898
1000000c:	60984388 	.word	0x60984388
10000010:	611860d8 	.word	0x611860d8
10000014:	4b2e6158 	.word	0x4b2e6158
10000018:	60992100 	.word	0x60992100
1000001c:	61592102 	.word	0x61592102
10000020:	22f02101 	.word	0x22f02101
10000024:	492b5099 	.word	0x492b5099
10000028:	21016019 	.word	0x21016019
1000002c:	20356099 	.word	0x20356099
10000030:	f844f000 	.word	0xf844f000
10000034:	42902202 	.word	0x42902202
10000038:	2106d014 	.word	0x2106d014
1000003c:	f0006619 	.word	0xf0006619
10000040:	6e19f834 	.word	0x6e19f834
10000044:	66192101 	.word	0x66192101
10000048:	66182000 	.word	0x66182000
1000004c:	f000661a 	.word	0xf000661a
10000050:	6e19f82c 	.word	0x6e19f82c
10000054:	6e196e19 	.word	0x6e196e19
10000058:	f0002005 	.word	0xf0002005
1000005c:	2101f82f 	.word	0x2101f82f
10000060:	d1f94208 	.word	0xd1f94208
10000064:	60992100 	.word	0x60992100
10000068:	6019491b 	.word	0x6019491b
1000006c:	60592100 	.word	0x60592100
10000070:	481b491a 	.word	0x481b491a
10000074:	21016001 	.word	0x21016001
10000078:	21eb6099 	.word	0x21eb6099
1000007c:	21a06619 	.word	0x21a06619
10000080:	f0006619 	.word	0xf0006619
10000084:	2100f812 	.word	0x2100f812
10000088:	49166099 	.word	0x49166099
1000008c:	60014814 	.word	0x60014814
10000090:	60992101 	.word	0x60992101
10000094:	2800bc01 	.word	0x2800bc01
10000098:	4700d000 	.word	0x4700d000
1000009c:	49134812 	.word	0x49134812
100000a0:	c8036008 	.word	0xc8036008
100000a4:	8808f380 	.word	0x8808f380
100000a8:	b5034708 	.word	0xb5034708
100000ac:	20046a99 	.word	0x20046a99
100000b0:	d0fb4201 	.word	0xd0fb4201
100000b4:	42012001 	.word	0x42012001
100000b8:	bd03d1f8 	.word	0xbd03d1f8
100000bc:	6618b502 	.word	0x6618b502
100000c0:	f7ff6618 	.word	0xf7ff6618
100000c4:	6e18fff2 	.word	0x6e18fff2
100000c8:	bd026e18 	.word	0xbd026e18
100000cc:	40020000 	.word	0x40020000
100000d0:	18000000 	.word	0x18000000
100000d4:	00070000 	.word	0x00070000
100000d8:	005f0300 	.word	0x005f0300
100000dc:	00002221 	.word	0x00002221
100000e0:	180000f4 	.word	0x180000f4
100000e4:	a0002022 	.word	0xa0002022
100000e8:	10000100 	.word	0x10000100
100000ec:	e000ed08 	.word	0xe000ed08
	...
100000fc:	7a4eb274 	.word	0x7a4eb274

Disassembly of section .text:

10000100 <__VECTOR_TABLE>:
10000100:	20042000 	.word	0x20042000
10000104:	100001f7 	.word	0x100001f7
10000108:	100001c3 	.word	0x100001c3
1000010c:	100001c5 	.word	0x100001c5
10000110:	100001c1 	.word	0x100001c1
10000114:	100001c1 	.word	0x100001c1
10000118:	100001c1 	.word	0x100001c1
1000011c:	100001c1 	.word	0x100001c1
10000120:	100001c1 	.word	0x100001c1
10000124:	100001c1 	.word	0x100001c1
10000128:	100001c1 	.word	0x100001c1
1000012c:	100001c7 	.word	0x100001c7
10000130:	100001c1 	.word	0x100001c1
10000134:	100001c1 	.word	0x100001c1
10000138:	100001c9 	.word	0x100001c9
1000013c:	100001cb 	.word	0x100001cb
10000140:	100001cd 	.word	0x100001cd
10000144:	100001cd 	.word	0x100001cd
10000148:	100001cd 	.word	0x100001cd
1000014c:	100001cd 	.word	0x100001cd
10000150:	100001cd 	.word	0x100001cd
10000154:	100001cd 	.word	0x100001cd
10000158:	100001cd 	.word	0x100001cd
1000015c:	100001cd 	.word	0x100001cd
10000160:	100001cd 	.word	0x100001cd
10000164:	100001cd 	.word	0x100001cd
10000168:	100001cd 	.word	0x100001cd
1000016c:	100001cd 	.word	0x100001cd
10000170:	100001cd 	.word	0x100001cd
10000174:	100001cd 	.word	0x100001cd
10000178:	100001cd 	.word	0x100001cd
1000017c:	100001cd 	.word	0x100001cd
10000180:	100001cd 	.word	0x100001cd
10000184:	100001cd 	.word	0x100001cd
10000188:	100001cd 	.word	0x100001cd
1000018c:	100001cd 	.word	0x100001cd
10000190:	100001cd 	.word	0x100001cd
10000194:	100001cd 	.word	0x100001cd
10000198:	100001cd 	.word	0x100001cd
1000019c:	100001cd 	.word	0x100001cd
100001a0:	100001cd 	.word	0x100001cd
100001a4:	100001cd 	.word	0x100001cd
100001a8:	100001cd 	.word	0x100001cd
100001ac:	100001cd 	.word	0x100001cd
100001b0:	100001cd 	.word	0x100001cd
100001b4:	100001cd 	.word	0x100001cd
100001b8:	100001cd 	.word	0x100001cd
100001bc:	100001cd 	.word	0x100001cd

100001c0 <isr_invalid>:
100001c0:	be00      	bkpt	0x0000

100001c2 <isr_nmi>:
100001c2:	be00      	bkpt	0x0000

100001c4 <isr_hardfault>:
100001c4:	be00      	bkpt	0x0000

100001c6 <isr_svcall>:
100001c6:	be00      	bkpt	0x0000

100001c8 <isr_pendsv>:
100001c8:	be00      	bkpt	0x0000

100001ca <isr_systick>:
100001ca:	be00      	bkpt	0x0000

100001cc <__unhandled_user_irq>:
100001cc:	f3ef 8005 	mrs	r0, IPSR
100001d0:	3810      	subs	r0, #16

100001d2 <unhandled_user_irq_num_in_r0>:
100001d2:	be00      	bkpt	0x0000

100001d4 <binary_info_header>:
100001d4:	7188ebf2 	.word	0x7188ebf2
100001d8:	10007304 	.word	0x10007304
100001dc:	10007324 	.word	0x10007324
100001e0:	10000238 	.word	0x10000238
100001e4:	e71aa390 	.word	0xe71aa390

100001e8 <_entry_point>:
100001e8:	481e      	ldr	r0, [pc, #120]	@ (10000264 <data_cpy_table+0x2c>)

100001ea <_enter_vtable_in_r0>:
100001ea:	491f      	ldr	r1, [pc, #124]	@ (10000268 <data_cpy_table+0x30>)
100001ec:	6008      	str	r0, [r1, #0]
100001ee:	c806      	ldmia	r0!, {r1, r2}
100001f0:	f381 8808 	msr	MSP, r1
100001f4:	4710      	bx	r2

100001f6 <_reset_handler>:
100001f6:	481d      	ldr	r0, [pc, #116]	@ (1000026c <data_cpy_table+0x34>)
100001f8:	6800      	ldr	r0, [r0, #0]
100001fa:	2800      	cmp	r0, #0
100001fc:	d001      	beq.n	10000202 <hold_non_core0_in_bootrom+0x4>

100001fe <hold_non_core0_in_bootrom>:
100001fe:	4819      	ldr	r0, [pc, #100]	@ (10000264 <data_cpy_table+0x2c>)
10000200:	e7f3      	b.n	100001ea <_enter_vtable_in_r0>
10000202:	a40d      	add	r4, pc, #52	@ (adr r4, 10000238 <data_cpy_table>)
10000204:	cc0e      	ldmia	r4!, {r1, r2, r3}
10000206:	2900      	cmp	r1, #0
10000208:	d002      	beq.n	10000210 <hold_non_core0_in_bootrom+0x12>
1000020a:	f000 f812 	bl	10000232 <data_cpy>
1000020e:	e7f9      	b.n	10000204 <hold_non_core0_in_bootrom+0x6>
10000210:	4917      	ldr	r1, [pc, #92]	@ (10000270 <data_cpy_table+0x38>)
10000212:	4a18      	ldr	r2, [pc, #96]	@ (10000274 <data_cpy_table+0x3c>)
10000214:	2000      	movs	r0, #0
10000216:	e000      	b.n	1000021a <bss_fill_test>

10000218 <bss_fill_loop>:
10000218:	c101      	stmia	r1!, {r0}

1000021a <bss_fill_test>:
1000021a:	4291      	cmp	r1, r2
1000021c:	d1fc      	bne.n	10000218 <bss_fill_loop>

1000021e <platform_entry>:
1000021e:	4916      	ldr	r1, [pc, #88]	@ (10000278 <data_cpy_table+0x40>)
10000220:	4788      	blx	r1
10000222:	4916      	ldr	r1, [pc, #88]	@ (1000027c <data_cpy_table+0x44>)
10000224:	4788      	blx	r1
10000226:	4916      	ldr	r1, [pc, #88]	@ (10000280 <data_cpy_table+0x48>)
10000228:	4788      	blx	r1
1000022a:	be00      	bkpt	0x0000
1000022c:	e7fd      	b.n	1000022a <platform_entry+0xc>

1000022e <data_cpy_loop>:
1000022e:	c901      	ldmia	r1!, {r0}
10000230:	c201      	stmia	r2!, {r0}

10000232 <data_cpy>:
10000232:	429a      	cmp	r2, r3
10000234:	d3fb      	bcc.n	1000022e <data_cpy_loop>
10000236:	4770      	bx	lr

10000238 <data_cpy_table>:
10000238:	10007324 	.word	0x10007324
1000023c:	200000c0 	.word	0x200000c0
10000240:	20001068 	.word	0x20001068
10000244:	100082cc 	.word	0x100082cc
10000248:	20040000 	.word	0x20040000
1000024c:	20040000 	.word	0x20040000
10000250:	100082cc 	.word	0x100082cc
10000254:	20041000 	.word	0x20041000
10000258:	20041000 	.word	0x20041000
1000025c:	00000000 	.word	0x00000000
10000260:	4770      	bx	lr
10000262:	0000      	.short	0x0000
10000264:	00000000 	.word	0x00000000
10000268:	e000ed08 	.word	0xe000ed08
1000026c:	d0000000 	.word	0xd0000000
10000270:	20001068 	.word	0x20001068
10000274:	2000226c 	.word	0x2000226c
10000278:	10003de1 	.word	0x10003de1
1000027c:	10000321 	.word	0x10000321
10000280:	10003dd9 	.word	0x10003dd9

10000284 <_init>:
10000284:	b5f8      	push	{r3, r4, r5, r6, r7, lr}
10000286:	46c0      	nop			@ (mov r8, r8)

10000288 <deregister_tm_clones>:
10000288:	4804      	ldr	r0, [pc, #16]	@ (1000029c <deregister_tm_clones+0x14>)
1000028a:	4b05      	ldr	r3, [pc, #20]	@ (100002a0 <deregister_tm_clones+0x18>)
1000028c:	b510      	push	{r4, lr}
1000028e:	4283      	cmp	r3, r0
10000290:	d003      	beq.n	1000029a <deregister_tm_clones+0x12>
10000292:	4b04      	ldr	r3, [pc, #16]	@ (100002a4 <deregister_tm_clones+0x1c>)
10000294:	2b00      	cmp	r3, #0
10000296:	d000      	beq.n	1000029a <deregister_tm_clones+0x12>
10000298:	4798      	blx	r3
1000029a:	bd10      	pop	{r4, pc}
1000029c:	20001068 	.word	0x20001068
100002a0:	20001068 	.word	0x20001068
100002a4:	00000000 	.word	0x00000000

100002a8 <register_tm_clones>:
100002a8:	4806      	ldr	r0, [pc, #24]	@ (100002c4 <register_tm_clones+0x1c>)
100002aa:	4907      	ldr	r1, [pc, #28]	@ (100002c8 <register_tm_clones+0x20>)
100002ac:	1a09      	subs	r1, r1, r0
100002ae:	108b      	asrs	r3, r1, #2
100002b0:	0fc9      	lsrs	r1, r1, #31
100002b2:	18c9      	adds	r1, r1, r3
100002b4:	b510      	push	{r4, lr}
100002b6:	1049      	asrs	r1, r1, #1
100002b8:	d003      	beq.n	100002c2 <register_tm_clones+0x1a>
100002ba:	4b04      	ldr	r3, [pc, #16]	@ (100002cc <register_tm_clones+0x24>)
100002bc:	2b00      	cmp	r3, #0
100002be:	d000      	beq.n	100002c2 <register_tm_clones+0x1a>
100002c0:	4798      	blx	r3
100002c2:	bd10      	pop	{r4, pc}
100002c4:	20001068 	.word	0x20001068
100002c8:	20001068 	.word	0x20001068
100002cc:	00000000 	.word	0x00000000

100002d0 <__do_global_dtors_aux>:
100002d0:	b510      	push	{r4, lr}
100002d2:	4c07      	ldr	r4, [pc, #28]	@ (100002f0 <__do_global_dtors_aux+0x20>)
100002d4:	7823      	ldrb	r3, [r4, #0]
100002d6:	2b00      	cmp	r3, #0
100002d8:	d109      	bne.n	100002ee <__do_global_dtors_aux+0x1e>
100002da:	f7ff ffd5 	bl	10000288 <deregister_tm_clones>
100002de:	4b05      	ldr	r3, [pc, #20]	@ (100002f4 <__do_global_dtors_aux+0x24>)
100002e0:	2b00      	cmp	r3, #0
100002e2:	d002      	beq.n	100002ea <__do_global_dtors_aux+0x1a>
100002e4:	4804      	ldr	r0, [pc, #16]	@ (100002f8 <__do_global_dtors_aux+0x28>)
100002e6:	e000      	b.n	100002ea <__do_global_dtors_aux+0x1a>
100002e8:	bf00      	nop
100002ea:	2301      	movs	r3, #1
100002ec:	7023      	strb	r3, [r4, #0]
100002ee:	bd10      	pop	{r4, pc}
100002f0:	200016b0 	.word	0x200016b0
100002f4:	00000000 	.word	0x00000000
100002f8:	10006c80 	.word	0x10006c80

100002fc <frame_dummy>:
100002fc:	4b05      	ldr	r3, [pc, #20]	@ (10000314 <frame_dummy+0x18>)
100002fe:	b510      	push	{r4, lr}
10000300:	2b00      	cmp	r3, #0
10000302:	d003      	beq.n	1000030c <frame_dummy+0x10>
10000304:	4904      	ldr	r1, [pc, #16]	@ (10000318 <frame_dummy+0x1c>)
10000306:	4805      	ldr	r0, [pc, #20]	@ (1000031c <frame_dummy+0x20>)
10000308:	e000      	b.n	1000030c <frame_dummy+0x10>
1000030a:	bf00      	nop
1000030c:	f7ff ffcc 	bl	100002a8 <register_tm_clones>
10000310:	bd10      	pop	{r4, pc}
10000312:	46c0      	nop			@ (mov r8, r8)
10000314:	00000000 	.word	0x00000000
10000318:	200016b4 	.word	0x200016b4
1000031c:	10006c80 	.word	0x10006c80

10000320 <main>:
10000320:	b5f0      	push	{r4, r5, r6, r7, lr}
10000322:	46de      	mov	lr, fp
10000324:	464e      	mov	r6, r9
10000326:	4645      	mov	r5, r8
10000328:	4657      	mov	r7, sl
1000032a:	b5e0      	push	{r5, r6, r7, lr}
1000032c:	b08d      	sub	sp, #52	@ 0x34
1000032e:	f003 fe89 	bl	10004044 <stdio_init_all>
10000332:	484d      	ldr	r0, [pc, #308]	@ (10000468 <main+0x148>)
10000334:	f003 fed6 	bl	100040e4 <__wrap_puts>
10000338:	4b4c      	ldr	r3, [pc, #304]	@ (1000046c <main+0x14c>)
1000033a:	494d      	ldr	r1, [pc, #308]	@ (10000470 <main+0x150>)
1000033c:	0018      	movs	r0, r3
1000033e:	4699      	mov	r9, r3
10000340:	f006 faae 	bl	100068a0 <i2c_init>
10000344:	2103      	movs	r1, #3
10000346:	2004      	movs	r0, #4
10000348:	f000 f8a2 	bl	10000490 <gpio_set_function>
1000034c:	2103      	movs	r1, #3
1000034e:	2005      	movs	r0, #5
10000350:	f000 f89e 	bl	10000490 <gpio_set_function>
10000354:	2200      	movs	r2, #0
10000356:	2101      	movs	r1, #1
10000358:	2004      	movs	r0, #4
1000035a:	f000 f8b3 	bl	100004c4 <gpio_set_pulls>
1000035e:	2200      	movs	r2, #0
10000360:	2101      	movs	r1, #1
10000362:	2005      	movs	r0, #5
10000364:	f000 f8ae 	bl	100004c4 <gpio_set_pulls>
10000368:	4b42      	ldr	r3, [pc, #264]	@ (10000474 <main+0x154>)
1000036a:	ac0a      	add	r4, sp, #40	@ 0x28
1000036c:	8023      	strh	r3, [r4, #0]
1000036e:	2300      	movs	r3, #0
10000370:	0022      	movs	r2, r4
10000372:	9300      	str	r3, [sp, #0]
10000374:	2168      	movs	r1, #104	@ 0x68
10000376:	3302      	adds	r3, #2
10000378:	4648      	mov	r0, r9
1000037a:	f006 fab9 	bl	100068f0 <i2c_write_blocking>
1000037e:	ab06      	add	r3, sp, #24
10000380:	469c      	mov	ip, r3
10000382:	4b3d      	ldr	r3, [pc, #244]	@ (10000478 <main+0x158>)
10000384:	260f      	movs	r6, #15
10000386:	9305      	str	r3, [sp, #20]
10000388:	4b3c      	ldr	r3, [pc, #240]	@ (1000047c <main+0x15c>)
1000038a:	464d      	mov	r5, r9
1000038c:	9306      	str	r3, [sp, #24]
1000038e:	4b3c      	ldr	r3, [pc, #240]	@ (10000480 <main+0x160>)
10000390:	4466      	add	r6, ip
10000392:	9307      	str	r3, [sp, #28]
10000394:	2301      	movs	r3, #1
10000396:	4698      	mov	r8, r3
10000398:	233b      	movs	r3, #59	@ 0x3b
1000039a:	7033      	strb	r3, [r6, #0]
1000039c:	4643      	mov	r3, r8
1000039e:	2700      	movs	r7, #0
100003a0:	0032      	movs	r2, r6
100003a2:	9300      	str	r3, [sp, #0]
100003a4:	2168      	movs	r1, #104	@ 0x68
100003a6:	2301      	movs	r3, #1
100003a8:	0028      	movs	r0, r5
100003aa:	f006 faa1 	bl	100068f0 <i2c_write_blocking>
100003ae:	0022      	movs	r2, r4
100003b0:	9700      	str	r7, [sp, #0]
100003b2:	2306      	movs	r3, #6
100003b4:	2168      	movs	r1, #104	@ 0x68
100003b6:	0028      	movs	r0, r5
100003b8:	f006 fb02 	bl	100069c0 <i2c_read_blocking>
100003bc:	8823      	ldrh	r3, [r4, #0]
100003be:	2168      	movs	r1, #104	@ 0x68
100003c0:	badb      	revsh	r3, r3
100003c2:	9303      	str	r3, [sp, #12]
100003c4:	8863      	ldrh	r3, [r4, #2]
100003c6:	bada      	revsh	r2, r3
100003c8:	88a3      	ldrh	r3, [r4, #4]
100003ca:	9204      	str	r2, [sp, #16]
100003cc:	bad8      	revsh	r0, r3
100003ce:	4683      	mov	fp, r0
100003d0:	2343      	movs	r3, #67	@ 0x43
100003d2:	4640      	mov	r0, r8
100003d4:	7033      	strb	r3, [r6, #0]
100003d6:	0032      	movs	r2, r6
100003d8:	9000      	str	r0, [sp, #0]
100003da:	3b42      	subs	r3, #66	@ 0x42
100003dc:	0028      	movs	r0, r5
100003de:	f006 fa87 	bl	100068f0 <i2c_write_blocking>
100003e2:	0022      	movs	r2, r4
100003e4:	9700      	str	r7, [sp, #0]
100003e6:	2306      	movs	r3, #6
100003e8:	2168      	movs	r1, #104	@ 0x68
100003ea:	0028      	movs	r0, r5
100003ec:	f006 fae8 	bl	100069c0 <i2c_read_blocking>
100003f0:	8823      	ldrh	r3, [r4, #0]
100003f2:	0032      	movs	r2, r6
100003f4:	bad8      	revsh	r0, r3
100003f6:	8863      	ldrh	r3, [r4, #2]
100003f8:	9002      	str	r0, [sp, #8]
100003fa:	badb      	revsh	r3, r3
100003fc:	4699      	mov	r9, r3
100003fe:	88a3      	ldrh	r3, [r4, #4]
10000400:	2168      	movs	r1, #104	@ 0x68
10000402:	badb      	revsh	r3, r3
10000404:	469a      	mov	sl, r3
10000406:	2341      	movs	r3, #65	@ 0x41
10000408:	7033      	strb	r3, [r6, #0]
1000040a:	4643      	mov	r3, r8
1000040c:	0028      	movs	r0, r5
1000040e:	9300      	str	r3, [sp, #0]
10000410:	2301      	movs	r3, #1
10000412:	f006 fa6d 	bl	100068f0 <i2c_write_blocking>
10000416:	0022      	movs	r2, r4
10000418:	9700      	str	r7, [sp, #0]
1000041a:	2302      	movs	r3, #2
1000041c:	2168      	movs	r1, #104	@ 0x68
1000041e:	0028      	movs	r0, r5
10000420:	f006 face 	bl	100069c0 <i2c_read_blocking>
10000424:	8827      	ldrh	r7, [r4, #0]
10000426:	465b      	mov	r3, fp
10000428:	9a04      	ldr	r2, [sp, #16]
1000042a:	9903      	ldr	r1, [sp, #12]
1000042c:	9805      	ldr	r0, [sp, #20]
1000042e:	f003 fee1 	bl	100041f4 <__wrap_printf>
10000432:	baff      	revsh	r7, r7
10000434:	4653      	mov	r3, sl
10000436:	464a      	mov	r2, r9
10000438:	9902      	ldr	r1, [sp, #8]
1000043a:	9806      	ldr	r0, [sp, #24]
1000043c:	f003 feda 	bl	100041f4 <__wrap_printf>
10000440:	0038      	movs	r0, r7
10000442:	f001 fd59 	bl	10001ef8 <__wrap___aeabi_i2d>
10000446:	2200      	movs	r2, #0
10000448:	4b0e      	ldr	r3, [pc, #56]	@ (10000484 <main+0x164>)
1000044a:	f001 fcd0 	bl	10001dee <__wrap___aeabi_ddiv>
1000044e:	4a0e      	ldr	r2, [pc, #56]	@ (10000488 <main+0x168>)
10000450:	4b0e      	ldr	r3, [pc, #56]	@ (1000048c <main+0x16c>)
10000452:	f001 fcc3 	bl	10001ddc <__wrap___aeabi_dadd>
10000456:	0002      	movs	r2, r0
10000458:	000b      	movs	r3, r1
1000045a:	9807      	ldr	r0, [sp, #28]
1000045c:	f003 feca 	bl	100041f4 <__wrap_printf>
10000460:	2064      	movs	r0, #100	@ 0x64
10000462:	f000 fe9b 	bl	1000119c <sleep_ms>
10000466:	e797      	b.n	10000398 <main+0x78>
10000468:	10006c80 	.word	0x10006c80
1000046c:	20001058 	.word	0x20001058
10000470:	00061a80 	.word	0x00061a80
10000474:	ffff806b 	.word	0xffff806b
10000478:	10006cb8 	.word	0x10006cb8
1000047c:	10006cd8 	.word	0x10006cd8
10000480:	10006cf8 	.word	0x10006cf8
10000484:	40754000 	.word	0x40754000
10000488:	0a3d70a4 	.word	0x0a3d70a4
1000048c:	404243d7 	.word	0x404243d7

10000490 <gpio_set_function>:
10000490:	4a09      	ldr	r2, [pc, #36]	@ (100004b8 <gpio_set_function+0x28>)
10000492:	0083      	lsls	r3, r0, #2
10000494:	189a      	adds	r2, r3, r2
10000496:	b510      	push	{r4, lr}
10000498:	6814      	ldr	r4, [r2, #0]
1000049a:	2240      	movs	r2, #64	@ 0x40
1000049c:	4054      	eors	r4, r2
1000049e:	3280      	adds	r2, #128	@ 0x80
100004a0:	4022      	ands	r2, r4
100004a2:	4c06      	ldr	r4, [pc, #24]	@ (100004bc <gpio_set_function+0x2c>)
100004a4:	00c0      	lsls	r0, r0, #3
100004a6:	46a4      	mov	ip, r4
100004a8:	4463      	add	r3, ip
100004aa:	601a      	str	r2, [r3, #0]
100004ac:	4b04      	ldr	r3, [pc, #16]	@ (100004c0 <gpio_set_function+0x30>)
100004ae:	469c      	mov	ip, r3
100004b0:	4460      	add	r0, ip
100004b2:	6041      	str	r1, [r0, #4]
100004b4:	bd10      	pop	{r4, pc}
100004b6:	46c0      	nop			@ (mov r8, r8)
100004b8:	4001c004 	.word	0x4001c004
100004bc:	4001d004 	.word	0x4001d004
100004c0:	40014000 	.word	0x40014000

100004c4 <gpio_set_pulls>:
100004c4:	4b07      	ldr	r3, [pc, #28]	@ (100004e4 <gpio_set_pulls+0x20>)
100004c6:	0080      	lsls	r0, r0, #2
100004c8:	18c3      	adds	r3, r0, r3
100004ca:	681b      	ldr	r3, [r3, #0]
100004cc:	00c9      	lsls	r1, r1, #3
100004ce:	0092      	lsls	r2, r2, #2
100004d0:	430a      	orrs	r2, r1
100004d2:	405a      	eors	r2, r3
100004d4:	230c      	movs	r3, #12
100004d6:	4013      	ands	r3, r2
100004d8:	4a03      	ldr	r2, [pc, #12]	@ (100004e8 <gpio_set_pulls+0x24>)
100004da:	4694      	mov	ip, r2
100004dc:	4460      	add	r0, ip
100004de:	6003      	str	r3, [r0, #0]
100004e0:	4770      	bx	lr
100004e2:	46c0      	nop			@ (mov r8, r8)
100004e4:	4001c004 	.word	0x4001c004
100004e8:	4001d004 	.word	0x4001d004

100004ec <rp2040_chip_version>:
100004ec:	2380      	movs	r3, #128	@ 0x80
100004ee:	05db      	lsls	r3, r3, #23
100004f0:	6818      	ldr	r0, [r3, #0]
100004f2:	0f00      	lsrs	r0, r0, #28
100004f4:	4770      	bx	lr
100004f6:	46c0      	nop			@ (mov r8, r8)

100004f8 <panic>:
100004f8:	b40f      	push	{r0, r1, r2, r3}
100004fa:	b500      	push	{lr}
100004fc:	4808      	ldr	r0, [pc, #32]	@ (10000520 <panic+0x28>)
100004fe:	b083      	sub	sp, #12
10000500:	f003 fdf0 	bl	100040e4 <__wrap_puts>
10000504:	9b04      	ldr	r3, [sp, #16]
10000506:	2b00      	cmp	r3, #0
10000508:	d007      	beq.n	1000051a <panic+0x22>
1000050a:	a905      	add	r1, sp, #20
1000050c:	0018      	movs	r0, r3
1000050e:	9101      	str	r1, [sp, #4]
10000510:	f003 fc48 	bl	10003da4 <weak_raw_vprintf>
10000514:	4803      	ldr	r0, [pc, #12]	@ (10000524 <panic+0x2c>)
10000516:	f003 fde5 	bl	100040e4 <__wrap_puts>
1000051a:	2001      	movs	r0, #1
1000051c:	f003 fc5a 	bl	10003dd4 <_exit>
10000520:	10006d04 	.word	0x10006d04
10000524:	10006d14 	.word	0x10006d14

10000528 <hw_claim_or_assert>:
10000528:	b570      	push	{r4, r5, r6, lr}
1000052a:	f3ef 8c10 	mrs	ip, PRIMASK
1000052e:	b672      	cpsid	i
10000530:	4d0d      	ldr	r5, [pc, #52]	@ (10000568 <hw_claim_or_assert+0x40>)
10000532:	682b      	ldr	r3, [r5, #0]
10000534:	2b00      	cmp	r3, #0
10000536:	d0fc      	beq.n	10000532 <hw_claim_or_assert+0xa>
10000538:	f3bf 8f5f 	dmb	sy
1000053c:	2407      	movs	r4, #7
1000053e:	08cb      	lsrs	r3, r1, #3
10000540:	18c6      	adds	r6, r0, r3
10000542:	5cc0      	ldrb	r0, [r0, r3]
10000544:	2301      	movs	r3, #1
10000546:	400c      	ands	r4, r1
10000548:	40a3      	lsls	r3, r4
1000054a:	001c      	movs	r4, r3
1000054c:	4004      	ands	r4, r0
1000054e:	4203      	tst	r3, r0
10000550:	d107      	bne.n	10000562 <hw_claim_or_assert+0x3a>
10000552:	4318      	orrs	r0, r3
10000554:	7030      	strb	r0, [r6, #0]
10000556:	f3bf 8f5f 	dmb	sy
1000055a:	602c      	str	r4, [r5, #0]
1000055c:	f38c 8810 	msr	PRIMASK, ip
10000560:	bd70      	pop	{r4, r5, r6, pc}
10000562:	0010      	movs	r0, r2
10000564:	f7ff ffc8 	bl	100004f8 <panic>
10000568:	d000012c 	.word	0xd000012c

1000056c <hw_claim_unused_from_range>:
1000056c:	b5f8      	push	{r3, r4, r5, r6, r7, lr}
1000056e:	4647      	mov	r7, r8
10000570:	46ce      	mov	lr, r9
10000572:	4688      	mov	r8, r1
10000574:	b580      	push	{r7, lr}
10000576:	f3ef 8c10 	mrs	ip, PRIMASK
1000057a:	b672      	cpsid	i
1000057c:	4d21      	ldr	r5, [pc, #132]	@ (10000604 <hw_claim_unused_from_range+0x98>)
1000057e:	682c      	ldr	r4, [r5, #0]
10000580:	2c00      	cmp	r4, #0
10000582:	d0fc      	beq.n	1000057e <hw_claim_unused_from_range+0x12>
10000584:	f3bf 8f5f 	dmb	sy
10000588:	429a      	cmp	r2, r3
1000058a:	d82c      	bhi.n	100005e6 <hw_claim_unused_from_range+0x7a>
1000058c:	08d4      	lsrs	r4, r2, #3
1000058e:	2707      	movs	r7, #7
10000590:	5d05      	ldrb	r5, [r0, r4]
10000592:	1906      	adds	r6, r0, r4
10000594:	2401      	movs	r4, #1
10000596:	4017      	ands	r7, r2
10000598:	40bc      	lsls	r4, r7
1000059a:	422c      	tst	r4, r5
1000059c:	d01f      	beq.n	100005de <hw_claim_unused_from_range+0x72>
1000059e:	2107      	movs	r1, #7
100005a0:	2701      	movs	r7, #1
100005a2:	4689      	mov	r9, r1
100005a4:	e009      	b.n	100005ba <hw_claim_unused_from_range+0x4e>
100005a6:	08d4      	lsrs	r4, r2, #3
100005a8:	5d05      	ldrb	r5, [r0, r4]
100005aa:	1906      	adds	r6, r0, r4
100005ac:	464c      	mov	r4, r9
100005ae:	0039      	movs	r1, r7
100005b0:	4014      	ands	r4, r2
100005b2:	40a1      	lsls	r1, r4
100005b4:	000c      	movs	r4, r1
100005b6:	4229      	tst	r1, r5
100005b8:	d011      	beq.n	100005de <hw_claim_unused_from_range+0x72>
100005ba:	3201      	adds	r2, #1
100005bc:	4293      	cmp	r3, r2
100005be:	d2f2      	bcs.n	100005a6 <hw_claim_unused_from_range+0x3a>
100005c0:	2001      	movs	r0, #1
100005c2:	4240      	negs	r0, r0
100005c4:	f3bf 8f5f 	dmb	sy
100005c8:	2200      	movs	r2, #0
100005ca:	4b0e      	ldr	r3, [pc, #56]	@ (10000604 <hw_claim_unused_from_range+0x98>)
100005cc:	601a      	str	r2, [r3, #0]
100005ce:	f38c 8810 	msr	PRIMASK, ip
100005d2:	2800      	cmp	r0, #0
100005d4:	db0f      	blt.n	100005f6 <hw_claim_unused_from_range+0x8a>
100005d6:	bcc0      	pop	{r6, r7}
100005d8:	46b9      	mov	r9, r7
100005da:	46b0      	mov	r8, r6
100005dc:	bdf8      	pop	{r3, r4, r5, r6, r7, pc}
100005de:	4325      	orrs	r5, r4
100005e0:	0010      	movs	r0, r2
100005e2:	7035      	strb	r5, [r6, #0]
100005e4:	e7ee      	b.n	100005c4 <hw_claim_unused_from_range+0x58>
100005e6:	f3bf 8f5f 	dmb	sy
100005ea:	2300      	movs	r3, #0
100005ec:	602b      	str	r3, [r5, #0]
100005ee:	f38c 8810 	msr	PRIMASK, ip
100005f2:	2001      	movs	r0, #1
100005f4:	4240      	negs	r0, r0
100005f6:	4643      	mov	r3, r8
100005f8:	2b00      	cmp	r3, #0
100005fa:	d0ec      	beq.n	100005d6 <hw_claim_unused_from_range+0x6a>
100005fc:	9808      	ldr	r0, [sp, #32]
100005fe:	f7ff ff7b 	bl	100004f8 <panic>
10000602:	46c0      	nop			@ (mov r8, r8)
10000604:	d000012c 	.word	0xd000012c

10000608 <next_striped_spin_lock_num>:
10000608:	4a04      	ldr	r2, [pc, #16]	@ (1000061c <next_striped_spin_lock_num+0x14>)
1000060a:	7810      	ldrb	r0, [r2, #0]
1000060c:	1c43      	adds	r3, r0, #1
1000060e:	b2db      	uxtb	r3, r3
10000610:	2b17      	cmp	r3, #23
10000612:	d900      	bls.n	10000616 <next_striped_spin_lock_num+0xe>
10000614:	2310      	movs	r3, #16
10000616:	7013      	strb	r3, [r2, #0]
10000618:	4770      	bx	lr
1000061a:	46c0      	nop			@ (mov r8, r8)
1000061c:	20000f98 	.word	0x20000f98

10000620 <spin_lock_claim_unused>:
10000620:	b510      	push	{r4, lr}
10000622:	4b06      	ldr	r3, [pc, #24]	@ (1000063c <spin_lock_claim_unused+0x1c>)
10000624:	4c06      	ldr	r4, [pc, #24]	@ (10000640 <spin_lock_claim_unused+0x20>)
10000626:	b082      	sub	sp, #8
10000628:	0001      	movs	r1, r0
1000062a:	9300      	str	r3, [sp, #0]
1000062c:	2218      	movs	r2, #24
1000062e:	231f      	movs	r3, #31
10000630:	0020      	movs	r0, r4
10000632:	f7ff ff9b 	bl	1000056c <hw_claim_unused_from_range>
10000636:	b002      	add	sp, #8
10000638:	bd10      	pop	{r4, pc}
1000063a:	46c0      	nop			@ (mov r8, r8)
1000063c:	10006d18 	.word	0x10006d18
10000640:	20001db0 	.word	0x20001db0

10000644 <spin_locks_reset>:
10000644:	2100      	movs	r1, #0
10000646:	4b04      	ldr	r3, [pc, #16]	@ (10000658 <spin_locks_reset+0x14>)
10000648:	4a04      	ldr	r2, [pc, #16]	@ (1000065c <spin_locks_reset+0x18>)
1000064a:	f3bf 8f5f 	dmb	sy
1000064e:	c302      	stmia	r3!, {r1}
10000650:	4293      	cmp	r3, r2
10000652:	d1fa      	bne.n	1000064a <spin_locks_reset+0x6>
10000654:	4770      	bx	lr
10000656:	46c0      	nop			@ (mov r8, r8)
10000658:	d0000100 	.word	0xd0000100
1000065c:	d0000180 	.word	0xd0000180

10000660 <runtime_init_per_core_irq_priorities>:
10000660:	4b05      	ldr	r3, [pc, #20]	@ (10000678 <runtime_init_per_core_irq_priorities+0x18>)
10000662:	4a06      	ldr	r2, [pc, #24]	@ (1000067c <runtime_init_per_core_irq_priorities+0x1c>)
10000664:	6013      	str	r3, [r2, #0]
10000666:	4a06      	ldr	r2, [pc, #24]	@ (10000680 <runtime_init_per_core_irq_priorities+0x20>)
10000668:	6013      	str	r3, [r2, #0]
1000066a:	6053      	str	r3, [r2, #4]
1000066c:	6093      	str	r3, [r2, #8]
1000066e:	60d3      	str	r3, [r2, #12]
10000670:	6113      	str	r3, [r2, #16]
10000672:	6153      	str	r3, [r2, #20]
10000674:	6193      	str	r3, [r2, #24]
10000676:	4770      	bx	lr
10000678:	80808080 	.word	0x80808080
1000067c:	e000e400 	.word	0xe000e400
10000680:	e000e404 	.word	0xe000e404

10000684 <irq_set_enabled>:
10000684:	231f      	movs	r3, #31
10000686:	4018      	ands	r0, r3
10000688:	3b1e      	subs	r3, #30
1000068a:	4083      	lsls	r3, r0
1000068c:	2900      	cmp	r1, #0
1000068e:	d005      	beq.n	1000069c <irq_set_enabled+0x18>
10000690:	21c0      	movs	r1, #192	@ 0xc0
10000692:	4a04      	ldr	r2, [pc, #16]	@ (100006a4 <irq_set_enabled+0x20>)
10000694:	0049      	lsls	r1, r1, #1
10000696:	5053      	str	r3, [r2, r1]
10000698:	6013      	str	r3, [r2, #0]
1000069a:	4770      	bx	lr
1000069c:	2280      	movs	r2, #128	@ 0x80
1000069e:	4901      	ldr	r1, [pc, #4]	@ (100006a4 <irq_set_enabled+0x20>)
100006a0:	508b      	str	r3, [r1, r2]
100006a2:	e7fa      	b.n	1000069a <irq_set_enabled+0x16>
100006a4:	e000e100 	.word	0xe000e100

100006a8 <irq_is_enabled>:
100006a8:	2201      	movs	r2, #1
100006aa:	4082      	lsls	r2, r0
100006ac:	4b03      	ldr	r3, [pc, #12]	@ (100006bc <irq_is_enabled+0x14>)
100006ae:	681b      	ldr	r3, [r3, #0]
100006b0:	4013      	ands	r3, r2
100006b2:	1e5a      	subs	r2, r3, #1
100006b4:	4193      	sbcs	r3, r2
100006b6:	b2d8      	uxtb	r0, r3
100006b8:	4770      	bx	lr
100006ba:	46c0      	nop			@ (mov r8, r8)
100006bc:	e000e100 	.word	0xe000e100

100006c0 <irq_set_pending>:
100006c0:	2301      	movs	r3, #1
100006c2:	4083      	lsls	r3, r0
100006c4:	4a01      	ldr	r2, [pc, #4]	@ (100006cc <irq_set_pending+0xc>)
100006c6:	6013      	str	r3, [r2, #0]
100006c8:	4770      	bx	lr
100006ca:	46c0      	nop			@ (mov r8, r8)
100006cc:	e000e200 	.word	0xe000e200

100006d0 <irq_has_shared_handler>:
100006d0:	4b08      	ldr	r3, [pc, #32]	@ (100006f4 <irq_has_shared_handler+0x24>)
100006d2:	3010      	adds	r0, #16
100006d4:	689b      	ldr	r3, [r3, #8]
100006d6:	0080      	lsls	r0, r0, #2
100006d8:	58c3      	ldr	r3, [r0, r3]
100006da:	2b00      	cmp	r3, #0
100006dc:	d007      	beq.n	100006ee <irq_has_shared_handler+0x1e>
100006de:	4a06      	ldr	r2, [pc, #24]	@ (100006f8 <irq_has_shared_handler+0x28>)
100006e0:	2000      	movs	r0, #0
100006e2:	1a9b      	subs	r3, r3, r2
100006e4:	222f      	movs	r2, #47	@ 0x2f
100006e6:	429a      	cmp	r2, r3
100006e8:	4140      	adcs	r0, r0
100006ea:	b2c0      	uxtb	r0, r0
100006ec:	4770      	bx	lr
100006ee:	2000      	movs	r0, #0
100006f0:	e7fc      	b.n	100006ec <irq_has_shared_handler+0x1c>
100006f2:	46c0      	nop			@ (mov r8, r8)
100006f4:	e000ed00 	.word	0xe000ed00
100006f8:	20000f9c 	.word	0x20000f9c

100006fc <irq_set_exclusive_handler>:
100006fc:	b570      	push	{r4, r5, r6, lr}
100006fe:	000d      	movs	r5, r1
10000700:	f3ef 8610 	mrs	r6, PRIMASK
10000704:	b672      	cpsid	i
10000706:	4a0f      	ldr	r2, [pc, #60]	@ (10000744 <irq_set_exclusive_handler+0x48>)
10000708:	6813      	ldr	r3, [r2, #0]
1000070a:	2b00      	cmp	r3, #0
1000070c:	d0fc      	beq.n	10000708 <irq_set_exclusive_handler+0xc>
1000070e:	f3bf 8f5f 	dmb	sy
10000712:	4b0d      	ldr	r3, [pc, #52]	@ (10000748 <irq_set_exclusive_handler+0x4c>)
10000714:	3010      	adds	r0, #16
10000716:	689b      	ldr	r3, [r3, #8]
10000718:	0084      	lsls	r4, r0, #2
1000071a:	591b      	ldr	r3, [r3, r4]
1000071c:	4a0b      	ldr	r2, [pc, #44]	@ (1000074c <irq_set_exclusive_handler+0x50>)
1000071e:	4293      	cmp	r3, r2
10000720:	d003      	beq.n	1000072a <irq_set_exclusive_handler+0x2e>
10000722:	429d      	cmp	r5, r3
10000724:	d001      	beq.n	1000072a <irq_set_exclusive_handler+0x2e>
10000726:	f000 ffcd 	bl	100016c4 <hard_assertion_failure>
1000072a:	4b07      	ldr	r3, [pc, #28]	@ (10000748 <irq_set_exclusive_handler+0x4c>)
1000072c:	689b      	ldr	r3, [r3, #8]
1000072e:	511d      	str	r5, [r3, r4]
10000730:	f3bf 8f5f 	dmb	sy
10000734:	f3bf 8f5f 	dmb	sy
10000738:	2200      	movs	r2, #0
1000073a:	4b02      	ldr	r3, [pc, #8]	@ (10000744 <irq_set_exclusive_handler+0x48>)
1000073c:	601a      	str	r2, [r3, #0]
1000073e:	f386 8810 	msr	PRIMASK, r6
10000742:	bd70      	pop	{r4, r5, r6, pc}
10000744:	d0000124 	.word	0xd0000124
10000748:	e000ed00 	.word	0xe000ed00
1000074c:	100001cd 	.word	0x100001cd

10000750 <irq_add_shared_handler>:
10000750:	b5f0      	push	{r4, r5, r6, r7, lr}
10000752:	4657      	mov	r7, sl
10000754:	464e      	mov	r6, r9
10000756:	46de      	mov	lr, fp
10000758:	4645      	mov	r5, r8
1000075a:	b5e0      	push	{r5, r6, r7, lr}
1000075c:	b085      	sub	sp, #20
1000075e:	0006      	movs	r6, r0
10000760:	9100      	str	r1, [sp, #0]
10000762:	0017      	movs	r7, r2
10000764:	f3ef 8b10 	mrs	fp, PRIMASK
10000768:	b672      	cpsid	i
1000076a:	4a6a      	ldr	r2, [pc, #424]	@ (10000914 <irq_add_shared_handler+0x1c4>)
1000076c:	6813      	ldr	r3, [r2, #0]
1000076e:	2b00      	cmp	r3, #0
10000770:	d0fc      	beq.n	1000076c <irq_add_shared_handler+0x1c>
10000772:	f3bf 8f5f 	dmb	sy
10000776:	2500      	movs	r5, #0
10000778:	4b67      	ldr	r3, [pc, #412]	@ (10000918 <irq_add_shared_handler+0x1c8>)
1000077a:	575d      	ldrsb	r5, [r3, r5]
1000077c:	469a      	mov	sl, r3
1000077e:	2d00      	cmp	r5, #0
10000780:	da00      	bge.n	10000784 <irq_add_shared_handler+0x34>
10000782:	e0a9      	b.n	100008d8 <irq_add_shared_handler+0x188>
10000784:	006b      	lsls	r3, r5, #1
10000786:	4c65      	ldr	r4, [pc, #404]	@ (1000091c <irq_add_shared_handler+0x1cc>)
10000788:	9301      	str	r3, [sp, #4]
1000078a:	195b      	adds	r3, r3, r5
1000078c:	009b      	lsls	r3, r3, #2
1000078e:	4698      	mov	r8, r3
10000790:	46a1      	mov	r9, r4
10000792:	44c1      	add	r9, r8
10000794:	464b      	mov	r3, r9
10000796:	4652      	mov	r2, sl
10000798:	799b      	ldrb	r3, [r3, #6]
1000079a:	3610      	adds	r6, #16
1000079c:	7013      	strb	r3, [r2, #0]
1000079e:	4b60      	ldr	r3, [pc, #384]	@ (10000920 <irq_add_shared_handler+0x1d0>)
100007a0:	00b6      	lsls	r6, r6, #2
100007a2:	689b      	ldr	r3, [r3, #8]
100007a4:	5999      	ldr	r1, [r3, r6]
100007a6:	1b0b      	subs	r3, r1, r4
100007a8:	2b2f      	cmp	r3, #47	@ 0x2f
100007aa:	d933      	bls.n	10000814 <irq_add_shared_handler+0xc4>
100007ac:	4b5d      	ldr	r3, [pc, #372]	@ (10000924 <irq_add_shared_handler+0x1d4>)
100007ae:	4299      	cmp	r1, r3
100007b0:	d000      	beq.n	100007b4 <irq_add_shared_handler+0x64>
100007b2:	e0ac      	b.n	1000090e <irq_add_shared_handler+0x1be>
100007b4:	9b01      	ldr	r3, [sp, #4]
100007b6:	4642      	mov	r2, r8
100007b8:	469c      	mov	ip, r3
100007ba:	4b5b      	ldr	r3, [pc, #364]	@ (10000928 <irq_add_shared_handler+0x1d8>)
100007bc:	4465      	add	r5, ip
100007be:	00ad      	lsls	r5, r5, #2
100007c0:	5363      	strh	r3, [r4, r5]
100007c2:	4b5a      	ldr	r3, [pc, #360]	@ (1000092c <irq_add_shared_handler+0x1dc>)
100007c4:	3202      	adds	r2, #2
100007c6:	18a2      	adds	r2, r4, r2
100007c8:	3b04      	subs	r3, #4
100007ca:	1a9b      	subs	r3, r3, r2
100007cc:	051b      	lsls	r3, r3, #20
100007ce:	4a58      	ldr	r2, [pc, #352]	@ (10000930 <irq_add_shared_handler+0x1e0>)
100007d0:	0d5b      	lsrs	r3, r3, #21
100007d2:	1965      	adds	r5, r4, r5
100007d4:	4313      	orrs	r3, r2
100007d6:	806b      	strh	r3, [r5, #2]
100007d8:	4b56      	ldr	r3, [pc, #344]	@ (10000934 <irq_add_shared_handler+0x1e4>)
100007da:	2101      	movs	r1, #1
100007dc:	80ab      	strh	r3, [r5, #4]
100007de:	23ff      	movs	r3, #255	@ 0xff
100007e0:	71ab      	strb	r3, [r5, #6]
100007e2:	9b00      	ldr	r3, [sp, #0]
100007e4:	71ef      	strb	r7, [r5, #7]
100007e6:	60ab      	str	r3, [r5, #8]
100007e8:	464b      	mov	r3, r9
100007ea:	430b      	orrs	r3, r1
100007ec:	0019      	movs	r1, r3
100007ee:	4b4c      	ldr	r3, [pc, #304]	@ (10000920 <irq_add_shared_handler+0x1d0>)
100007f0:	689b      	ldr	r3, [r3, #8]
100007f2:	5199      	str	r1, [r3, r6]
100007f4:	f3bf 8f5f 	dmb	sy
100007f8:	f3bf 8f5f 	dmb	sy
100007fc:	2200      	movs	r2, #0
100007fe:	4b45      	ldr	r3, [pc, #276]	@ (10000914 <irq_add_shared_handler+0x1c4>)
10000800:	601a      	str	r2, [r3, #0]
10000802:	f38b 8810 	msr	PRIMASK, fp
10000806:	b005      	add	sp, #20
10000808:	bcf0      	pop	{r4, r5, r6, r7}
1000080a:	46bb      	mov	fp, r7
1000080c:	46b2      	mov	sl, r6
1000080e:	46a9      	mov	r9, r5
10000810:	46a0      	mov	r8, r4
10000812:	bdf0      	pop	{r4, r5, r6, r7, pc}
10000814:	2001      	movs	r0, #1
10000816:	000a      	movs	r2, r1
10000818:	4382      	bics	r2, r0
1000081a:	79d3      	ldrb	r3, [r2, #7]
1000081c:	468c      	mov	ip, r1
1000081e:	42bb      	cmp	r3, r7
10000820:	d831      	bhi.n	10000886 <irq_add_shared_handler+0x136>
10000822:	4645      	mov	r5, r8
10000824:	0013      	movs	r3, r2
10000826:	4944      	ldr	r1, [pc, #272]	@ (10000938 <irq_add_shared_handler+0x1e8>)
10000828:	1b1b      	subs	r3, r3, r4
1000082a:	415b      	adcs	r3, r3
1000082c:	4359      	muls	r1, r3
1000082e:	0d09      	lsrs	r1, r1, #20
10000830:	4b3d      	ldr	r3, [pc, #244]	@ (10000928 <irq_add_shared_handler+0x1d8>)
10000832:	5363      	strh	r3, [r4, r5]
10000834:	4b3d      	ldr	r3, [pc, #244]	@ (1000092c <irq_add_shared_handler+0x1dc>)
10000836:	3502      	adds	r5, #2
10000838:	1965      	adds	r5, r4, r5
1000083a:	3b04      	subs	r3, #4
1000083c:	1b5b      	subs	r3, r3, r5
1000083e:	051b      	lsls	r3, r3, #20
10000840:	4d3b      	ldr	r5, [pc, #236]	@ (10000930 <irq_add_shared_handler+0x1e0>)
10000842:	0d5b      	lsrs	r3, r3, #21
10000844:	432b      	orrs	r3, r5
10000846:	46aa      	mov	sl, r5
10000848:	464d      	mov	r5, r9
1000084a:	806b      	strh	r3, [r5, #2]
1000084c:	2504      	movs	r5, #4
1000084e:	46ac      	mov	ip, r5
10000850:	4655      	mov	r5, sl
10000852:	44e0      	add	r8, ip
10000854:	1f13      	subs	r3, r2, #4
10000856:	4444      	add	r4, r8
10000858:	1b1b      	subs	r3, r3, r4
1000085a:	051b      	lsls	r3, r3, #20
1000085c:	0d5b      	lsrs	r3, r3, #21
1000085e:	431d      	orrs	r5, r3
10000860:	464b      	mov	r3, r9
10000862:	7199      	strb	r1, [r3, #6]
10000864:	9900      	ldr	r1, [sp, #0]
10000866:	809d      	strh	r5, [r3, #4]
10000868:	6099      	str	r1, [r3, #8]
1000086a:	4649      	mov	r1, r9
1000086c:	71df      	strb	r7, [r3, #7]
1000086e:	4b33      	ldr	r3, [pc, #204]	@ (1000093c <irq_add_shared_handler+0x1ec>)
10000870:	4301      	orrs	r1, r0
10000872:	6013      	str	r3, [r2, #0]
10000874:	e7bb      	b.n	100007ee <irq_add_shared_handler+0x9e>
10000876:	0058      	lsls	r0, r3, #1
10000878:	18c0      	adds	r0, r0, r3
1000087a:	0080      	lsls	r0, r0, #2
1000087c:	1820      	adds	r0, r4, r0
1000087e:	79c1      	ldrb	r1, [r0, #7]
10000880:	42b9      	cmp	r1, r7
10000882:	d92f      	bls.n	100008e4 <irq_add_shared_handler+0x194>
10000884:	0002      	movs	r2, r0
10000886:	2306      	movs	r3, #6
10000888:	56d3      	ldrsb	r3, [r2, r3]
1000088a:	2b00      	cmp	r3, #0
1000088c:	daf3      	bge.n	10000876 <irq_add_shared_handler+0x126>
1000088e:	9302      	str	r3, [sp, #8]
10000890:	4b2b      	ldr	r3, [pc, #172]	@ (10000940 <irq_add_shared_handler+0x1f0>)
10000892:	4661      	mov	r1, ip
10000894:	9303      	str	r3, [sp, #12]
10000896:	1d13      	adds	r3, r2, #4
10000898:	469a      	mov	sl, r3
1000089a:	2304      	movs	r3, #4
1000089c:	425b      	negs	r3, r3
1000089e:	469c      	mov	ip, r3
100008a0:	44e1      	add	r9, ip
100008a2:	4650      	mov	r0, sl
100008a4:	464b      	mov	r3, r9
100008a6:	1a1b      	subs	r3, r3, r0
100008a8:	051b      	lsls	r3, r3, #20
100008aa:	0d5b      	lsrs	r3, r3, #21
100008ac:	469c      	mov	ip, r3
100008ae:	4b20      	ldr	r3, [pc, #128]	@ (10000930 <irq_add_shared_handler+0x1e0>)
100008b0:	7195      	strb	r5, [r2, #6]
100008b2:	4698      	mov	r8, r3
100008b4:	4663      	mov	r3, ip
100008b6:	4640      	mov	r0, r8
100008b8:	4303      	orrs	r3, r0
100008ba:	8093      	strh	r3, [r2, #4]
100008bc:	9b01      	ldr	r3, [sp, #4]
100008be:	195a      	adds	r2, r3, r5
100008c0:	0092      	lsls	r2, r2, #2
100008c2:	9b03      	ldr	r3, [sp, #12]
100008c4:	18a4      	adds	r4, r4, r2
100008c6:	80a3      	strh	r3, [r4, #4]
100008c8:	9b02      	ldr	r3, [sp, #8]
100008ca:	4a1c      	ldr	r2, [pc, #112]	@ (1000093c <irq_add_shared_handler+0x1ec>)
100008cc:	71a3      	strb	r3, [r4, #6]
100008ce:	9b00      	ldr	r3, [sp, #0]
100008d0:	6022      	str	r2, [r4, #0]
100008d2:	71e7      	strb	r7, [r4, #7]
100008d4:	60a3      	str	r3, [r4, #8]
100008d6:	e78a      	b.n	100007ee <irq_add_shared_handler+0x9e>
100008d8:	f000 fef4 	bl	100016c4 <hard_assertion_failure>
100008dc:	2500      	movs	r5, #0
100008de:	4653      	mov	r3, sl
100008e0:	575d      	ldrsb	r5, [r3, r5]
100008e2:	e74f      	b.n	10000784 <irq_add_shared_handler+0x34>
100008e4:	8890      	ldrh	r0, [r2, #4]
100008e6:	9302      	str	r3, [sp, #8]
100008e8:	0540      	lsls	r0, r0, #21
100008ea:	1d13      	adds	r3, r2, #4
100008ec:	469a      	mov	sl, r3
100008ee:	1503      	asrs	r3, r0, #20
100008f0:	4661      	mov	r1, ip
100008f2:	469c      	mov	ip, r3
100008f4:	4640      	mov	r0, r8
100008f6:	44d4      	add	ip, sl
100008f8:	4663      	mov	r3, ip
100008fa:	3004      	adds	r0, #4
100008fc:	1820      	adds	r0, r4, r0
100008fe:	1a18      	subs	r0, r3, r0
10000900:	23e0      	movs	r3, #224	@ 0xe0
10000902:	0500      	lsls	r0, r0, #20
10000904:	0d40      	lsrs	r0, r0, #21
10000906:	021b      	lsls	r3, r3, #8
10000908:	4318      	orrs	r0, r3
1000090a:	9003      	str	r0, [sp, #12]
1000090c:	e7c5      	b.n	1000089a <irq_add_shared_handler+0x14a>
1000090e:	f000 fed9 	bl	100016c4 <hard_assertion_failure>
10000912:	e74f      	b.n	100007b4 <irq_add_shared_handler+0x64>
10000914:	d0000124 	.word	0xd0000124
10000918:	20002265 	.word	0x20002265
1000091c:	20000f9c 	.word	0x20000f9c
10000920:	e000ed00 	.word	0xe000ed00
10000924:	100001cd 	.word	0x100001cd
10000928:	ffffa100 	.word	0xffffa100
1000092c:	20000fcc 	.word	0x20000fcc
10000930:	ffffe000 	.word	0xffffe000
10000934:	ffffbd01 	.word	0xffffbd01
10000938:	0000aaaa 	.word	0x0000aaaa
1000093c:	47804801 	.word	0x47804801
10000940:	0000bd01 	.word	0x0000bd01

10000944 <irq_add_tail_to_free_list>:
10000944:	b570      	push	{r4, r5, r6, lr}
10000946:	2401      	movs	r4, #1
10000948:	4304      	orrs	r4, r0
1000094a:	f3ef 8105 	mrs	r1, IPSR
1000094e:	f3ef 8c10 	mrs	ip, PRIMASK
10000952:	b672      	cpsid	i
10000954:	4a21      	ldr	r2, [pc, #132]	@ (100009dc <irq_add_tail_to_free_list+0x98>)
10000956:	6813      	ldr	r3, [r2, #0]
10000958:	2b00      	cmp	r3, #0
1000095a:	d0fc      	beq.n	10000956 <irq_add_tail_to_free_list+0x12>
1000095c:	f3bf 8f5f 	dmb	sy
10000960:	4b1f      	ldr	r3, [pc, #124]	@ (100009e0 <irq_add_tail_to_free_list+0x9c>)
10000962:	0005      	movs	r5, r0
10000964:	4a1f      	ldr	r2, [pc, #124]	@ (100009e4 <irq_add_tail_to_free_list+0xa0>)
10000966:	1aed      	subs	r5, r5, r3
10000968:	416d      	adcs	r5, r5
1000096a:	436a      	muls	r2, r5
1000096c:	0d12      	lsrs	r2, r2, #20
1000096e:	4d1e      	ldr	r5, [pc, #120]	@ (100009e8 <irq_add_tail_to_free_list+0xa4>)
10000970:	0089      	lsls	r1, r1, #2
10000972:	68ae      	ldr	r6, [r5, #8]
10000974:	b252      	sxtb	r2, r2
10000976:	5876      	ldr	r6, [r6, r1]
10000978:	42a6      	cmp	r6, r4
1000097a:	d01c      	beq.n	100009b6 <irq_add_tail_to_free_list+0x72>
1000097c:	2106      	movs	r1, #6
1000097e:	5659      	ldrsb	r1, [r3, r1]
10000980:	4291      	cmp	r1, r2
10000982:	d01c      	beq.n	100009be <irq_add_tail_to_free_list+0x7a>
10000984:	2112      	movs	r1, #18
10000986:	5659      	ldrsb	r1, [r3, r1]
10000988:	4291      	cmp	r1, r2
1000098a:	d022      	beq.n	100009d2 <irq_add_tail_to_free_list+0x8e>
1000098c:	211e      	movs	r1, #30
1000098e:	5659      	ldrsb	r1, [r3, r1]
10000990:	4291      	cmp	r1, r2
10000992:	d020      	beq.n	100009d6 <irq_add_tail_to_free_list+0x92>
10000994:	212a      	movs	r1, #42	@ 0x2a
10000996:	5659      	ldrsb	r1, [r3, r1]
10000998:	2403      	movs	r4, #3
1000099a:	4291      	cmp	r1, r2
1000099c:	d010      	beq.n	100009c0 <irq_add_tail_to_free_list+0x7c>
1000099e:	4b13      	ldr	r3, [pc, #76]	@ (100009ec <irq_add_tail_to_free_list+0xa8>)
100009a0:	7819      	ldrb	r1, [r3, #0]
100009a2:	701a      	strb	r2, [r3, #0]
100009a4:	7181      	strb	r1, [r0, #6]
100009a6:	f3bf 8f5f 	dmb	sy
100009aa:	2200      	movs	r2, #0
100009ac:	4b0b      	ldr	r3, [pc, #44]	@ (100009dc <irq_add_tail_to_free_list+0x98>)
100009ae:	601a      	str	r2, [r3, #0]
100009b0:	f38c 8810 	msr	PRIMASK, ip
100009b4:	bd70      	pop	{r4, r5, r6, pc}
100009b6:	68ab      	ldr	r3, [r5, #8]
100009b8:	4c0d      	ldr	r4, [pc, #52]	@ (100009f0 <irq_add_tail_to_free_list+0xac>)
100009ba:	505c      	str	r4, [r3, r1]
100009bc:	e7ef      	b.n	1000099e <irq_add_tail_to_free_list+0x5a>
100009be:	2400      	movs	r4, #0
100009c0:	0061      	lsls	r1, r4, #1
100009c2:	1909      	adds	r1, r1, r4
100009c4:	0089      	lsls	r1, r1, #2
100009c6:	185b      	adds	r3, r3, r1
100009c8:	21ff      	movs	r1, #255	@ 0xff
100009ca:	7199      	strb	r1, [r3, #6]
100009cc:	4909      	ldr	r1, [pc, #36]	@ (100009f4 <irq_add_tail_to_free_list+0xb0>)
100009ce:	8099      	strh	r1, [r3, #4]
100009d0:	e7e5      	b.n	1000099e <irq_add_tail_to_free_list+0x5a>
100009d2:	2401      	movs	r4, #1
100009d4:	e7f4      	b.n	100009c0 <irq_add_tail_to_free_list+0x7c>
100009d6:	2402      	movs	r4, #2
100009d8:	e7f2      	b.n	100009c0 <irq_add_tail_to_free_list+0x7c>
100009da:	46c0      	nop			@ (mov r8, r8)
100009dc:	d0000124 	.word	0xd0000124
100009e0:	20000f9c 	.word	0x20000f9c
100009e4:	0000aaaa 	.word	0x0000aaaa
100009e8:	e000ed00 	.word	0xe000ed00
100009ec:	20002265 	.word	0x20002265
100009f0:	100001cd 	.word	0x100001cd
100009f4:	ffffbd01 	.word	0xffffbd01

100009f8 <user_irq_claim_unused>:
100009f8:	b510      	push	{r4, lr}
100009fa:	4b08      	ldr	r3, [pc, #32]	@ (10000a1c <user_irq_claim_unused+0x24>)
100009fc:	4c08      	ldr	r4, [pc, #32]	@ (10000a20 <user_irq_claim_unused+0x28>)
100009fe:	b082      	sub	sp, #8
10000a00:	0001      	movs	r1, r0
10000a02:	9300      	str	r3, [sp, #0]
10000a04:	2200      	movs	r2, #0
10000a06:	2305      	movs	r3, #5
10000a08:	0020      	movs	r0, r4
10000a0a:	f7ff fdaf 	bl	1000056c <hw_claim_unused_from_range>
10000a0e:	2800      	cmp	r0, #0
10000a10:	db01      	blt.n	10000a16 <user_irq_claim_unused+0x1e>
10000a12:	231f      	movs	r3, #31
10000a14:	1a18      	subs	r0, r3, r0
10000a16:	b002      	add	sp, #8
10000a18:	bd10      	pop	{r4, pc}
10000a1a:	46c0      	nop			@ (mov r8, r8)
10000a1c:	10006d34 	.word	0x10006d34
10000a20:	20002269 	.word	0x20002269

10000a24 <lock_init>:
10000a24:	4b02      	ldr	r3, [pc, #8]	@ (10000a30 <lock_init+0xc>)
10000a26:	469c      	mov	ip, r3
10000a28:	4461      	add	r1, ip
10000a2a:	0089      	lsls	r1, r1, #2
10000a2c:	6001      	str	r1, [r0, #0]
10000a2e:	4770      	bx	lr
10000a30:	34000040 	.word	0x34000040

10000a34 <runtime_init_mutex>:
10000a34:	b570      	push	{r4, r5, r6, lr}
10000a36:	4c11      	ldr	r4, [pc, #68]	@ (10000a7c <runtime_init_mutex+0x48>)
10000a38:	4d11      	ldr	r5, [pc, #68]	@ (10000a80 <runtime_init_mutex+0x4c>)
10000a3a:	42ac      	cmp	r4, r5
10000a3c:	d20f      	bcs.n	10000a5e <runtime_init_mutex+0x2a>
10000a3e:	26ff      	movs	r6, #255	@ 0xff
10000a40:	6823      	ldr	r3, [r4, #0]
10000a42:	2b00      	cmp	r3, #0
10000a44:	d00c      	beq.n	10000a60 <runtime_init_mutex+0x2c>
10000a46:	f7ff fddf 	bl	10000608 <next_striped_spin_lock_num>
10000a4a:	0001      	movs	r1, r0
10000a4c:	0020      	movs	r0, r4
10000a4e:	f7ff ffe9 	bl	10000a24 <lock_init>
10000a52:	80a6      	strh	r6, [r4, #4]
10000a54:	f3bf 8f5f 	dmb	sy
10000a58:	3408      	adds	r4, #8
10000a5a:	42ac      	cmp	r4, r5
10000a5c:	d3f0      	bcc.n	10000a40 <runtime_init_mutex+0xc>
10000a5e:	bd70      	pop	{r4, r5, r6, pc}
10000a60:	f7ff fdd2 	bl	10000608 <next_striped_spin_lock_num>
10000a64:	0001      	movs	r1, r0
10000a66:	0020      	movs	r0, r4
10000a68:	f7ff ffdc 	bl	10000a24 <lock_init>
10000a6c:	7126      	strb	r6, [r4, #4]
10000a6e:	f3bf 8f5f 	dmb	sy
10000a72:	3408      	adds	r4, #8
10000a74:	42ac      	cmp	r4, r5
10000a76:	d3e3      	bcc.n	10000a40 <runtime_init_mutex+0xc>
10000a78:	e7f1      	b.n	10000a5e <runtime_init_mutex+0x2a>
10000a7a:	46c0      	nop			@ (mov r8, r8)
10000a7c:	20001060 	.word	0x20001060
10000a80:	20001068 	.word	0x20001068

10000a84 <mutex_init>:
10000a84:	b510      	push	{r4, lr}
10000a86:	0004      	movs	r4, r0
10000a88:	f7ff fdbe 	bl	10000608 <next_striped_spin_lock_num>
10000a8c:	0001      	movs	r1, r0
10000a8e:	0020      	movs	r0, r4
10000a90:	f7ff ffc8 	bl	10000a24 <lock_init>
10000a94:	23ff      	movs	r3, #255	@ 0xff
10000a96:	7123      	strb	r3, [r4, #4]
10000a98:	f3bf 8f5f 	dmb	sy
10000a9c:	bd10      	pop	{r4, pc}
10000a9e:	46c0      	nop			@ (mov r8, r8)

10000aa0 <critical_section_init>:
10000aa0:	b510      	push	{r4, lr}
10000aa2:	0004      	movs	r4, r0
10000aa4:	2001      	movs	r0, #1
10000aa6:	f7ff fdbb 	bl	10000620 <spin_lock_claim_unused>
10000aaa:	4b03      	ldr	r3, [pc, #12]	@ (10000ab8 <critical_section_init+0x18>)
10000aac:	18c3      	adds	r3, r0, r3
10000aae:	009b      	lsls	r3, r3, #2
10000ab0:	6023      	str	r3, [r4, #0]
10000ab2:	f3bf 8f5f 	dmb	sy
10000ab6:	bd10      	pop	{r4, pc}
10000ab8:	34000040 	.word	0x34000040

10000abc <critical_section_init_with_lock_num>:
10000abc:	4b03      	ldr	r3, [pc, #12]	@ (10000acc <critical_section_init_with_lock_num+0x10>)
10000abe:	469c      	mov	ip, r3
10000ac0:	4461      	add	r1, ip
10000ac2:	0089      	lsls	r1, r1, #2
10000ac4:	6001      	str	r1, [r0, #0]
10000ac6:	f3bf 8f5f 	dmb	sy
10000aca:	4770      	bx	lr
10000acc:	34000040 	.word	0x34000040

10000ad0 <sleep_until_callback>:
10000ad0:	4b0a      	ldr	r3, [pc, #40]	@ (10000afc <sleep_until_callback+0x2c>)
10000ad2:	6819      	ldr	r1, [r3, #0]
10000ad4:	f3ef 8010 	mrs	r0, PRIMASK
10000ad8:	b672      	cpsid	i
10000ada:	680a      	ldr	r2, [r1, #0]
10000adc:	2a00      	cmp	r2, #0
10000ade:	d0fc      	beq.n	10000ada <sleep_until_callback+0xa>
10000ae0:	f3bf 8f5f 	dmb	sy
10000ae4:	681b      	ldr	r3, [r3, #0]
10000ae6:	f3bf 8f5f 	dmb	sy
10000aea:	2200      	movs	r2, #0
10000aec:	601a      	str	r2, [r3, #0]
10000aee:	f380 8810 	msr	PRIMASK, r0
10000af2:	bf40      	sev
10000af4:	2000      	movs	r0, #0
10000af6:	2100      	movs	r1, #0
10000af8:	4770      	bx	lr
10000afa:	46c0      	nop			@ (mov r8, r8)
10000afc:	20002244 	.word	0x20002244

10000b00 <alarm_pool_irq_handler>:
10000b00:	b5f0      	push	{r4, r5, r6, r7, lr}
10000b02:	46de      	mov	lr, fp
10000b04:	4657      	mov	r7, sl
10000b06:	464e      	mov	r6, r9
10000b08:	4645      	mov	r5, r8
10000b0a:	b5e0      	push	{r5, r6, r7, lr}
10000b0c:	b083      	sub	sp, #12
10000b0e:	f3ef 8305 	mrs	r3, IPSR
10000b12:	2203      	movs	r2, #3
10000b14:	401a      	ands	r2, r3
10000b16:	4693      	mov	fp, r2
10000b18:	4bae      	ldr	r3, [pc, #696]	@ (10000dd4 <alarm_pool_irq_handler+0x2d4>)
10000b1a:	0092      	lsls	r2, r2, #2
10000b1c:	4cae      	ldr	r4, [pc, #696]	@ (10000dd8 <alarm_pool_irq_handler+0x2d8>)
10000b1e:	58d3      	ldr	r3, [r2, r3]
10000b20:	0020      	movs	r0, r4
10000b22:	4698      	mov	r8, r3
10000b24:	f000 fbfa 	bl	1000131c <timer_time_us_64>
10000b28:	465a      	mov	r2, fp
10000b2a:	2301      	movs	r3, #1
10000b2c:	4093      	lsls	r3, r2
10000b2e:	001a      	movs	r2, r3
10000b30:	9301      	str	r3, [sp, #4]
10000b32:	4baa      	ldr	r3, [pc, #680]	@ (10000ddc <alarm_pool_irq_handler+0x2dc>)
10000b34:	601a      	str	r2, [r3, #0]
10000b36:	4643      	mov	r3, r8
10000b38:	2508      	movs	r5, #8
10000b3a:	5f5b      	ldrsh	r3, [r3, r5]
10000b3c:	6362      	str	r2, [r4, #52]	@ 0x34
10000b3e:	4699      	mov	r9, r3
10000b40:	2b00      	cmp	r3, #0
10000b42:	db00      	blt.n	10000b46 <alarm_pool_irq_handler+0x46>
10000b44:	e13e      	b.n	10000dc4 <alarm_pool_irq_handler+0x2c4>
10000b46:	4643      	mov	r3, r8
10000b48:	889b      	ldrh	r3, [r3, #4]
10000b4a:	b21b      	sxth	r3, r3
10000b4c:	2b00      	cmp	r3, #0
10000b4e:	db00      	blt.n	10000b52 <alarm_pool_irq_handler+0x52>
10000b50:	e083      	b.n	10000c5a <alarm_pool_irq_handler+0x15a>
10000b52:	4643      	mov	r3, r8
10000b54:	799b      	ldrb	r3, [r3, #6]
10000b56:	2b00      	cmp	r3, #0
10000b58:	d000      	beq.n	10000b5c <alarm_pool_irq_handler+0x5c>
10000b5a:	e0c5      	b.n	10000ce8 <alarm_pool_irq_handler+0x1e8>
10000b5c:	4c9e      	ldr	r4, [pc, #632]	@ (10000dd8 <alarm_pool_irq_handler+0x2d8>)
10000b5e:	0020      	movs	r0, r4
10000b60:	f000 fbdc 	bl	1000131c <timer_time_us_64>
10000b64:	4643      	mov	r3, r8
10000b66:	2208      	movs	r2, #8
10000b68:	5e9b      	ldrsh	r3, [r3, r2]
10000b6a:	4699      	mov	r9, r3
10000b6c:	2b00      	cmp	r3, #0
10000b6e:	da00      	bge.n	10000b72 <alarm_pool_irq_handler+0x72>
10000b70:	e113      	b.n	10000d9a <alarm_pool_irq_handler+0x29a>
10000b72:	4643      	mov	r3, r8
10000b74:	695d      	ldr	r5, [r3, #20]
10000b76:	464b      	mov	r3, r9
10000b78:	005a      	lsls	r2, r3, #1
10000b7a:	18d3      	adds	r3, r2, r3
10000b7c:	00db      	lsls	r3, r3, #3
10000b7e:	18eb      	adds	r3, r5, r3
10000b80:	689e      	ldr	r6, [r3, #8]
10000b82:	68df      	ldr	r7, [r3, #12]
10000b84:	465b      	mov	r3, fp
10000b86:	3304      	adds	r3, #4
10000b88:	009b      	lsls	r3, r3, #2
10000b8a:	511e      	str	r6, [r3, r4]
10000b8c:	428f      	cmp	r7, r1
10000b8e:	dd00      	ble.n	10000b92 <alarm_pool_irq_handler+0x92>
10000b90:	e103      	b.n	10000d9a <alarm_pool_irq_handler+0x29a>
10000b92:	d100      	bne.n	10000b96 <alarm_pool_irq_handler+0x96>
10000b94:	e0fe      	b.n	10000d94 <alarm_pool_irq_handler+0x294>
10000b96:	4b90      	ldr	r3, [pc, #576]	@ (10000dd8 <alarm_pool_irq_handler+0x2d8>)
10000b98:	9c01      	ldr	r4, [sp, #4]
10000b9a:	635c      	str	r4, [r3, #52]	@ 0x34
10000b9c:	46aa      	mov	sl, r5
10000b9e:	444a      	add	r2, r9
10000ba0:	00d2      	lsls	r2, r2, #3
10000ba2:	4492      	add	sl, r2
10000ba4:	4653      	mov	r3, sl
10000ba6:	689e      	ldr	r6, [r3, #8]
10000ba8:	68df      	ldr	r7, [r3, #12]
10000baa:	428f      	cmp	r7, r1
10000bac:	dccb      	bgt.n	10000b46 <alarm_pool_irq_handler+0x46>
10000bae:	d100      	bne.n	10000bb2 <alarm_pool_irq_handler+0xb2>
10000bb0:	e0ec      	b.n	10000d8c <alarm_pool_irq_handler+0x28c>
10000bb2:	2f00      	cmp	r7, #0
10000bb4:	da00      	bge.n	10000bb8 <alarm_pool_irq_handler+0xb8>
10000bb6:	e0cd      	b.n	10000d54 <alarm_pool_irq_handler+0x254>
10000bb8:	4652      	mov	r2, sl
10000bba:	4653      	mov	r3, sl
10000bbc:	6954      	ldr	r4, [r2, #20]
10000bbe:	691b      	ldr	r3, [r3, #16]
10000bc0:	4a87      	ldr	r2, [pc, #540]	@ (10000de0 <alarm_pool_irq_handler+0x2e0>)
10000bc2:	4293      	cmp	r3, r2
10000bc4:	d100      	bne.n	10000bc8 <alarm_pool_irq_handler+0xc8>
10000bc6:	e0ef      	b.n	10000da8 <alarm_pool_irq_handler+0x2a8>
10000bc8:	4652      	mov	r2, sl
10000bca:	4649      	mov	r1, r9
10000bcc:	8852      	ldrh	r2, [r2, #2]
10000bce:	0408      	lsls	r0, r1, #16
10000bd0:	4310      	orrs	r0, r2
10000bd2:	0021      	movs	r1, r4
10000bd4:	4798      	blx	r3
10000bd6:	0004      	movs	r4, r0
10000bd8:	000d      	movs	r5, r1
10000bda:	0023      	movs	r3, r4
10000bdc:	432b      	orrs	r3, r5
10000bde:	d100      	bne.n	10000be2 <alarm_pool_irq_handler+0xe2>
10000be0:	e0b8      	b.n	10000d54 <alarm_pool_irq_handler+0x254>
10000be2:	2d00      	cmp	r5, #0
10000be4:	db00      	blt.n	10000be8 <alarm_pool_irq_handler+0xe8>
10000be6:	e0e7      	b.n	10000db8 <alarm_pool_irq_handler+0x2b8>
10000be8:	0030      	movs	r0, r6
10000bea:	0039      	movs	r1, r7
10000bec:	1b00      	subs	r0, r0, r4
10000bee:	41a9      	sbcs	r1, r5
10000bf0:	4653      	mov	r3, sl
10000bf2:	6098      	str	r0, [r3, #8]
10000bf4:	60d9      	str	r1, [r3, #12]
10000bf6:	2200      	movs	r2, #0
10000bf8:	5e9a      	ldrsh	r2, [r3, r2]
10000bfa:	2a00      	cmp	r2, #0
10000bfc:	dba3      	blt.n	10000b46 <alarm_pool_irq_handler+0x46>
10000bfe:	4643      	mov	r3, r8
10000c00:	695d      	ldr	r5, [r3, #20]
10000c02:	0053      	lsls	r3, r2, #1
10000c04:	189c      	adds	r4, r3, r2
10000c06:	00e4      	lsls	r4, r4, #3
10000c08:	192c      	adds	r4, r5, r4
10000c0a:	68a7      	ldr	r7, [r4, #8]
10000c0c:	68e4      	ldr	r4, [r4, #12]
10000c0e:	428c      	cmp	r4, r1
10000c10:	dc99      	bgt.n	10000b46 <alarm_pool_irq_handler+0x46>
10000c12:	d101      	bne.n	10000c18 <alarm_pool_irq_handler+0x118>
10000c14:	4287      	cmp	r7, r0
10000c16:	d896      	bhi.n	10000b46 <alarm_pool_irq_handler+0x46>
10000c18:	4646      	mov	r6, r8
10000c1a:	8132      	strh	r2, [r6, #8]
10000c1c:	3608      	adds	r6, #8
10000c1e:	e00d      	b.n	10000c3c <alarm_pool_irq_handler+0x13c>
10000c20:	428c      	cmp	r4, r1
10000c22:	d100      	bne.n	10000c26 <alarm_pool_irq_handler+0x126>
10000c24:	e0d2      	b.n	10000dcc <alarm_pool_irq_handler+0x2cc>
10000c26:	001e      	movs	r6, r3
10000c28:	2300      	movs	r3, #0
10000c2a:	5ef2      	ldrsh	r2, [r6, r3]
10000c2c:	2a00      	cmp	r2, #0
10000c2e:	db0a      	blt.n	10000c46 <alarm_pool_irq_handler+0x146>
10000c30:	0053      	lsls	r3, r2, #1
10000c32:	189c      	adds	r4, r3, r2
10000c34:	00e4      	lsls	r4, r4, #3
10000c36:	192c      	adds	r4, r5, r4
10000c38:	68a7      	ldr	r7, [r4, #8]
10000c3a:	68e4      	ldr	r4, [r4, #12]
10000c3c:	189b      	adds	r3, r3, r2
10000c3e:	00db      	lsls	r3, r3, #3
10000c40:	18eb      	adds	r3, r5, r3
10000c42:	428c      	cmp	r4, r1
10000c44:	ddec      	ble.n	10000c20 <alarm_pool_irq_handler+0x120>
10000c46:	4653      	mov	r3, sl
10000c48:	801a      	strh	r2, [r3, #0]
10000c4a:	464b      	mov	r3, r9
10000c4c:	8033      	strh	r3, [r6, #0]
10000c4e:	4643      	mov	r3, r8
10000c50:	889b      	ldrh	r3, [r3, #4]
10000c52:	b21b      	sxth	r3, r3
10000c54:	2b00      	cmp	r3, #0
10000c56:	da00      	bge.n	10000c5a <alarm_pool_irq_handler+0x15a>
10000c58:	e77b      	b.n	10000b52 <alarm_pool_irq_handler+0x52>
10000c5a:	4643      	mov	r3, r8
10000c5c:	691a      	ldr	r2, [r3, #16]
10000c5e:	f3ef 8110 	mrs	r1, PRIMASK
10000c62:	b672      	cpsid	i
10000c64:	6813      	ldr	r3, [r2, #0]
10000c66:	2b00      	cmp	r3, #0
10000c68:	d0fc      	beq.n	10000c64 <alarm_pool_irq_handler+0x164>
10000c6a:	f3bf 8f5f 	dmb	sy
10000c6e:	4643      	mov	r3, r8
10000c70:	889e      	ldrh	r6, [r3, #4]
10000c72:	2301      	movs	r3, #1
10000c74:	4642      	mov	r2, r8
10000c76:	425b      	negs	r3, r3
10000c78:	8093      	strh	r3, [r2, #4]
10000c7a:	b236      	sxth	r6, r6
10000c7c:	6913      	ldr	r3, [r2, #16]
10000c7e:	f3bf 8f5f 	dmb	sy
10000c82:	2200      	movs	r2, #0
10000c84:	601a      	str	r2, [r3, #0]
10000c86:	f381 8810 	msr	PRIMASK, r1
10000c8a:	2e00      	cmp	r6, #0
10000c8c:	da00      	bge.n	10000c90 <alarm_pool_irq_handler+0x190>
10000c8e:	e760      	b.n	10000b52 <alarm_pool_irq_handler+0x52>
10000c90:	4643      	mov	r3, r8
10000c92:	695d      	ldr	r5, [r3, #20]
10000c94:	2308      	movs	r3, #8
10000c96:	4443      	add	r3, r8
10000c98:	469c      	mov	ip, r3
10000c9a:	0074      	lsls	r4, r6, #1
10000c9c:	19a4      	adds	r4, r4, r6
10000c9e:	00e4      	lsls	r4, r4, #3
10000ca0:	192c      	adds	r4, r5, r4
10000ca2:	68a3      	ldr	r3, [r4, #8]
10000ca4:	4661      	mov	r1, ip
10000ca6:	469a      	mov	sl, r3
10000ca8:	4643      	mov	r3, r8
10000caa:	2208      	movs	r2, #8
10000cac:	5e9a      	ldrsh	r2, [r3, r2]
10000cae:	68e0      	ldr	r0, [r4, #12]
10000cb0:	2a00      	cmp	r2, #0
10000cb2:	da07      	bge.n	10000cc4 <alarm_pool_irq_handler+0x1c4>
10000cb4:	e00d      	b.n	10000cd2 <alarm_pool_irq_handler+0x1d2>
10000cb6:	4287      	cmp	r7, r0
10000cb8:	d042      	beq.n	10000d40 <alarm_pool_irq_handler+0x240>
10000cba:	0019      	movs	r1, r3
10000cbc:	2300      	movs	r3, #0
10000cbe:	5eca      	ldrsh	r2, [r1, r3]
10000cc0:	2a00      	cmp	r2, #0
10000cc2:	db06      	blt.n	10000cd2 <alarm_pool_irq_handler+0x1d2>
10000cc4:	0053      	lsls	r3, r2, #1
10000cc6:	189b      	adds	r3, r3, r2
10000cc8:	00db      	lsls	r3, r3, #3
10000cca:	18eb      	adds	r3, r5, r3
10000ccc:	68df      	ldr	r7, [r3, #12]
10000cce:	4287      	cmp	r7, r0
10000cd0:	ddf1      	ble.n	10000cb6 <alarm_pool_irq_handler+0x1b6>
10000cd2:	800e      	strh	r6, [r1, #0]
10000cd4:	2300      	movs	r3, #0
10000cd6:	5ee6      	ldrsh	r6, [r4, r3]
10000cd8:	8022      	strh	r2, [r4, #0]
10000cda:	2e00      	cmp	r6, #0
10000cdc:	dadd      	bge.n	10000c9a <alarm_pool_irq_handler+0x19a>
10000cde:	4643      	mov	r3, r8
10000ce0:	799b      	ldrb	r3, [r3, #6]
10000ce2:	2b00      	cmp	r3, #0
10000ce4:	d100      	bne.n	10000ce8 <alarm_pool_irq_handler+0x1e8>
10000ce6:	e739      	b.n	10000b5c <alarm_pool_irq_handler+0x5c>
10000ce8:	2300      	movs	r3, #0
10000cea:	4642      	mov	r2, r8
10000cec:	7193      	strb	r3, [r2, #6]
10000cee:	4643      	mov	r3, r8
10000cf0:	4645      	mov	r5, r8
10000cf2:	2608      	movs	r6, #8
10000cf4:	5f9e      	ldrsh	r6, [r3, r6]
10000cf6:	3508      	adds	r5, #8
10000cf8:	1c73      	adds	r3, r6, #1
10000cfa:	d100      	bne.n	10000cfe <alarm_pool_irq_handler+0x1fe>
10000cfc:	e72e      	b.n	10000b5c <alarm_pool_irq_handler+0x5c>
10000cfe:	6954      	ldr	r4, [r2, #20]
10000d00:	e003      	b.n	10000d0a <alarm_pool_irq_handler+0x20a>
10000d02:	003d      	movs	r5, r7
10000d04:	1c73      	adds	r3, r6, #1
10000d06:	d100      	bne.n	10000d0a <alarm_pool_irq_handler+0x20a>
10000d08:	e728      	b.n	10000b5c <alarm_pool_irq_handler+0x5c>
10000d0a:	0073      	lsls	r3, r6, #1
10000d0c:	199b      	adds	r3, r3, r6
10000d0e:	00db      	lsls	r3, r3, #3
10000d10:	18e7      	adds	r7, r4, r3
10000d12:	0032      	movs	r2, r6
10000d14:	5ee6      	ldrsh	r6, [r4, r3]
10000d16:	887b      	ldrh	r3, [r7, #2]
10000d18:	b21b      	sxth	r3, r3
10000d1a:	2b00      	cmp	r3, #0
10000d1c:	daf1      	bge.n	10000d02 <alarm_pool_irq_handler+0x202>
10000d1e:	2001      	movs	r0, #1
10000d20:	4240      	negs	r0, r0
10000d22:	17c1      	asrs	r1, r0, #31
10000d24:	4643      	mov	r3, r8
10000d26:	60b8      	str	r0, [r7, #8]
10000d28:	60f9      	str	r1, [r7, #12]
10000d2a:	2108      	movs	r1, #8
10000d2c:	5e5b      	ldrsh	r3, [r3, r1]
10000d2e:	4293      	cmp	r3, r2
10000d30:	d0e8      	beq.n	10000d04 <alarm_pool_irq_handler+0x204>
10000d32:	4643      	mov	r3, r8
10000d34:	802e      	strh	r6, [r5, #0]
10000d36:	891b      	ldrh	r3, [r3, #8]
10000d38:	803b      	strh	r3, [r7, #0]
10000d3a:	4643      	mov	r3, r8
10000d3c:	811a      	strh	r2, [r3, #8]
10000d3e:	e7e1      	b.n	10000d04 <alarm_pool_irq_handler+0x204>
10000d40:	689f      	ldr	r7, [r3, #8]
10000d42:	4557      	cmp	r7, sl
10000d44:	d9b9      	bls.n	10000cba <alarm_pool_irq_handler+0x1ba>
10000d46:	800e      	strh	r6, [r1, #0]
10000d48:	2300      	movs	r3, #0
10000d4a:	5ee6      	ldrsh	r6, [r4, r3]
10000d4c:	8022      	strh	r2, [r4, #0]
10000d4e:	2e00      	cmp	r6, #0
10000d50:	daa3      	bge.n	10000c9a <alarm_pool_irq_handler+0x19a>
10000d52:	e7c4      	b.n	10000cde <alarm_pool_irq_handler+0x1de>
10000d54:	4653      	mov	r3, sl
10000d56:	4642      	mov	r2, r8
10000d58:	881b      	ldrh	r3, [r3, #0]
10000d5a:	8113      	strh	r3, [r2, #8]
10000d5c:	6912      	ldr	r2, [r2, #16]
10000d5e:	f3ef 8310 	mrs	r3, PRIMASK
10000d62:	b672      	cpsid	i
10000d64:	6811      	ldr	r1, [r2, #0]
10000d66:	2900      	cmp	r1, #0
10000d68:	d0fc      	beq.n	10000d64 <alarm_pool_irq_handler+0x264>
10000d6a:	f3bf 8f5f 	dmb	sy
10000d6e:	4642      	mov	r2, r8
10000d70:	4651      	mov	r1, sl
10000d72:	8852      	ldrh	r2, [r2, #2]
10000d74:	800a      	strh	r2, [r1, #0]
10000d76:	4642      	mov	r2, r8
10000d78:	4649      	mov	r1, r9
10000d7a:	8051      	strh	r1, [r2, #2]
10000d7c:	6912      	ldr	r2, [r2, #16]
10000d7e:	f3bf 8f5f 	dmb	sy
10000d82:	2100      	movs	r1, #0
10000d84:	6011      	str	r1, [r2, #0]
10000d86:	f383 8810 	msr	PRIMASK, r3
10000d8a:	e6dc      	b.n	10000b46 <alarm_pool_irq_handler+0x46>
10000d8c:	4286      	cmp	r6, r0
10000d8e:	d800      	bhi.n	10000d92 <alarm_pool_irq_handler+0x292>
10000d90:	e70f      	b.n	10000bb2 <alarm_pool_irq_handler+0xb2>
10000d92:	e6d8      	b.n	10000b46 <alarm_pool_irq_handler+0x46>
10000d94:	4286      	cmp	r6, r0
10000d96:	d800      	bhi.n	10000d9a <alarm_pool_irq_handler+0x29a>
10000d98:	e6fd      	b.n	10000b96 <alarm_pool_irq_handler+0x96>
10000d9a:	b003      	add	sp, #12
10000d9c:	bcf0      	pop	{r4, r5, r6, r7}
10000d9e:	46bb      	mov	fp, r7
10000da0:	46b2      	mov	sl, r6
10000da2:	46a9      	mov	r9, r5
10000da4:	46a0      	mov	r8, r4
10000da6:	bdf0      	pop	{r4, r5, r6, r7, pc}
10000da8:	0020      	movs	r0, r4
10000daa:	6923      	ldr	r3, [r4, #16]
10000dac:	4798      	blx	r3
10000dae:	2800      	cmp	r0, #0
10000db0:	d0d0      	beq.n	10000d54 <alarm_pool_irq_handler+0x254>
10000db2:	6865      	ldr	r5, [r4, #4]
10000db4:	6824      	ldr	r4, [r4, #0]
10000db6:	e710      	b.n	10000bda <alarm_pool_irq_handler+0xda>
10000db8:	4807      	ldr	r0, [pc, #28]	@ (10000dd8 <alarm_pool_irq_handler+0x2d8>)
10000dba:	f000 faaf 	bl	1000131c <timer_time_us_64>
10000dbe:	1900      	adds	r0, r0, r4
10000dc0:	4169      	adcs	r1, r5
10000dc2:	e715      	b.n	10000bf0 <alarm_pool_irq_handler+0xf0>
10000dc4:	005a      	lsls	r2, r3, #1
10000dc6:	4643      	mov	r3, r8
10000dc8:	695d      	ldr	r5, [r3, #20]
10000dca:	e6e7      	b.n	10000b9c <alarm_pool_irq_handler+0x9c>
10000dcc:	4287      	cmp	r7, r0
10000dce:	d800      	bhi.n	10000dd2 <alarm_pool_irq_handler+0x2d2>
10000dd0:	e729      	b.n	10000c26 <alarm_pool_irq_handler+0x126>
10000dd2:	e738      	b.n	10000c46 <alarm_pool_irq_handler+0x146>
10000dd4:	20002228 	.word	0x20002228
10000dd8:	40054000 	.word	0x40054000
10000ddc:	4005703c 	.word	0x4005703c
10000de0:	10000b01 	.word	0x10000b01

10000de4 <runtime_init_default_alarm_pool>:
10000de4:	b570      	push	{r4, r5, r6, lr}
10000de6:	4c2e      	ldr	r4, [pc, #184]	@ (10000ea0 <runtime_init_default_alarm_pool+0xbc>)
10000de8:	6925      	ldr	r5, [r4, #16]
10000dea:	2d00      	cmp	r5, #0
10000dec:	d004      	beq.n	10000df8 <runtime_init_default_alarm_pool+0x14>
10000dee:	210a      	movs	r1, #10
10000df0:	482c      	ldr	r0, [pc, #176]	@ (10000ea4 <runtime_init_default_alarm_pool+0xc0>)
10000df2:	f7ff fe17 	bl	10000a24 <lock_init>
10000df6:	bd70      	pop	{r4, r5, r6, pc}
10000df8:	4e2b      	ldr	r6, [pc, #172]	@ (10000ea8 <runtime_init_default_alarm_pool+0xc4>)
10000dfa:	2103      	movs	r1, #3
10000dfc:	0030      	movs	r0, r6
10000dfe:	f000 fa83 	bl	10001308 <timer_hardware_alarm_claim>
10000e02:	60e6      	str	r6, [r4, #12]
10000e04:	f7ff fc00 	bl	10000608 <next_striped_spin_lock_num>
10000e08:	4b28      	ldr	r3, [pc, #160]	@ (10000eac <runtime_init_default_alarm_pool+0xc8>)
10000e0a:	2203      	movs	r2, #3
10000e0c:	469c      	mov	ip, r3
10000e0e:	23d0      	movs	r3, #208	@ 0xd0
10000e10:	7022      	strb	r2, [r4, #0]
10000e12:	061b      	lsls	r3, r3, #24
10000e14:	681b      	ldr	r3, [r3, #0]
10000e16:	2101      	movs	r1, #1
10000e18:	7063      	strb	r3, [r4, #1]
10000e1a:	4b25      	ldr	r3, [pc, #148]	@ (10000eb0 <runtime_init_default_alarm_pool+0xcc>)
10000e1c:	4460      	add	r0, ip
10000e1e:	60a3      	str	r3, [r4, #8]
10000e20:	230f      	movs	r3, #15
10000e22:	0080      	lsls	r0, r0, #2
10000e24:	6120      	str	r0, [r4, #16]
10000e26:	2002      	movs	r0, #2
10000e28:	8063      	strh	r3, [r4, #2]
10000e2a:	6963      	ldr	r3, [r4, #20]
10000e2c:	4249      	negs	r1, r1
10000e2e:	80a1      	strh	r1, [r4, #4]
10000e30:	8019      	strh	r1, [r3, #0]
10000e32:	3102      	adds	r1, #2
10000e34:	8619      	strh	r1, [r3, #48]	@ 0x30
10000e36:	3147      	adds	r1, #71	@ 0x47
10000e38:	831d      	strh	r5, [r3, #24]
10000e3a:	5258      	strh	r0, [r3, r1]
10000e3c:	3118      	adds	r1, #24
10000e3e:	525a      	strh	r2, [r3, r1]
10000e40:	3275      	adds	r2, #117	@ 0x75
10000e42:	395c      	subs	r1, #92	@ 0x5c
10000e44:	5299      	strh	r1, [r3, r2]
10000e46:	3218      	adds	r2, #24
10000e48:	3101      	adds	r1, #1
10000e4a:	5299      	strh	r1, [r3, r2]
10000e4c:	3218      	adds	r2, #24
10000e4e:	3101      	adds	r1, #1
10000e50:	5299      	strh	r1, [r3, r2]
10000e52:	3218      	adds	r2, #24
10000e54:	3101      	adds	r1, #1
10000e56:	5299      	strh	r1, [r3, r2]
10000e58:	3508      	adds	r5, #8
10000e5a:	3218      	adds	r2, #24
10000e5c:	529d      	strh	r5, [r3, r2]
10000e5e:	3102      	adds	r1, #2
10000e60:	3218      	adds	r2, #24
10000e62:	5299      	strh	r1, [r3, r2]
10000e64:	3218      	adds	r2, #24
10000e66:	3101      	adds	r1, #1
10000e68:	5299      	strh	r1, [r3, r2]
10000e6a:	3218      	adds	r2, #24
10000e6c:	3101      	adds	r1, #1
10000e6e:	5299      	strh	r1, [r3, r2]
10000e70:	3218      	adds	r2, #24
10000e72:	3101      	adds	r1, #1
10000e74:	5299      	strh	r1, [r3, r2]
10000e76:	3218      	adds	r2, #24
10000e78:	3101      	adds	r1, #1
10000e7a:	5299      	strh	r1, [r3, r2]
10000e7c:	3218      	adds	r2, #24
10000e7e:	3101      	adds	r1, #1
10000e80:	5299      	strh	r1, [r3, r2]
10000e82:	4b0c      	ldr	r3, [pc, #48]	@ (10000eb4 <runtime_init_default_alarm_pool+0xd0>)
10000e84:	490c      	ldr	r1, [pc, #48]	@ (10000eb8 <runtime_init_default_alarm_pool+0xd4>)
10000e86:	60dc      	str	r4, [r3, #12]
10000e88:	3001      	adds	r0, #1
10000e8a:	6235      	str	r5, [r6, #32]
10000e8c:	f7ff fc36 	bl	100006fc <irq_set_exclusive_handler>
10000e90:	2101      	movs	r1, #1
10000e92:	2003      	movs	r0, #3
10000e94:	f7ff fbf6 	bl	10000684 <irq_set_enabled>
10000e98:	4b08      	ldr	r3, [pc, #32]	@ (10000ebc <runtime_init_default_alarm_pool+0xd8>)
10000e9a:	601d      	str	r5, [r3, #0]
10000e9c:	e7a7      	b.n	10000dee <runtime_init_default_alarm_pool+0xa>
10000e9e:	46c0      	nop			@ (mov r8, r8)
10000ea0:	20000fe4 	.word	0x20000fe4
10000ea4:	20002244 	.word	0x20002244
10000ea8:	40054000 	.word	0x40054000
10000eac:	34000040 	.word	0x34000040
10000eb0:	0010ffff 	.word	0x0010ffff
10000eb4:	20002228 	.word	0x20002228
10000eb8:	10000b01 	.word	0x10000b01
10000ebc:	40056038 	.word	0x40056038

10000ec0 <alarm_pool_get_default>:
10000ec0:	4800      	ldr	r0, [pc, #0]	@ (10000ec4 <alarm_pool_get_default+0x4>)
10000ec2:	4770      	bx	lr
10000ec4:	20000fe4 	.word	0x20000fe4

10000ec8 <alarm_pool_add_alarm_at>:
10000ec8:	b5f8      	push	{r3, r4, r5, r6, r7, lr}
10000eca:	001f      	movs	r7, r3
10000ecc:	ab08      	add	r3, sp, #32
10000ece:	781b      	ldrb	r3, [r3, #0]
10000ed0:	0004      	movs	r4, r0
10000ed2:	0016      	movs	r6, r2
10000ed4:	2b00      	cmp	r3, #0
10000ed6:	d108      	bne.n	10000eea <alarm_pool_add_alarm_at+0x22>
10000ed8:	f000 fa28 	bl	1000132c <time_us_64>
10000edc:	0032      	movs	r2, r6
10000ede:	003b      	movs	r3, r7
10000ee0:	1a12      	subs	r2, r2, r0
10000ee2:	418b      	sbcs	r3, r1
10000ee4:	2b00      	cmp	r3, #0
10000ee6:	da00      	bge.n	10000eea <alarm_pool_add_alarm_at+0x22>
10000ee8:	e053      	b.n	10000f92 <alarm_pool_add_alarm_at+0xca>
10000eea:	6922      	ldr	r2, [r4, #16]
10000eec:	f3ef 8010 	mrs	r0, PRIMASK
10000ef0:	b672      	cpsid	i
10000ef2:	6813      	ldr	r3, [r2, #0]
10000ef4:	2b00      	cmp	r3, #0
10000ef6:	d0fc      	beq.n	10000ef2 <alarm_pool_add_alarm_at+0x2a>
10000ef8:	f3bf 8f5f 	dmb	sy
10000efc:	2302      	movs	r3, #2
10000efe:	5ee1      	ldrsh	r1, [r4, r3]
10000f00:	6963      	ldr	r3, [r4, #20]
10000f02:	004a      	lsls	r2, r1, #1
10000f04:	1852      	adds	r2, r2, r1
10000f06:	00d2      	lsls	r2, r2, #3
10000f08:	189b      	adds	r3, r3, r2
10000f0a:	2900      	cmp	r1, #0
10000f0c:	db37      	blt.n	10000f7e <alarm_pool_add_alarm_at+0xb6>
10000f0e:	881a      	ldrh	r2, [r3, #0]
10000f10:	8062      	strh	r2, [r4, #2]
10000f12:	6922      	ldr	r2, [r4, #16]
10000f14:	f3bf 8f5f 	dmb	sy
10000f18:	2500      	movs	r5, #0
10000f1a:	6015      	str	r5, [r2, #0]
10000f1c:	f380 8810 	msr	PRIMASK, r0
10000f20:	9a06      	ldr	r2, [sp, #24]
10000f22:	609e      	str	r6, [r3, #8]
10000f24:	60df      	str	r7, [r3, #12]
10000f26:	611a      	str	r2, [r3, #16]
10000f28:	9a07      	ldr	r2, [sp, #28]
10000f2a:	615a      	str	r2, [r3, #20]
10000f2c:	885a      	ldrh	r2, [r3, #2]
10000f2e:	3201      	adds	r2, #1
10000f30:	0452      	lsls	r2, r2, #17
10000f32:	0c52      	lsrs	r2, r2, #17
10000f34:	1c10      	adds	r0, r2, #0
10000f36:	2a00      	cmp	r2, #0
10000f38:	d01f      	beq.n	10000f7a <alarm_pool_add_alarm_at+0xb2>
10000f3a:	b282      	uxth	r2, r0
10000f3c:	8058      	strh	r0, [r3, #2]
10000f3e:	0408      	lsls	r0, r1, #16
10000f40:	4310      	orrs	r0, r2
10000f42:	6926      	ldr	r6, [r4, #16]
10000f44:	f3ef 8710 	mrs	r7, PRIMASK
10000f48:	b672      	cpsid	i
10000f4a:	6832      	ldr	r2, [r6, #0]
10000f4c:	2a00      	cmp	r2, #0
10000f4e:	d0fc      	beq.n	10000f4a <alarm_pool_add_alarm_at+0x82>
10000f50:	f3bf 8f5f 	dmb	sy
10000f54:	88a2      	ldrh	r2, [r4, #4]
10000f56:	801a      	strh	r2, [r3, #0]
10000f58:	80a1      	strh	r1, [r4, #4]
10000f5a:	6923      	ldr	r3, [r4, #16]
10000f5c:	f3bf 8f5f 	dmb	sy
10000f60:	2200      	movs	r2, #0
10000f62:	601a      	str	r2, [r3, #0]
10000f64:	f387 8810 	msr	PRIMASK, r7
10000f68:	490b      	ldr	r1, [pc, #44]	@ (10000f98 <alarm_pool_add_alarm_at+0xd0>)
10000f6a:	7823      	ldrb	r3, [r4, #0]
10000f6c:	468c      	mov	ip, r1
10000f6e:	3201      	adds	r2, #1
10000f70:	409a      	lsls	r2, r3
10000f72:	68e3      	ldr	r3, [r4, #12]
10000f74:	4463      	add	r3, ip
10000f76:	601a      	str	r2, [r3, #0]
10000f78:	bdf8      	pop	{r3, r4, r5, r6, r7, pc}
10000f7a:	2001      	movs	r0, #1
10000f7c:	e7dd      	b.n	10000f3a <alarm_pool_add_alarm_at+0x72>
10000f7e:	6923      	ldr	r3, [r4, #16]
10000f80:	f3bf 8f5f 	dmb	sy
10000f84:	2200      	movs	r2, #0
10000f86:	601a      	str	r2, [r3, #0]
10000f88:	f380 8810 	msr	PRIMASK, r0
10000f8c:	2001      	movs	r0, #1
10000f8e:	4240      	negs	r0, r0
10000f90:	e7f2      	b.n	10000f78 <alarm_pool_add_alarm_at+0xb0>
10000f92:	2000      	movs	r0, #0
10000f94:	e7f0      	b.n	10000f78 <alarm_pool_add_alarm_at+0xb0>
10000f96:	46c0      	nop			@ (mov r8, r8)
10000f98:	0000203c 	.word	0x0000203c

10000f9c <alarm_pool_add_alarm_at_force_in_context>:
10000f9c:	b570      	push	{r4, r5, r6, lr}
10000f9e:	0001      	movs	r1, r0
10000fa0:	6904      	ldr	r4, [r0, #16]
10000fa2:	f3ef 8c10 	mrs	ip, PRIMASK
10000fa6:	b672      	cpsid	i
10000fa8:	6820      	ldr	r0, [r4, #0]
10000faa:	2800      	cmp	r0, #0
10000fac:	d0fc      	beq.n	10000fa8 <alarm_pool_add_alarm_at_force_in_context+0xc>
10000fae:	f3bf 8f5f 	dmb	sy
10000fb2:	2002      	movs	r0, #2
10000fb4:	5e0d      	ldrsh	r5, [r1, r0]
10000fb6:	694c      	ldr	r4, [r1, #20]
10000fb8:	0068      	lsls	r0, r5, #1
10000fba:	1940      	adds	r0, r0, r5
10000fbc:	00c0      	lsls	r0, r0, #3
10000fbe:	1824      	adds	r4, r4, r0
10000fc0:	2d00      	cmp	r5, #0
10000fc2:	db37      	blt.n	10001034 <alarm_pool_add_alarm_at_force_in_context+0x98>
10000fc4:	8820      	ldrh	r0, [r4, #0]
10000fc6:	8048      	strh	r0, [r1, #2]
10000fc8:	6908      	ldr	r0, [r1, #16]
10000fca:	f3bf 8f5f 	dmb	sy
10000fce:	2600      	movs	r6, #0
10000fd0:	6006      	str	r6, [r0, #0]
10000fd2:	f38c 8810 	msr	PRIMASK, ip
10000fd6:	60e3      	str	r3, [r4, #12]
10000fd8:	8863      	ldrh	r3, [r4, #2]
10000fda:	9804      	ldr	r0, [sp, #16]
10000fdc:	3301      	adds	r3, #1
10000fde:	6120      	str	r0, [r4, #16]
10000fe0:	045b      	lsls	r3, r3, #17
10000fe2:	9805      	ldr	r0, [sp, #20]
10000fe4:	0c5b      	lsrs	r3, r3, #17
10000fe6:	60a2      	str	r2, [r4, #8]
10000fe8:	6160      	str	r0, [r4, #20]
10000fea:	1c1a      	adds	r2, r3, #0
10000fec:	2b00      	cmp	r3, #0
10000fee:	d01f      	beq.n	10001030 <alarm_pool_add_alarm_at_force_in_context+0x94>
10000ff0:	b293      	uxth	r3, r2
10000ff2:	0428      	lsls	r0, r5, #16
10000ff4:	8062      	strh	r2, [r4, #2]
10000ff6:	4318      	orrs	r0, r3
10000ff8:	690a      	ldr	r2, [r1, #16]
10000ffa:	f3ef 8c10 	mrs	ip, PRIMASK
10000ffe:	b672      	cpsid	i
10001000:	6813      	ldr	r3, [r2, #0]
10001002:	2b00      	cmp	r3, #0
10001004:	d0fc      	beq.n	10001000 <alarm_pool_add_alarm_at_force_in_context+0x64>
10001006:	f3bf 8f5f 	dmb	sy
1000100a:	888b      	ldrh	r3, [r1, #4]
1000100c:	8023      	strh	r3, [r4, #0]
1000100e:	808d      	strh	r5, [r1, #4]
10001010:	690b      	ldr	r3, [r1, #16]
10001012:	f3bf 8f5f 	dmb	sy
10001016:	2200      	movs	r2, #0
10001018:	601a      	str	r2, [r3, #0]
1000101a:	f38c 8810 	msr	PRIMASK, ip
1000101e:	780b      	ldrb	r3, [r1, #0]
10001020:	3201      	adds	r2, #1
10001022:	409a      	lsls	r2, r3
10001024:	68cb      	ldr	r3, [r1, #12]
10001026:	4908      	ldr	r1, [pc, #32]	@ (10001048 <alarm_pool_add_alarm_at_force_in_context+0xac>)
10001028:	468c      	mov	ip, r1
1000102a:	4463      	add	r3, ip
1000102c:	601a      	str	r2, [r3, #0]
1000102e:	bd70      	pop	{r4, r5, r6, pc}
10001030:	2201      	movs	r2, #1
10001032:	e7dd      	b.n	10000ff0 <alarm_pool_add_alarm_at_force_in_context+0x54>
10001034:	690b      	ldr	r3, [r1, #16]
10001036:	f3bf 8f5f 	dmb	sy
1000103a:	2200      	movs	r2, #0
1000103c:	601a      	str	r2, [r3, #0]
1000103e:	f38c 8810 	msr	PRIMASK, ip
10001042:	2001      	movs	r0, #1
10001044:	4240      	negs	r0, r0
10001046:	e7f2      	b.n	1000102e <alarm_pool_add_alarm_at_force_in_context+0x92>
10001048:	0000203c 	.word	0x0000203c

1000104c <alarm_pool_cancel_alarm>:
1000104c:	b510      	push	{r4, lr}
1000104e:	8943      	ldrh	r3, [r0, #10]
10001050:	140a      	asrs	r2, r1, #16
10001052:	4293      	cmp	r3, r2
10001054:	dd1a      	ble.n	1000108c <alarm_pool_cancel_alarm+0x40>
10001056:	0053      	lsls	r3, r2, #1
10001058:	189b      	adds	r3, r3, r2
1000105a:	6942      	ldr	r2, [r0, #20]
1000105c:	00db      	lsls	r3, r3, #3
1000105e:	18d3      	adds	r3, r2, r3
10001060:	6904      	ldr	r4, [r0, #16]
10001062:	f3ef 8c10 	mrs	ip, PRIMASK
10001066:	b672      	cpsid	i
10001068:	6822      	ldr	r2, [r4, #0]
1000106a:	2a00      	cmp	r2, #0
1000106c:	d0fc      	beq.n	10001068 <alarm_pool_cancel_alarm+0x1c>
1000106e:	f3bf 8f5f 	dmb	sy
10001072:	885a      	ldrh	r2, [r3, #2]
10001074:	0409      	lsls	r1, r1, #16
10001076:	b294      	uxth	r4, r2
10001078:	0c09      	lsrs	r1, r1, #16
1000107a:	428a      	cmp	r2, r1
1000107c:	d008      	beq.n	10001090 <alarm_pool_cancel_alarm+0x44>
1000107e:	6903      	ldr	r3, [r0, #16]
10001080:	f3bf 8f5f 	dmb	sy
10001084:	2200      	movs	r2, #0
10001086:	601a      	str	r2, [r3, #0]
10001088:	f38c 8810 	msr	PRIMASK, ip
1000108c:	2000      	movs	r0, #0
1000108e:	bd10      	pop	{r4, pc}
10001090:	2280      	movs	r2, #128	@ 0x80
10001092:	0212      	lsls	r2, r2, #8
10001094:	4314      	orrs	r4, r2
10001096:	805c      	strh	r4, [r3, #2]
10001098:	2301      	movs	r3, #1
1000109a:	6902      	ldr	r2, [r0, #16]
1000109c:	7183      	strb	r3, [r0, #6]
1000109e:	f3bf 8f5f 	dmb	sy
100010a2:	2100      	movs	r1, #0
100010a4:	6011      	str	r1, [r2, #0]
100010a6:	f38c 8810 	msr	PRIMASK, ip
100010aa:	4904      	ldr	r1, [pc, #16]	@ (100010bc <alarm_pool_cancel_alarm+0x70>)
100010ac:	7802      	ldrb	r2, [r0, #0]
100010ae:	468c      	mov	ip, r1
100010b0:	4093      	lsls	r3, r2
100010b2:	68c2      	ldr	r2, [r0, #12]
100010b4:	2001      	movs	r0, #1
100010b6:	4462      	add	r2, ip
100010b8:	6013      	str	r3, [r2, #0]
100010ba:	e7e8      	b.n	1000108e <alarm_pool_cancel_alarm+0x42>
100010bc:	0000203c 	.word	0x0000203c

100010c0 <alarm_pool_core_num>:
100010c0:	7840      	ldrb	r0, [r0, #1]
100010c2:	4770      	bx	lr

100010c4 <sleep_until>:
100010c4:	b5f0      	push	{r4, r5, r6, r7, lr}
100010c6:	0004      	movs	r4, r0
100010c8:	000d      	movs	r5, r1
100010ca:	2606      	movs	r6, #6
100010cc:	4276      	negs	r6, r6
100010ce:	17f7      	asrs	r7, r6, #31
100010d0:	46c6      	mov	lr, r8
100010d2:	1936      	adds	r6, r6, r4
100010d4:	416f      	adcs	r7, r5
100010d6:	b500      	push	{lr}
100010d8:	b082      	sub	sp, #8
100010da:	428f      	cmp	r7, r1
100010dc:	d814      	bhi.n	10001108 <sleep_until+0x44>
100010de:	d011      	beq.n	10001104 <sleep_until+0x40>
100010e0:	f000 f924 	bl	1000132c <time_us_64>
100010e4:	0032      	movs	r2, r6
100010e6:	003b      	movs	r3, r7
100010e8:	1a12      	subs	r2, r2, r0
100010ea:	418b      	sbcs	r3, r1
100010ec:	2b00      	cmp	r3, #0
100010ee:	dc17      	bgt.n	10001120 <sleep_until+0x5c>
100010f0:	2b00      	cmp	r3, #0
100010f2:	d047      	beq.n	10001184 <sleep_until+0xc0>
100010f4:	0020      	movs	r0, r4
100010f6:	0029      	movs	r1, r5
100010f8:	f000 f922 	bl	10001340 <busy_wait_until>
100010fc:	b002      	add	sp, #8
100010fe:	bc80      	pop	{r7}
10001100:	46b8      	mov	r8, r7
10001102:	bdf0      	pop	{r4, r5, r6, r7, pc}
10001104:	4286      	cmp	r6, r0
10001106:	d9eb      	bls.n	100010e0 <sleep_until+0x1c>
10001108:	2200      	movs	r2, #0
1000110a:	2300      	movs	r3, #0
1000110c:	0016      	movs	r6, r2
1000110e:	001f      	movs	r7, r3
10001110:	f000 f90c 	bl	1000132c <time_us_64>
10001114:	0032      	movs	r2, r6
10001116:	003b      	movs	r3, r7
10001118:	1a12      	subs	r2, r2, r0
1000111a:	418b      	sbcs	r3, r1
1000111c:	2b00      	cmp	r3, #0
1000111e:	dde7      	ble.n	100010f0 <sleep_until+0x2c>
10001120:	f000 f904 	bl	1000132c <time_us_64>
10001124:	0032      	movs	r2, r6
10001126:	003b      	movs	r3, r7
10001128:	1a12      	subs	r2, r2, r0
1000112a:	418b      	sbcs	r3, r1
1000112c:	2b00      	cmp	r3, #0
1000112e:	db0a      	blt.n	10001146 <sleep_until+0x82>
10001130:	2300      	movs	r3, #0
10001132:	9301      	str	r3, [sp, #4]
10001134:	4b15      	ldr	r3, [pc, #84]	@ (1000118c <sleep_until+0xc8>)
10001136:	0032      	movs	r2, r6
10001138:	9300      	str	r3, [sp, #0]
1000113a:	4815      	ldr	r0, [pc, #84]	@ (10001190 <sleep_until+0xcc>)
1000113c:	003b      	movs	r3, r7
1000113e:	f7ff ff2d 	bl	10000f9c <alarm_pool_add_alarm_at_force_in_context>
10001142:	2800      	cmp	r0, #0
10001144:	dbd6      	blt.n	100010f4 <sleep_until+0x30>
10001146:	2300      	movs	r3, #0
10001148:	469c      	mov	ip, r3
1000114a:	46b0      	mov	r8, r6
1000114c:	4a11      	ldr	r2, [pc, #68]	@ (10001194 <sleep_until+0xd0>)
1000114e:	4e12      	ldr	r6, [pc, #72]	@ (10001198 <sleep_until+0xd4>)
10001150:	6a73      	ldr	r3, [r6, #36]	@ 0x24
10001152:	429f      	cmp	r7, r3
10001154:	d804      	bhi.n	10001160 <sleep_until+0x9c>
10001156:	6ab1      	ldr	r1, [r6, #40]	@ 0x28
10001158:	4588      	cmp	r8, r1
1000115a:	d9cb      	bls.n	100010f4 <sleep_until+0x30>
1000115c:	429f      	cmp	r7, r3
1000115e:	d1c9      	bne.n	100010f4 <sleep_until+0x30>
10001160:	6811      	ldr	r1, [r2, #0]
10001162:	f3ef 8010 	mrs	r0, PRIMASK
10001166:	b672      	cpsid	i
10001168:	680b      	ldr	r3, [r1, #0]
1000116a:	2b00      	cmp	r3, #0
1000116c:	d0fc      	beq.n	10001168 <sleep_until+0xa4>
1000116e:	f3bf 8f5f 	dmb	sy
10001172:	6813      	ldr	r3, [r2, #0]
10001174:	f3bf 8f5f 	dmb	sy
10001178:	4661      	mov	r1, ip
1000117a:	6019      	str	r1, [r3, #0]
1000117c:	f380 8810 	msr	PRIMASK, r0
10001180:	bf20      	wfe
10001182:	e7e5      	b.n	10001150 <sleep_until+0x8c>
10001184:	2a00      	cmp	r2, #0
10001186:	d0b5      	beq.n	100010f4 <sleep_until+0x30>
10001188:	e7ca      	b.n	10001120 <sleep_until+0x5c>
1000118a:	46c0      	nop			@ (mov r8, r8)
1000118c:	10000ad1 	.word	0x10000ad1
10001190:	20000fe4 	.word	0x20000fe4
10001194:	20002244 	.word	0x20002244
10001198:	40054000 	.word	0x40054000

1000119c <sleep_ms>:
1000119c:	b570      	push	{r4, r5, r6, lr}
1000119e:	0006      	movs	r6, r0
100011a0:	f000 f8c4 	bl	1000132c <time_us_64>
100011a4:	22fa      	movs	r2, #250	@ 0xfa
100011a6:	0004      	movs	r4, r0
100011a8:	000d      	movs	r5, r1
100011aa:	2300      	movs	r3, #0
100011ac:	0030      	movs	r0, r6
100011ae:	2100      	movs	r1, #0
100011b0:	0092      	lsls	r2, r2, #2
100011b2:	f001 f9eb 	bl	1000258c <__wrap___aeabi_lmul>
100011b6:	2380      	movs	r3, #128	@ 0x80
100011b8:	1900      	adds	r0, r0, r4
100011ba:	4169      	adcs	r1, r5
100011bc:	061b      	lsls	r3, r3, #24
100011be:	4299      	cmp	r1, r3
100011c0:	d302      	bcc.n	100011c8 <sleep_ms+0x2c>
100011c2:	2001      	movs	r0, #1
100011c4:	4902      	ldr	r1, [pc, #8]	@ (100011d0 <sleep_ms+0x34>)
100011c6:	4240      	negs	r0, r0
100011c8:	f7ff ff7c 	bl	100010c4 <sleep_until>
100011cc:	bd70      	pop	{r4, r5, r6, pc}
100011ce:	46c0      	nop			@ (mov r8, r8)
100011d0:	7fffffff 	.word	0x7fffffff

100011d4 <best_effort_wfe_or_timeout>:
100011d4:	b5f0      	push	{r4, r5, r6, r7, lr}
100011d6:	46c6      	mov	lr, r8
100011d8:	0004      	movs	r4, r0
100011da:	000d      	movs	r5, r1
100011dc:	b500      	push	{lr}
100011de:	f3ef 8305 	mrs	r3, IPSR
100011e2:	000e      	movs	r6, r1
100011e4:	2b00      	cmp	r3, #0
100011e6:	d00c      	beq.n	10001202 <best_effort_wfe_or_timeout+0x2e>
100011e8:	4943      	ldr	r1, [pc, #268]	@ (100012f8 <best_effort_wfe_or_timeout+0x124>)
100011ea:	2000      	movs	r0, #0
100011ec:	6a4b      	ldr	r3, [r1, #36]	@ 0x24
100011ee:	42ab      	cmp	r3, r5
100011f0:	d304      	bcc.n	100011fc <best_effort_wfe_or_timeout+0x28>
100011f2:	6a8a      	ldr	r2, [r1, #40]	@ 0x28
100011f4:	3001      	adds	r0, #1
100011f6:	42a2      	cmp	r2, r4
100011f8:	d200      	bcs.n	100011fc <best_effort_wfe_or_timeout+0x28>
100011fa:	e06a      	b.n	100012d2 <best_effort_wfe_or_timeout+0xfe>
100011fc:	bc80      	pop	{r7}
100011fe:	46b8      	mov	r8, r7
10001200:	bdf0      	pop	{r4, r5, r6, r7, pc}
10001202:	f000 f893 	bl	1000132c <time_us_64>
10001206:	0022      	movs	r2, r4
10001208:	002b      	movs	r3, r5
1000120a:	1a12      	subs	r2, r2, r0
1000120c:	418b      	sbcs	r3, r1
1000120e:	2b00      	cmp	r3, #0
10001210:	db54      	blt.n	100012bc <best_effort_wfe_or_timeout+0xe8>
10001212:	483a      	ldr	r0, [pc, #232]	@ (100012fc <best_effort_wfe_or_timeout+0x128>)
10001214:	6902      	ldr	r2, [r0, #16]
10001216:	f3ef 8810 	mrs	r8, PRIMASK
1000121a:	b672      	cpsid	i
1000121c:	6813      	ldr	r3, [r2, #0]
1000121e:	2b00      	cmp	r3, #0
10001220:	d0fc      	beq.n	1000121c <best_effort_wfe_or_timeout+0x48>
10001222:	f3bf 8f5f 	dmb	sy
10001226:	2302      	movs	r3, #2
10001228:	5ec7      	ldrsh	r7, [r0, r3]
1000122a:	6943      	ldr	r3, [r0, #20]
1000122c:	007a      	lsls	r2, r7, #1
1000122e:	19d2      	adds	r2, r2, r7
10001230:	00d2      	lsls	r2, r2, #3
10001232:	189b      	adds	r3, r3, r2
10001234:	2f00      	cmp	r7, #0
10001236:	db57      	blt.n	100012e8 <best_effort_wfe_or_timeout+0x114>
10001238:	881a      	ldrh	r2, [r3, #0]
1000123a:	8042      	strh	r2, [r0, #2]
1000123c:	6902      	ldr	r2, [r0, #16]
1000123e:	4694      	mov	ip, r2
10001240:	f3bf 8f5f 	dmb	sy
10001244:	2200      	movs	r2, #0
10001246:	4661      	mov	r1, ip
10001248:	600a      	str	r2, [r1, #0]
1000124a:	f388 8810 	msr	PRIMASK, r8
1000124e:	615a      	str	r2, [r3, #20]
10001250:	885a      	ldrh	r2, [r3, #2]
10001252:	492b      	ldr	r1, [pc, #172]	@ (10001300 <best_effort_wfe_or_timeout+0x12c>)
10001254:	3201      	adds	r2, #1
10001256:	0452      	lsls	r2, r2, #17
10001258:	0c52      	lsrs	r2, r2, #17
1000125a:	6119      	str	r1, [r3, #16]
1000125c:	609c      	str	r4, [r3, #8]
1000125e:	60dd      	str	r5, [r3, #12]
10001260:	1c11      	adds	r1, r2, #0
10001262:	2a00      	cmp	r2, #0
10001264:	d100      	bne.n	10001268 <best_effort_wfe_or_timeout+0x94>
10001266:	2101      	movs	r1, #1
10001268:	b28a      	uxth	r2, r1
1000126a:	8059      	strh	r1, [r3, #2]
1000126c:	0439      	lsls	r1, r7, #16
1000126e:	4311      	orrs	r1, r2
10001270:	6902      	ldr	r2, [r0, #16]
10001272:	4694      	mov	ip, r2
10001274:	f3ef 8810 	mrs	r8, PRIMASK
10001278:	b672      	cpsid	i
1000127a:	4662      	mov	r2, ip
1000127c:	6812      	ldr	r2, [r2, #0]
1000127e:	2a00      	cmp	r2, #0
10001280:	d0fb      	beq.n	1000127a <best_effort_wfe_or_timeout+0xa6>
10001282:	f3bf 8f5f 	dmb	sy
10001286:	8882      	ldrh	r2, [r0, #4]
10001288:	801a      	strh	r2, [r3, #0]
1000128a:	6903      	ldr	r3, [r0, #16]
1000128c:	8087      	strh	r7, [r0, #4]
1000128e:	f3bf 8f5f 	dmb	sy
10001292:	2200      	movs	r2, #0
10001294:	601a      	str	r2, [r3, #0]
10001296:	f388 8810 	msr	PRIMASK, r8
1000129a:	4f1a      	ldr	r7, [pc, #104]	@ (10001304 <best_effort_wfe_or_timeout+0x130>)
1000129c:	7803      	ldrb	r3, [r0, #0]
1000129e:	46bc      	mov	ip, r7
100012a0:	3201      	adds	r2, #1
100012a2:	409a      	lsls	r2, r3
100012a4:	68c3      	ldr	r3, [r0, #12]
100012a6:	4463      	add	r3, ip
100012a8:	601a      	str	r2, [r3, #0]
100012aa:	bf40      	sev
100012ac:	bf20      	wfe
100012ae:	4b12      	ldr	r3, [pc, #72]	@ (100012f8 <best_effort_wfe_or_timeout+0x124>)
100012b0:	6a5a      	ldr	r2, [r3, #36]	@ 0x24
100012b2:	42b2      	cmp	r2, r6
100012b4:	d212      	bcs.n	100012dc <best_effort_wfe_or_timeout+0x108>
100012b6:	bf20      	wfe
100012b8:	f7ff fec8 	bl	1000104c <alarm_pool_cancel_alarm>
100012bc:	4a0e      	ldr	r2, [pc, #56]	@ (100012f8 <best_effort_wfe_or_timeout+0x124>)
100012be:	2000      	movs	r0, #0
100012c0:	6a53      	ldr	r3, [r2, #36]	@ 0x24
100012c2:	42b3      	cmp	r3, r6
100012c4:	d200      	bcs.n	100012c8 <best_effort_wfe_or_timeout+0xf4>
100012c6:	e799      	b.n	100011fc <best_effort_wfe_or_timeout+0x28>
100012c8:	6a92      	ldr	r2, [r2, #40]	@ 0x28
100012ca:	3001      	adds	r0, #1
100012cc:	42a2      	cmp	r2, r4
100012ce:	d300      	bcc.n	100012d2 <best_effort_wfe_or_timeout+0xfe>
100012d0:	e794      	b.n	100011fc <best_effort_wfe_or_timeout+0x28>
100012d2:	1b5b      	subs	r3, r3, r5
100012d4:	1e5a      	subs	r2, r3, #1
100012d6:	4193      	sbcs	r3, r2
100012d8:	b2d8      	uxtb	r0, r3
100012da:	e78f      	b.n	100011fc <best_effort_wfe_or_timeout+0x28>
100012dc:	6a9b      	ldr	r3, [r3, #40]	@ 0x28
100012de:	42a3      	cmp	r3, r4
100012e0:	d2ea      	bcs.n	100012b8 <best_effort_wfe_or_timeout+0xe4>
100012e2:	42b2      	cmp	r2, r6
100012e4:	d1e8      	bne.n	100012b8 <best_effort_wfe_or_timeout+0xe4>
100012e6:	e7e6      	b.n	100012b6 <best_effort_wfe_or_timeout+0xe2>
100012e8:	6903      	ldr	r3, [r0, #16]
100012ea:	f3bf 8f5f 	dmb	sy
100012ee:	2200      	movs	r2, #0
100012f0:	601a      	str	r2, [r3, #0]
100012f2:	f388 8810 	msr	PRIMASK, r8
100012f6:	e7e1      	b.n	100012bc <best_effort_wfe_or_timeout+0xe8>
100012f8:	40054000 	.word	0x40054000
100012fc:	20000fe4 	.word	0x20000fe4
10001300:	10000ad1 	.word	0x10000ad1
10001304:	0000203c 	.word	0x0000203c

10001308 <timer_hardware_alarm_claim>:
10001308:	b510      	push	{r4, lr}
1000130a:	4a02      	ldr	r2, [pc, #8]	@ (10001314 <timer_hardware_alarm_claim+0xc>)
1000130c:	4802      	ldr	r0, [pc, #8]	@ (10001318 <timer_hardware_alarm_claim+0x10>)
1000130e:	f7ff f90b 	bl	10000528 <hw_claim_or_assert>
10001312:	bd10      	pop	{r4, pc}
10001314:	10006d50 	.word	0x10006d50
10001318:	20001db4 	.word	0x20001db4

1000131c <timer_time_us_64>:
1000131c:	0003      	movs	r3, r0
1000131e:	6a41      	ldr	r1, [r0, #36]	@ 0x24
10001320:	000a      	movs	r2, r1
10001322:	6a98      	ldr	r0, [r3, #40]	@ 0x28
10001324:	6a59      	ldr	r1, [r3, #36]	@ 0x24
10001326:	428a      	cmp	r2, r1
10001328:	d1fa      	bne.n	10001320 <timer_time_us_64+0x4>
1000132a:	4770      	bx	lr

1000132c <time_us_64>:
1000132c:	4b03      	ldr	r3, [pc, #12]	@ (1000133c <time_us_64+0x10>)
1000132e:	6a59      	ldr	r1, [r3, #36]	@ 0x24
10001330:	000a      	movs	r2, r1
10001332:	6a98      	ldr	r0, [r3, #40]	@ 0x28
10001334:	6a59      	ldr	r1, [r3, #36]	@ 0x24
10001336:	4291      	cmp	r1, r2
10001338:	d1fa      	bne.n	10001330 <time_us_64+0x4>
1000133a:	4770      	bx	lr
1000133c:	40054000 	.word	0x40054000

10001340 <busy_wait_until>:
10001340:	4a06      	ldr	r2, [pc, #24]	@ (1000135c <busy_wait_until+0x1c>)
10001342:	6a53      	ldr	r3, [r2, #36]	@ 0x24
10001344:	4299      	cmp	r1, r3
10001346:	d8fc      	bhi.n	10001342 <busy_wait_until+0x2>
10001348:	d107      	bne.n	1000135a <busy_wait_until+0x1a>
1000134a:	4b04      	ldr	r3, [pc, #16]	@ (1000135c <busy_wait_until+0x1c>)
1000134c:	e002      	b.n	10001354 <busy_wait_until+0x14>
1000134e:	6a5a      	ldr	r2, [r3, #36]	@ 0x24
10001350:	4291      	cmp	r1, r2
10001352:	d102      	bne.n	1000135a <busy_wait_until+0x1a>
10001354:	6a9a      	ldr	r2, [r3, #40]	@ 0x28
10001356:	4282      	cmp	r2, r0
10001358:	d3f9      	bcc.n	1000134e <busy_wait_until+0xe>
1000135a:	4770      	bx	lr
1000135c:	40054000 	.word	0x40054000

10001360 <clock_configure_int_divider>:
10001360:	b5f8      	push	{r3, r4, r5, r6, r7, lr}
10001362:	46de      	mov	lr, fp
10001364:	464e      	mov	r6, r9
10001366:	4657      	mov	r7, sl
10001368:	4645      	mov	r5, r8
1000136a:	b5e0      	push	{r5, r6, r7, lr}
1000136c:	468b      	mov	fp, r1
1000136e:	0005      	movs	r5, r0
10001370:	990a      	ldr	r1, [sp, #40]	@ 0x28
10001372:	0018      	movs	r0, r3
10001374:	0016      	movs	r6, r2
10001376:	f000 faed 	bl	10001954 <__wrap___aeabi_uidiv>
1000137a:	9b0a      	ldr	r3, [sp, #40]	@ 0x28
1000137c:	006c      	lsls	r4, r5, #1
1000137e:	021f      	lsls	r7, r3, #8
10001380:	4b32      	ldr	r3, [pc, #200]	@ (1000144c <clock_configure_int_divider+0xec>)
10001382:	1964      	adds	r4, r4, r5
10001384:	469c      	mov	ip, r3
10001386:	00a4      	lsls	r4, r4, #2
10001388:	4464      	add	r4, ip
1000138a:	6863      	ldr	r3, [r4, #4]
1000138c:	4681      	mov	r9, r0
1000138e:	429f      	cmp	r7, r3
10001390:	d900      	bls.n	10001394 <clock_configure_int_divider+0x34>
10001392:	6067      	str	r7, [r4, #4]
10001394:	1f2b      	subs	r3, r5, #4
10001396:	b2db      	uxtb	r3, r3
10001398:	4698      	mov	r8, r3
1000139a:	2b01      	cmp	r3, #1
1000139c:	d930      	bls.n	10001400 <clock_configure_int_divider+0xa0>
1000139e:	23c0      	movs	r3, #192	@ 0xc0
100013a0:	2280      	movs	r2, #128	@ 0x80
100013a2:	019b      	lsls	r3, r3, #6
100013a4:	18e3      	adds	r3, r4, r3
100013a6:	0112      	lsls	r2, r2, #4
100013a8:	601a      	str	r2, [r3, #0]
100013aa:	4b29      	ldr	r3, [pc, #164]	@ (10001450 <clock_configure_int_divider+0xf0>)
100013ac:	00ad      	lsls	r5, r5, #2
100013ae:	5959      	ldr	r1, [r3, r5]
100013b0:	469a      	mov	sl, r3
100013b2:	2900      	cmp	r1, #0
100013b4:	d11b      	bne.n	100013ee <clock_configure_int_divider+0x8e>
100013b6:	0173      	lsls	r3, r6, #5
100013b8:	26e0      	movs	r6, #224	@ 0xe0
100013ba:	6822      	ldr	r2, [r4, #0]
100013bc:	4053      	eors	r3, r2
100013be:	401e      	ands	r6, r3
100013c0:	2380      	movs	r3, #128	@ 0x80
100013c2:	4642      	mov	r2, r8
100013c4:	015b      	lsls	r3, r3, #5
100013c6:	18e3      	adds	r3, r4, r3
100013c8:	601e      	str	r6, [r3, #0]
100013ca:	2a01      	cmp	r2, #1
100013cc:	d930      	bls.n	10001430 <clock_configure_int_divider+0xd0>
100013ce:	2380      	movs	r3, #128	@ 0x80
100013d0:	2280      	movs	r2, #128	@ 0x80
100013d2:	019b      	lsls	r3, r3, #6
100013d4:	18e3      	adds	r3, r4, r3
100013d6:	0112      	lsls	r2, r2, #4
100013d8:	601a      	str	r2, [r3, #0]
100013da:	4653      	mov	r3, sl
100013dc:	464a      	mov	r2, r9
100013de:	6067      	str	r7, [r4, #4]
100013e0:	515a      	str	r2, [r3, r5]
100013e2:	bcf0      	pop	{r4, r5, r6, r7}
100013e4:	46bb      	mov	fp, r7
100013e6:	46b2      	mov	sl, r6
100013e8:	46a9      	mov	r9, r5
100013ea:	46a0      	mov	r8, r4
100013ec:	bdf8      	pop	{r3, r4, r5, r6, r7, pc}
100013ee:	6958      	ldr	r0, [r3, #20]
100013f0:	f000 fab0 	bl	10001954 <__wrap___aeabi_uidiv>
100013f4:	3001      	adds	r0, #1
100013f6:	0043      	lsls	r3, r0, #1
100013f8:	181b      	adds	r3, r3, r0
100013fa:	3b03      	subs	r3, #3
100013fc:	d2fd      	bcs.n	100013fa <clock_configure_int_divider+0x9a>
100013fe:	e7da      	b.n	100013b6 <clock_configure_int_divider+0x56>
10001400:	465b      	mov	r3, fp
10001402:	2b01      	cmp	r3, #1
10001404:	d1cb      	bne.n	1000139e <clock_configure_int_divider+0x3e>
10001406:	23c0      	movs	r3, #192	@ 0xc0
10001408:	2203      	movs	r2, #3
1000140a:	019b      	lsls	r3, r3, #6
1000140c:	18e3      	adds	r3, r4, r3
1000140e:	601a      	str	r2, [r3, #0]
10001410:	3a02      	subs	r2, #2
10001412:	68a3      	ldr	r3, [r4, #8]
10001414:	421a      	tst	r2, r3
10001416:	d0fc      	beq.n	10001412 <clock_configure_int_divider+0xb2>
10001418:	0173      	lsls	r3, r6, #5
1000141a:	26e0      	movs	r6, #224	@ 0xe0
1000141c:	6822      	ldr	r2, [r4, #0]
1000141e:	00ad      	lsls	r5, r5, #2
10001420:	4053      	eors	r3, r2
10001422:	401e      	ands	r6, r3
10001424:	2380      	movs	r3, #128	@ 0x80
10001426:	4a0a      	ldr	r2, [pc, #40]	@ (10001450 <clock_configure_int_divider+0xf0>)
10001428:	015b      	lsls	r3, r3, #5
1000142a:	4692      	mov	sl, r2
1000142c:	18e3      	adds	r3, r4, r3
1000142e:	601e      	str	r6, [r3, #0]
10001430:	465a      	mov	r2, fp
10001432:	6821      	ldr	r1, [r4, #0]
10001434:	4051      	eors	r1, r2
10001436:	2203      	movs	r2, #3
10001438:	400a      	ands	r2, r1
1000143a:	601a      	str	r2, [r3, #0]
1000143c:	2201      	movs	r2, #1
1000143e:	465b      	mov	r3, fp
10001440:	409a      	lsls	r2, r3
10001442:	68a3      	ldr	r3, [r4, #8]
10001444:	421a      	tst	r2, r3
10001446:	d0fc      	beq.n	10001442 <clock_configure_int_divider+0xe2>
10001448:	e7c1      	b.n	100013ce <clock_configure_int_divider+0x6e>
1000144a:	46c0      	nop			@ (mov r8, r8)
1000144c:	40008000 	.word	0x40008000
10001450:	20001db8 	.word	0x20001db8

10001454 <clock_configure_undivided>:
10001454:	b5f0      	push	{r4, r5, r6, r7, lr}
10001456:	4646      	mov	r6, r8
10001458:	464f      	mov	r7, r9
1000145a:	46d6      	mov	lr, sl
1000145c:	b5c0      	push	{r6, r7, lr}
1000145e:	001f      	movs	r7, r3
10001460:	4b34      	ldr	r3, [pc, #208]	@ (10001534 <clock_configure_undivided+0xe0>)
10001462:	0044      	lsls	r4, r0, #1
10001464:	469c      	mov	ip, r3
10001466:	1824      	adds	r4, r4, r0
10001468:	00a4      	lsls	r4, r4, #2
1000146a:	4464      	add	r4, ip
1000146c:	6863      	ldr	r3, [r4, #4]
1000146e:	4688      	mov	r8, r1
10001470:	0016      	movs	r6, r2
10001472:	2bff      	cmp	r3, #255	@ 0xff
10001474:	d802      	bhi.n	1000147c <clock_configure_undivided+0x28>
10001476:	2380      	movs	r3, #128	@ 0x80
10001478:	005b      	lsls	r3, r3, #1
1000147a:	6063      	str	r3, [r4, #4]
1000147c:	1f03      	subs	r3, r0, #4
1000147e:	b2db      	uxtb	r3, r3
10001480:	469a      	mov	sl, r3
10001482:	2b01      	cmp	r3, #1
10001484:	d930      	bls.n	100014e8 <clock_configure_undivided+0x94>
10001486:	23c0      	movs	r3, #192	@ 0xc0
10001488:	2280      	movs	r2, #128	@ 0x80
1000148a:	019b      	lsls	r3, r3, #6
1000148c:	18e3      	adds	r3, r4, r3
1000148e:	0112      	lsls	r2, r2, #4
10001490:	601a      	str	r2, [r3, #0]
10001492:	4b29      	ldr	r3, [pc, #164]	@ (10001538 <clock_configure_undivided+0xe4>)
10001494:	0085      	lsls	r5, r0, #2
10001496:	5959      	ldr	r1, [r3, r5]
10001498:	4699      	mov	r9, r3
1000149a:	2900      	cmp	r1, #0
1000149c:	d11b      	bne.n	100014d6 <clock_configure_undivided+0x82>
1000149e:	0173      	lsls	r3, r6, #5
100014a0:	26e0      	movs	r6, #224	@ 0xe0
100014a2:	6822      	ldr	r2, [r4, #0]
100014a4:	4053      	eors	r3, r2
100014a6:	401e      	ands	r6, r3
100014a8:	2380      	movs	r3, #128	@ 0x80
100014aa:	4652      	mov	r2, sl
100014ac:	015b      	lsls	r3, r3, #5
100014ae:	18e3      	adds	r3, r4, r3
100014b0:	601e      	str	r6, [r3, #0]
100014b2:	2a01      	cmp	r2, #1
100014b4:	d930      	bls.n	10001518 <clock_configure_undivided+0xc4>
100014b6:	2380      	movs	r3, #128	@ 0x80
100014b8:	2280      	movs	r2, #128	@ 0x80
100014ba:	019b      	lsls	r3, r3, #6
100014bc:	18e3      	adds	r3, r4, r3
100014be:	0112      	lsls	r2, r2, #4
100014c0:	601a      	str	r2, [r3, #0]
100014c2:	2380      	movs	r3, #128	@ 0x80
100014c4:	005b      	lsls	r3, r3, #1
100014c6:	6063      	str	r3, [r4, #4]
100014c8:	464b      	mov	r3, r9
100014ca:	515f      	str	r7, [r3, r5]
100014cc:	bce0      	pop	{r5, r6, r7}
100014ce:	46ba      	mov	sl, r7
100014d0:	46b1      	mov	r9, r6
100014d2:	46a8      	mov	r8, r5
100014d4:	bdf0      	pop	{r4, r5, r6, r7, pc}
100014d6:	6958      	ldr	r0, [r3, #20]
100014d8:	f000 fa3c 	bl	10001954 <__wrap___aeabi_uidiv>
100014dc:	3001      	adds	r0, #1
100014de:	0043      	lsls	r3, r0, #1
100014e0:	181b      	adds	r3, r3, r0
100014e2:	3b03      	subs	r3, #3
100014e4:	d2fd      	bcs.n	100014e2 <clock_configure_undivided+0x8e>
100014e6:	e7da      	b.n	1000149e <clock_configure_undivided+0x4a>
100014e8:	4643      	mov	r3, r8
100014ea:	2b01      	cmp	r3, #1
100014ec:	d1cb      	bne.n	10001486 <clock_configure_undivided+0x32>
100014ee:	23c0      	movs	r3, #192	@ 0xc0
100014f0:	2203      	movs	r2, #3
100014f2:	019b      	lsls	r3, r3, #6
100014f4:	18e3      	adds	r3, r4, r3
100014f6:	601a      	str	r2, [r3, #0]
100014f8:	3a02      	subs	r2, #2
100014fa:	68a3      	ldr	r3, [r4, #8]
100014fc:	421a      	tst	r2, r3
100014fe:	d0fc      	beq.n	100014fa <clock_configure_undivided+0xa6>
10001500:	0173      	lsls	r3, r6, #5
10001502:	26e0      	movs	r6, #224	@ 0xe0
10001504:	6822      	ldr	r2, [r4, #0]
10001506:	0085      	lsls	r5, r0, #2
10001508:	4053      	eors	r3, r2
1000150a:	401e      	ands	r6, r3
1000150c:	2380      	movs	r3, #128	@ 0x80
1000150e:	4a0a      	ldr	r2, [pc, #40]	@ (10001538 <clock_configure_undivided+0xe4>)
10001510:	015b      	lsls	r3, r3, #5
10001512:	4691      	mov	r9, r2
10001514:	18e3      	adds	r3, r4, r3
10001516:	601e      	str	r6, [r3, #0]
10001518:	4642      	mov	r2, r8
1000151a:	6821      	ldr	r1, [r4, #0]
1000151c:	4051      	eors	r1, r2
1000151e:	2203      	movs	r2, #3
10001520:	400a      	ands	r2, r1
10001522:	601a      	str	r2, [r3, #0]
10001524:	2301      	movs	r3, #1
10001526:	4642      	mov	r2, r8
10001528:	4093      	lsls	r3, r2
1000152a:	68a2      	ldr	r2, [r4, #8]
1000152c:	4213      	tst	r3, r2
1000152e:	d0fc      	beq.n	1000152a <clock_configure_undivided+0xd6>
10001530:	e7c1      	b.n	100014b6 <clock_configure_undivided+0x62>
10001532:	46c0      	nop			@ (mov r8, r8)
10001534:	40008000 	.word	0x40008000
10001538:	20001db8 	.word	0x20001db8

1000153c <clock_get_hz>:
1000153c:	4b01      	ldr	r3, [pc, #4]	@ (10001544 <clock_get_hz+0x8>)
1000153e:	0080      	lsls	r0, r0, #2
10001540:	58c0      	ldr	r0, [r0, r3]
10001542:	4770      	bx	lr
10001544:	20001db8 	.word	0x20001db8

10001548 <pll_init>:
10001548:	b5f8      	push	{r3, r4, r5, r6, r7, lr}
1000154a:	0004      	movs	r4, r0
1000154c:	4821      	ldr	r0, [pc, #132]	@ (100015d4 <pll_init+0x8c>)
1000154e:	001e      	movs	r6, r3
10001550:	0017      	movs	r7, r2
10001552:	000d      	movs	r5, r1
10001554:	f000 f9fe 	bl	10001954 <__wrap___aeabi_uidiv>
10001558:	0001      	movs	r1, r0
1000155a:	0038      	movs	r0, r7
1000155c:	f000 f9fa 	bl	10001954 <__wrap___aeabi_uidiv>
10001560:	9b06      	ldr	r3, [sp, #24]
10001562:	0436      	lsls	r6, r6, #16
10001564:	031b      	lsls	r3, r3, #12
10001566:	431e      	orrs	r6, r3
10001568:	6823      	ldr	r3, [r4, #0]
1000156a:	2b00      	cmp	r3, #0
1000156c:	db20      	blt.n	100015b0 <pll_init+0x68>
1000156e:	4b1a      	ldr	r3, [pc, #104]	@ (100015d8 <pll_init+0x90>)
10001570:	491a      	ldr	r1, [pc, #104]	@ (100015dc <pll_init+0x94>)
10001572:	18e3      	adds	r3, r4, r3
10001574:	1e5a      	subs	r2, r3, #1
10001576:	4193      	sbcs	r3, r2
10001578:	2280      	movs	r2, #128	@ 0x80
1000157a:	0192      	lsls	r2, r2, #6
1000157c:	4694      	mov	ip, r2
1000157e:	425b      	negs	r3, r3
10001580:	0b1b      	lsrs	r3, r3, #12
10001582:	4a17      	ldr	r2, [pc, #92]	@ (100015e0 <pll_init+0x98>)
10001584:	031b      	lsls	r3, r3, #12
10001586:	4463      	add	r3, ip
10001588:	6013      	str	r3, [r2, #0]
1000158a:	4a16      	ldr	r2, [pc, #88]	@ (100015e4 <pll_init+0x9c>)
1000158c:	6013      	str	r3, [r2, #0]
1000158e:	001f      	movs	r7, r3
10001590:	680a      	ldr	r2, [r1, #0]
10001592:	4397      	bics	r7, r2
10001594:	d1fb      	bne.n	1000158e <pll_init+0x46>
10001596:	4b14      	ldr	r3, [pc, #80]	@ (100015e8 <pll_init+0xa0>)
10001598:	6025      	str	r5, [r4, #0]
1000159a:	18e2      	adds	r2, r4, r3
1000159c:	2321      	movs	r3, #33	@ 0x21
1000159e:	60a0      	str	r0, [r4, #8]
100015a0:	6013      	str	r3, [r2, #0]
100015a2:	6823      	ldr	r3, [r4, #0]
100015a4:	2b00      	cmp	r3, #0
100015a6:	dafc      	bge.n	100015a2 <pll_init+0x5a>
100015a8:	2308      	movs	r3, #8
100015aa:	60e6      	str	r6, [r4, #12]
100015ac:	6013      	str	r3, [r2, #0]
100015ae:	bdf8      	pop	{r3, r4, r5, r6, r7, pc}
100015b0:	233f      	movs	r3, #63	@ 0x3f
100015b2:	6822      	ldr	r2, [r4, #0]
100015b4:	4013      	ands	r3, r2
100015b6:	42ab      	cmp	r3, r5
100015b8:	d1d9      	bne.n	1000156e <pll_init+0x26>
100015ba:	68a3      	ldr	r3, [r4, #8]
100015bc:	051b      	lsls	r3, r3, #20
100015be:	0d1b      	lsrs	r3, r3, #20
100015c0:	4283      	cmp	r3, r0
100015c2:	d1d4      	bne.n	1000156e <pll_init+0x26>
100015c4:	22ee      	movs	r2, #238	@ 0xee
100015c6:	68e3      	ldr	r3, [r4, #12]
100015c8:	02d2      	lsls	r2, r2, #11
100015ca:	4013      	ands	r3, r2
100015cc:	42b3      	cmp	r3, r6
100015ce:	d1ce      	bne.n	1000156e <pll_init+0x26>
100015d0:	e7ed      	b.n	100015ae <pll_init+0x66>
100015d2:	46c0      	nop			@ (mov r8, r8)
100015d4:	00b71b00 	.word	0x00b71b00
100015d8:	bffd4000 	.word	0xbffd4000
100015dc:	4000c008 	.word	0x4000c008
100015e0:	4000e000 	.word	0x4000e000
100015e4:	4000f000 	.word	0x4000f000
100015e8:	00003004 	.word	0x00003004

100015ec <watchdog_reboot>:
100015ec:	b510      	push	{r4, lr}
100015ee:	2480      	movs	r4, #128	@ 0x80
100015f0:	4b1c      	ldr	r3, [pc, #112]	@ (10001664 <watchdog_reboot+0x78>)
100015f2:	05e4      	lsls	r4, r4, #23
100015f4:	601c      	str	r4, [r3, #0]
100015f6:	2800      	cmp	r0, #0
100015f8:	d01a      	beq.n	10001630 <watchdog_reboot+0x44>
100015fa:	2301      	movs	r3, #1
100015fc:	4c1a      	ldr	r4, [pc, #104]	@ (10001668 <watchdog_reboot+0x7c>)
100015fe:	4318      	orrs	r0, r3
10001600:	4b1a      	ldr	r3, [pc, #104]	@ (1000166c <watchdog_reboot+0x80>)
10001602:	61dc      	str	r4, [r3, #28]
10001604:	4c1a      	ldr	r4, [pc, #104]	@ (10001670 <watchdog_reboot+0x84>)
10001606:	4044      	eors	r4, r0
10001608:	621c      	str	r4, [r3, #32]
1000160a:	6259      	str	r1, [r3, #36]	@ 0x24
1000160c:	6298      	str	r0, [r3, #40]	@ 0x28
1000160e:	2180      	movs	r1, #128	@ 0x80
10001610:	4b14      	ldr	r3, [pc, #80]	@ (10001664 <watchdog_reboot+0x78>)
10001612:	05c9      	lsls	r1, r1, #23
10001614:	6019      	str	r1, [r3, #0]
10001616:	4817      	ldr	r0, [pc, #92]	@ (10001674 <watchdog_reboot+0x88>)
10001618:	4917      	ldr	r1, [pc, #92]	@ (10001678 <watchdog_reboot+0x8c>)
1000161a:	6008      	str	r0, [r1, #0]
1000161c:	21e0      	movs	r1, #224	@ 0xe0
1000161e:	04c9      	lsls	r1, r1, #19
10001620:	6019      	str	r1, [r3, #0]
10001622:	2a00      	cmp	r2, #0
10001624:	d107      	bne.n	10001636 <watchdog_reboot+0x4a>
10001626:	2280      	movs	r2, #128	@ 0x80
10001628:	4b14      	ldr	r3, [pc, #80]	@ (1000167c <watchdog_reboot+0x90>)
1000162a:	0612      	lsls	r2, r2, #24
1000162c:	601a      	str	r2, [r3, #0]
1000162e:	bd10      	pop	{r4, pc}
10001630:	4b0e      	ldr	r3, [pc, #56]	@ (1000166c <watchdog_reboot+0x80>)
10001632:	61d8      	str	r0, [r3, #28]
10001634:	e7eb      	b.n	1000160e <watchdog_reboot+0x22>
10001636:	0153      	lsls	r3, r2, #5
10001638:	1a9b      	subs	r3, r3, r2
1000163a:	009b      	lsls	r3, r3, #2
1000163c:	189a      	adds	r2, r3, r2
1000163e:	2380      	movs	r3, #128	@ 0x80
10001640:	0112      	lsls	r2, r2, #4
10001642:	045b      	lsls	r3, r3, #17
10001644:	429a      	cmp	r2, r3
10001646:	d209      	bcs.n	1000165c <watchdog_reboot+0x70>
10001648:	0013      	movs	r3, r2
1000164a:	490d      	ldr	r1, [pc, #52]	@ (10001680 <watchdog_reboot+0x94>)
1000164c:	600b      	str	r3, [r1, #0]
1000164e:	4b07      	ldr	r3, [pc, #28]	@ (1000166c <watchdog_reboot+0x80>)
10001650:	605a      	str	r2, [r3, #4]
10001652:	2280      	movs	r2, #128	@ 0x80
10001654:	4b09      	ldr	r3, [pc, #36]	@ (1000167c <watchdog_reboot+0x90>)
10001656:	05d2      	lsls	r2, r2, #23
10001658:	601a      	str	r2, [r3, #0]
1000165a:	e7e8      	b.n	1000162e <watchdog_reboot+0x42>
1000165c:	4b09      	ldr	r3, [pc, #36]	@ (10001684 <watchdog_reboot+0x98>)
1000165e:	001a      	movs	r2, r3
10001660:	e7f3      	b.n	1000164a <watchdog_reboot+0x5e>
10001662:	46c0      	nop			@ (mov r8, r8)
10001664:	4005b000 	.word	0x4005b000
10001668:	b007c0d3 	.word	0xb007c0d3
1000166c:	40058000 	.word	0x40058000
10001670:	4ff83f2d 	.word	0x4ff83f2d
10001674:	0001fffc 	.word	0x0001fffc
10001678:	40012008 	.word	0x40012008
1000167c:	4005a000 	.word	0x4005a000
10001680:	20002218 	.word	0x20002218
10001684:	00ffffff 	.word	0x00ffffff

10001688 <tick_start>:
10001688:	2380      	movs	r3, #128	@ 0x80
1000168a:	4a02      	ldr	r2, [pc, #8]	@ (10001694 <tick_start+0xc>)
1000168c:	009b      	lsls	r3, r3, #2
1000168e:	430b      	orrs	r3, r1
10001690:	62d3      	str	r3, [r2, #44]	@ 0x2c
10001692:	4770      	bx	lr
10001694:	40058000 	.word	0x40058000

10001698 <xosc_init>:
10001698:	23aa      	movs	r3, #170	@ 0xaa
1000169a:	4a06      	ldr	r2, [pc, #24]	@ (100016b4 <xosc_init+0x1c>)
1000169c:	011b      	lsls	r3, r3, #4
1000169e:	6013      	str	r3, [r2, #0]
100016a0:	232f      	movs	r3, #47	@ 0x2f
100016a2:	4905      	ldr	r1, [pc, #20]	@ (100016b8 <xosc_init+0x20>)
100016a4:	60d3      	str	r3, [r2, #12]
100016a6:	4b05      	ldr	r3, [pc, #20]	@ (100016bc <xosc_init+0x24>)
100016a8:	6019      	str	r1, [r3, #0]
100016aa:	6853      	ldr	r3, [r2, #4]
100016ac:	2b00      	cmp	r3, #0
100016ae:	dafc      	bge.n	100016aa <xosc_init+0x12>
100016b0:	4770      	bx	lr
100016b2:	46c0      	nop			@ (mov r8, r8)
100016b4:	40024000 	.word	0x40024000
100016b8:	00fab000 	.word	0x00fab000
100016bc:	40026000 	.word	0x40026000

100016c0 <first_per_core_initializer>:
100016c0:	4770      	bx	lr
100016c2:	46c0      	nop			@ (mov r8, r8)

100016c4 <hard_assertion_failure>:
100016c4:	b510      	push	{r4, lr}
100016c6:	4801      	ldr	r0, [pc, #4]	@ (100016cc <hard_assertion_failure+0x8>)
100016c8:	f7fe ff16 	bl	100004f8 <panic>
100016cc:	10006d74 	.word	0x10006d74

100016d0 <runtime_run_initializers>:
100016d0:	b570      	push	{r4, r5, r6, lr}
100016d2:	4d07      	ldr	r5, [pc, #28]	@ (100016f0 <runtime_run_initializers+0x20>)
100016d4:	4e07      	ldr	r6, [pc, #28]	@ (100016f4 <runtime_run_initializers+0x24>)
100016d6:	42b5      	cmp	r5, r6
100016d8:	d209      	bcs.n	100016ee <runtime_run_initializers+0x1e>
100016da:	2400      	movs	r4, #0
100016dc:	3e01      	subs	r6, #1
100016de:	1b76      	subs	r6, r6, r5
100016e0:	08b6      	lsrs	r6, r6, #2
100016e2:	cd08      	ldmia	r5!, {r3}
100016e4:	4798      	blx	r3
100016e6:	0023      	movs	r3, r4
100016e8:	3401      	adds	r4, #1
100016ea:	42b3      	cmp	r3, r6
100016ec:	d1f9      	bne.n	100016e2 <runtime_run_initializers+0x12>
100016ee:	bd70      	pop	{r4, r5, r6, pc}
100016f0:	10006c38 	.word	0x10006c38
100016f4:	10006c74 	.word	0x10006c74

100016f8 <runtime_init_early_resets>:
100016f8:	4b05      	ldr	r3, [pc, #20]	@ (10001710 <runtime_init_early_resets+0x18>)
100016fa:	4a06      	ldr	r2, [pc, #24]	@ (10001714 <runtime_init_early_resets+0x1c>)
100016fc:	4906      	ldr	r1, [pc, #24]	@ (10001718 <runtime_init_early_resets+0x20>)
100016fe:	601a      	str	r2, [r3, #0]
10001700:	4a06      	ldr	r2, [pc, #24]	@ (1000171c <runtime_init_early_resets+0x24>)
10001702:	4b07      	ldr	r3, [pc, #28]	@ (10001720 <runtime_init_early_resets+0x28>)
10001704:	601a      	str	r2, [r3, #0]
10001706:	0010      	movs	r0, r2
10001708:	680b      	ldr	r3, [r1, #0]
1000170a:	4398      	bics	r0, r3
1000170c:	d1fb      	bne.n	10001706 <runtime_init_early_resets+0xe>
1000170e:	4770      	bx	lr
10001710:	4000e000 	.word	0x4000e000
10001714:	fefbcdbf 	.word	0xfefbcdbf
10001718:	4000c008 	.word	0x4000c008
1000171c:	003c7ffe 	.word	0x003c7ffe
10001720:	4000f000 	.word	0x4000f000

10001724 <runtime_init_usb_power_down>:
10001724:	4b04      	ldr	r3, [pc, #16]	@ (10001738 <runtime_init_usb_power_down+0x14>)
10001726:	6cdb      	ldr	r3, [r3, #76]	@ 0x4c
10001728:	2b00      	cmp	r3, #0
1000172a:	d103      	bne.n	10001734 <runtime_init_usb_power_down+0x10>
1000172c:	2280      	movs	r2, #128	@ 0x80
1000172e:	4b03      	ldr	r3, [pc, #12]	@ (1000173c <runtime_init_usb_power_down+0x18>)
10001730:	02d2      	lsls	r2, r2, #11
10001732:	601a      	str	r2, [r3, #0]
10001734:	4770      	bx	lr
10001736:	46c0      	nop			@ (mov r8, r8)
10001738:	50110000 	.word	0x50110000
1000173c:	5011204c 	.word	0x5011204c

10001740 <runtime_init_post_clock_resets>:
10001740:	4a04      	ldr	r2, [pc, #16]	@ (10001754 <runtime_init_post_clock_resets+0x14>)
10001742:	4b05      	ldr	r3, [pc, #20]	@ (10001758 <runtime_init_post_clock_resets+0x18>)
10001744:	601a      	str	r2, [r3, #0]
10001746:	4a05      	ldr	r2, [pc, #20]	@ (1000175c <runtime_init_post_clock_resets+0x1c>)
10001748:	6813      	ldr	r3, [r2, #0]
1000174a:	01db      	lsls	r3, r3, #7
1000174c:	3380      	adds	r3, #128	@ 0x80
1000174e:	d1fb      	bne.n	10001748 <runtime_init_post_clock_resets+0x8>
10001750:	4770      	bx	lr
10001752:	46c0      	nop			@ (mov r8, r8)
10001754:	01ffffff 	.word	0x01ffffff
10001758:	4000f000 	.word	0x4000f000
1000175c:	4000c008 	.word	0x4000c008

10001760 <runtime_init_rp2040_gpio_ie_disable>:
10001760:	2240      	movs	r2, #64	@ 0x40
10001762:	4b03      	ldr	r3, [pc, #12]	@ (10001770 <runtime_init_rp2040_gpio_ie_disable+0x10>)
10001764:	679a      	str	r2, [r3, #120]	@ 0x78
10001766:	675a      	str	r2, [r3, #116]	@ 0x74
10001768:	671a      	str	r2, [r3, #112]	@ 0x70
1000176a:	66da      	str	r2, [r3, #108]	@ 0x6c
1000176c:	4770      	bx	lr
1000176e:	46c0      	nop			@ (mov r8, r8)
10001770:	4001f000 	.word	0x4001f000

10001774 <runtime_init_spin_locks_reset>:
10001774:	b510      	push	{r4, lr}
10001776:	f7fe ff65 	bl	10000644 <spin_locks_reset>
1000177a:	bd10      	pop	{r4, pc}

1000177c <runtime_init_install_ram_vector_table>:
1000177c:	b570      	push	{r4, r5, r6, lr}
1000177e:	4d04      	ldr	r5, [pc, #16]	@ (10001790 <runtime_init_install_ram_vector_table+0x14>)
10001780:	4c04      	ldr	r4, [pc, #16]	@ (10001794 <runtime_init_install_ram_vector_table+0x18>)
10001782:	68a9      	ldr	r1, [r5, #8]
10001784:	22c0      	movs	r2, #192	@ 0xc0
10001786:	0020      	movs	r0, r4
10001788:	f000 ff70 	bl	1000266c <__wrap___aeabi_memcpy>
1000178c:	60ac      	str	r4, [r5, #8]
1000178e:	bd70      	pop	{r4, r5, r6, pc}
10001790:	e000ed00 	.word	0xe000ed00
10001794:	20000000 	.word	0x20000000

10001798 <runtime_init_clocks>:
10001798:	2300      	movs	r3, #0
1000179a:	b510      	push	{r4, lr}
1000179c:	4c29      	ldr	r4, [pc, #164]	@ (10001844 <runtime_init_clocks+0xac>)
1000179e:	b082      	sub	sp, #8
100017a0:	67a3      	str	r3, [r4, #120]	@ 0x78
100017a2:	f7ff ff79 	bl	10001698 <xosc_init>
100017a6:	2201      	movs	r2, #1
100017a8:	4b27      	ldr	r3, [pc, #156]	@ (10001848 <runtime_init_clocks+0xb0>)
100017aa:	601a      	str	r2, [r3, #0]
100017ac:	6c63      	ldr	r3, [r4, #68]	@ 0x44
100017ae:	2b01      	cmp	r3, #1
100017b0:	d1fc      	bne.n	100017ac <runtime_init_clocks+0x14>
100017b2:	2203      	movs	r2, #3
100017b4:	4b25      	ldr	r3, [pc, #148]	@ (1000184c <runtime_init_clocks+0xb4>)
100017b6:	601a      	str	r2, [r3, #0]
100017b8:	4a22      	ldr	r2, [pc, #136]	@ (10001844 <runtime_init_clocks+0xac>)
100017ba:	6b93      	ldr	r3, [r2, #56]	@ 0x38
100017bc:	2b01      	cmp	r3, #1
100017be:	d1fc      	bne.n	100017ba <runtime_init_clocks+0x22>
100017c0:	3301      	adds	r3, #1
100017c2:	9300      	str	r3, [sp, #0]
100017c4:	2101      	movs	r1, #1
100017c6:	4a22      	ldr	r2, [pc, #136]	@ (10001850 <runtime_init_clocks+0xb8>)
100017c8:	4822      	ldr	r0, [pc, #136]	@ (10001854 <runtime_init_clocks+0xbc>)
100017ca:	3304      	adds	r3, #4
100017cc:	f7ff febc 	bl	10001548 <pll_init>
100017d0:	2305      	movs	r3, #5
100017d2:	2101      	movs	r1, #1
100017d4:	9300      	str	r3, [sp, #0]
100017d6:	4a20      	ldr	r2, [pc, #128]	@ (10001858 <runtime_init_clocks+0xc0>)
100017d8:	4820      	ldr	r0, [pc, #128]	@ (1000185c <runtime_init_clocks+0xc4>)
100017da:	f7ff feb5 	bl	10001548 <pll_init>
100017de:	2200      	movs	r2, #0
100017e0:	2102      	movs	r1, #2
100017e2:	2004      	movs	r0, #4
100017e4:	4b1e      	ldr	r3, [pc, #120]	@ (10001860 <runtime_init_clocks+0xc8>)
100017e6:	f7ff fe35 	bl	10001454 <clock_configure_undivided>
100017ea:	2200      	movs	r2, #0
100017ec:	2101      	movs	r1, #1
100017ee:	2005      	movs	r0, #5
100017f0:	4b1c      	ldr	r3, [pc, #112]	@ (10001864 <runtime_init_clocks+0xcc>)
100017f2:	f7ff fe2f 	bl	10001454 <clock_configure_undivided>
100017f6:	2200      	movs	r2, #0
100017f8:	2100      	movs	r1, #0
100017fa:	2007      	movs	r0, #7
100017fc:	4b1a      	ldr	r3, [pc, #104]	@ (10001868 <runtime_init_clocks+0xd0>)
100017fe:	f7ff fe29 	bl	10001454 <clock_configure_undivided>
10001802:	2200      	movs	r2, #0
10001804:	2100      	movs	r1, #0
10001806:	2008      	movs	r0, #8
10001808:	4b17      	ldr	r3, [pc, #92]	@ (10001868 <runtime_init_clocks+0xd0>)
1000180a:	f7ff fe23 	bl	10001454 <clock_configure_undivided>
1000180e:	2380      	movs	r3, #128	@ 0x80
10001810:	00db      	lsls	r3, r3, #3
10001812:	9300      	str	r3, [sp, #0]
10001814:	2200      	movs	r2, #0
10001816:	2100      	movs	r1, #0
10001818:	2009      	movs	r0, #9
1000181a:	4b13      	ldr	r3, [pc, #76]	@ (10001868 <runtime_init_clocks+0xd0>)
1000181c:	f7ff fda0 	bl	10001360 <clock_configure_int_divider>
10001820:	2200      	movs	r2, #0
10001822:	4b10      	ldr	r3, [pc, #64]	@ (10001864 <runtime_init_clocks+0xcc>)
10001824:	2100      	movs	r1, #0
10001826:	2006      	movs	r0, #6
10001828:	f7ff fe14 	bl	10001454 <clock_configure_undivided>
1000182c:	2004      	movs	r0, #4
1000182e:	f7ff fe85 	bl	1000153c <clock_get_hz>
10001832:	490e      	ldr	r1, [pc, #56]	@ (1000186c <runtime_init_clocks+0xd4>)
10001834:	f000 f88e 	bl	10001954 <__wrap___aeabi_uidiv>
10001838:	0001      	movs	r1, r0
1000183a:	2000      	movs	r0, #0
1000183c:	f7ff ff24 	bl	10001688 <tick_start>
10001840:	b002      	add	sp, #8
10001842:	bd10      	pop	{r4, pc}
10001844:	40008000 	.word	0x40008000
10001848:	4000b03c 	.word	0x4000b03c
1000184c:	4000b030 	.word	0x4000b030
10001850:	59682f00 	.word	0x59682f00
10001854:	40028000 	.word	0x40028000
10001858:	47868c00 	.word	0x47868c00
1000185c:	4002c000 	.word	0x4002c000
10001860:	00b71b00 	.word	0x00b71b00
10001864:	07735940 	.word	0x07735940
10001868:	02dc6c00 	.word	0x02dc6c00
1000186c:	000f4240 	.word	0x000f4240

10001870 <__aeabi_bits_init>:
10001870:	4801      	ldr	r0, [pc, #4]	@ (10001878 <__aeabi_bits_init+0x8>)
10001872:	2104      	movs	r1, #4
10001874:	4b01      	ldr	r3, [pc, #4]	@ (1000187c <__aeabi_bits_init+0xc>)
10001876:	4718      	bx	r3
10001878:	20001000 	.word	0x20001000
1000187c:	100018a1 	.word	0x100018a1

10001880 <rom_func_lookup>:
10001880:	2314      	movs	r3, #20
10001882:	b510      	push	{r4, lr}
10001884:	0001      	movs	r1, r0
10001886:	8818      	ldrh	r0, [r3, #0]
10001888:	3304      	adds	r3, #4
1000188a:	881b      	ldrh	r3, [r3, #0]
1000188c:	4798      	blx	r3
1000188e:	bd10      	pop	{r4, pc}

10001890 <rom_data_lookup>:
10001890:	2316      	movs	r3, #22
10001892:	b510      	push	{r4, lr}
10001894:	0001      	movs	r1, r0
10001896:	8818      	ldrh	r0, [r3, #0]
10001898:	3302      	adds	r3, #2
1000189a:	881b      	ldrh	r3, [r3, #0]
1000189c:	4798      	blx	r3
1000189e:	bd10      	pop	{r4, pc}

100018a0 <rom_funcs_lookup>:
100018a0:	b5f8      	push	{r3, r4, r5, r6, r7, lr}
100018a2:	4647      	mov	r7, r8
100018a4:	46ce      	mov	lr, r9
100018a6:	b580      	push	{r7, lr}
100018a8:	1e0f      	subs	r7, r1, #0
100018aa:	d019      	beq.n	100018e0 <rom_funcs_lookup+0x40>
100018ac:	2314      	movs	r3, #20
100018ae:	4699      	mov	r9, r3
100018b0:	3304      	adds	r3, #4
100018b2:	0004      	movs	r4, r0
100018b4:	2500      	movs	r5, #0
100018b6:	2601      	movs	r6, #1
100018b8:	4698      	mov	r8, r3
100018ba:	464b      	mov	r3, r9
100018bc:	8818      	ldrh	r0, [r3, #0]
100018be:	4643      	mov	r3, r8
100018c0:	6821      	ldr	r1, [r4, #0]
100018c2:	881b      	ldrh	r3, [r3, #0]
100018c4:	4798      	blx	r3
100018c6:	c401      	stmia	r4!, {r0}
100018c8:	1e43      	subs	r3, r0, #1
100018ca:	4198      	sbcs	r0, r3
100018cc:	3501      	adds	r5, #1
100018ce:	4240      	negs	r0, r0
100018d0:	4006      	ands	r6, r0
100018d2:	42af      	cmp	r7, r5
100018d4:	d1f1      	bne.n	100018ba <rom_funcs_lookup+0x1a>
100018d6:	0030      	movs	r0, r6
100018d8:	bcc0      	pop	{r6, r7}
100018da:	46b9      	mov	r9, r7
100018dc:	46b0      	mov	r8, r6
100018de:	bdf8      	pop	{r3, r4, r5, r6, r7, pc}
100018e0:	2601      	movs	r6, #1
100018e2:	e7f8      	b.n	100018d6 <rom_funcs_lookup+0x36>

100018e4 <rom_reset_usb_boot>:
100018e4:	2314      	movs	r3, #20
100018e6:	b570      	push	{r4, r5, r6, lr}
100018e8:	0004      	movs	r4, r0
100018ea:	8818      	ldrh	r0, [r3, #0]
100018ec:	3304      	adds	r3, #4
100018ee:	000d      	movs	r5, r1
100018f0:	881b      	ldrh	r3, [r3, #0]
100018f2:	4903      	ldr	r1, [pc, #12]	@ (10001900 <rom_reset_usb_boot+0x1c>)
100018f4:	4798      	blx	r3
100018f6:	0029      	movs	r1, r5
100018f8:	0003      	movs	r3, r0
100018fa:	0020      	movs	r0, r4
100018fc:	4798      	blx	r3
100018fe:	46c0      	nop			@ (mov r8, r8)
10001900:	00004255 	.word	0x00004255

10001904 <__wrap___aeabi_idiv>:
10001904:	4a12      	ldr	r2, [pc, #72]	@ (10001950 <divmod_s32s32_savestate+0x18>)
10001906:	6f93      	ldr	r3, [r2, #120]	@ 0x78
10001908:	089b      	lsrs	r3, r3, #2
1000190a:	d215      	bcs.n	10001938 <divmod_s32s32_savestate>

1000190c <divmod_s32s32_unsafe>:
1000190c:	6690      	str	r0, [r2, #104]	@ 0x68
1000190e:	66d1      	str	r1, [r2, #108]	@ 0x6c
10001910:	2900      	cmp	r1, #0
10001912:	d005      	beq.n	10001920 <divmod_s32s32_unsafe+0x14>
10001914:	e7ff      	b.n	10001916 <divmod_s32s32_unsafe+0xa>
10001916:	e7ff      	b.n	10001918 <divmod_s32s32_unsafe+0xc>
10001918:	e7ff      	b.n	1000191a <divmod_s32s32_unsafe+0xe>
1000191a:	6f51      	ldr	r1, [r2, #116]	@ 0x74
1000191c:	6f10      	ldr	r0, [r2, #112]	@ 0x70
1000191e:	4770      	bx	lr
10001920:	b504      	push	{r2, lr}
10001922:	2180      	movs	r1, #128	@ 0x80
10001924:	0609      	lsls	r1, r1, #24
10001926:	17c2      	asrs	r2, r0, #31
10001928:	4051      	eors	r1, r2
1000192a:	2800      	cmp	r0, #0
1000192c:	d000      	beq.n	10001930 <divmod_s32s32_unsafe+0x24>
1000192e:	43c8      	mvns	r0, r1
10001930:	f005 f942 	bl	10006bb8 <____aeabi_idiv0_veneer>
10001934:	2100      	movs	r1, #0
10001936:	bd04      	pop	{r2, pc}

10001938 <divmod_s32s32_savestate>:
10001938:	b5f0      	push	{r4, r5, r6, r7, lr}
1000193a:	6e14      	ldr	r4, [r2, #96]	@ 0x60
1000193c:	6e55      	ldr	r5, [r2, #100]	@ 0x64
1000193e:	6f57      	ldr	r7, [r2, #116]	@ 0x74
10001940:	6f16      	ldr	r6, [r2, #112]	@ 0x70
10001942:	f7ff ffe3 	bl	1000190c <divmod_s32s32_unsafe>
10001946:	6614      	str	r4, [r2, #96]	@ 0x60
10001948:	6655      	str	r5, [r2, #100]	@ 0x64
1000194a:	6757      	str	r7, [r2, #116]	@ 0x74
1000194c:	6716      	str	r6, [r2, #112]	@ 0x70
1000194e:	bdf0      	pop	{r4, r5, r6, r7, pc}
10001950:	d0000000 	.word	0xd0000000

10001954 <__wrap___aeabi_uidiv>:
10001954:	4a11      	ldr	r2, [pc, #68]	@ (1000199c <divmod_u32u32_savestate+0x18>)
10001956:	6f93      	ldr	r3, [r2, #120]	@ 0x78
10001958:	089b      	lsrs	r3, r3, #2
1000195a:	d213      	bcs.n	10001984 <divmod_u32u32_savestate>

1000195c <divmod_u32u32_unsafe>:
1000195c:	6610      	str	r0, [r2, #96]	@ 0x60
1000195e:	6651      	str	r1, [r2, #100]	@ 0x64
10001960:	2900      	cmp	r1, #0
10001962:	d005      	beq.n	10001970 <divmod_u32u32_unsafe+0x14>
10001964:	e7ff      	b.n	10001966 <divmod_u32u32_unsafe+0xa>
10001966:	e7ff      	b.n	10001968 <divmod_u32u32_unsafe+0xc>
10001968:	e7ff      	b.n	1000196a <divmod_u32u32_unsafe+0xe>
1000196a:	6f51      	ldr	r1, [r2, #116]	@ 0x74
1000196c:	6f10      	ldr	r0, [r2, #112]	@ 0x70
1000196e:	4770      	bx	lr
10001970:	b504      	push	{r2, lr}
10001972:	2800      	cmp	r0, #0
10001974:	d001      	beq.n	1000197a <divmod_u32u32_unsafe+0x1e>
10001976:	2000      	movs	r0, #0
10001978:	43c0      	mvns	r0, r0
1000197a:	f005 f91d 	bl	10006bb8 <____aeabi_idiv0_veneer>
1000197e:	2100      	movs	r1, #0
10001980:	bd04      	pop	{r2, pc}
10001982:	46c0      	nop			@ (mov r8, r8)

10001984 <divmod_u32u32_savestate>:
10001984:	b5f0      	push	{r4, r5, r6, r7, lr}
10001986:	6e14      	ldr	r4, [r2, #96]	@ 0x60
10001988:	6e55      	ldr	r5, [r2, #100]	@ 0x64
1000198a:	6f57      	ldr	r7, [r2, #116]	@ 0x74
1000198c:	6f16      	ldr	r6, [r2, #112]	@ 0x70
1000198e:	f7ff ffe5 	bl	1000195c <divmod_u32u32_unsafe>
10001992:	6614      	str	r4, [r2, #96]	@ 0x60
10001994:	6655      	str	r5, [r2, #100]	@ 0x64
10001996:	6757      	str	r7, [r2, #116]	@ 0x74
10001998:	6716      	str	r6, [r2, #112]	@ 0x70
1000199a:	bdf0      	pop	{r4, r5, r6, r7, pc}
1000199c:	d0000000 	.word	0xd0000000

100019a0 <__wrap___aeabi_ldivmod>:
100019a0:	4694      	mov	ip, r2
100019a2:	4a4a      	ldr	r2, [pc, #296]	@ (10001acc <udiv0+0x1a>)
100019a4:	6f92      	ldr	r2, [r2, #120]	@ 0x78
100019a6:	0892      	lsrs	r2, r2, #2
100019a8:	4662      	mov	r2, ip
100019aa:	d201      	bcs.n	100019b0 <divmod_s64s64_savestate>
100019ac:	e028      	b.n	10001a00 <divmod_s64s64_unsafe>
100019ae:	46c0      	nop			@ (mov r8, r8)

100019b0 <divmod_s64s64_savestate>:
100019b0:	b5f0      	push	{r4, r5, r6, r7, lr}
100019b2:	4e46      	ldr	r6, [pc, #280]	@ (10001acc <udiv0+0x1a>)
100019b4:	6e34      	ldr	r4, [r6, #96]	@ 0x60
100019b6:	6e75      	ldr	r5, [r6, #100]	@ 0x64
100019b8:	6f77      	ldr	r7, [r6, #116]	@ 0x74
100019ba:	6f36      	ldr	r6, [r6, #112]	@ 0x70
100019bc:	f000 f820 	bl	10001a00 <divmod_s64s64_unsafe>
100019c0:	4694      	mov	ip, r2
100019c2:	4a42      	ldr	r2, [pc, #264]	@ (10001acc <udiv0+0x1a>)
100019c4:	6614      	str	r4, [r2, #96]	@ 0x60
100019c6:	6655      	str	r5, [r2, #100]	@ 0x64
100019c8:	6757      	str	r7, [r2, #116]	@ 0x74
100019ca:	6716      	str	r6, [r2, #112]	@ 0x70
100019cc:	4662      	mov	r2, ip
100019ce:	bdf0      	pop	{r4, r5, r6, r7, pc}

100019d0 <__wrap___aeabi_uldivmod>:
100019d0:	4694      	mov	ip, r2
100019d2:	4a3e      	ldr	r2, [pc, #248]	@ (10001acc <udiv0+0x1a>)
100019d4:	6f92      	ldr	r2, [r2, #120]	@ 0x78
100019d6:	0892      	lsrs	r2, r2, #2
100019d8:	4662      	mov	r2, ip
100019da:	d201      	bcs.n	100019e0 <divmod_u64u64_savestate>
100019dc:	e054      	b.n	10001a88 <divmod_u64u64_unsafe>
100019de:	46c0      	nop			@ (mov r8, r8)

100019e0 <divmod_u64u64_savestate>:
100019e0:	b5f0      	push	{r4, r5, r6, r7, lr}
100019e2:	4e3a      	ldr	r6, [pc, #232]	@ (10001acc <udiv0+0x1a>)
100019e4:	6e34      	ldr	r4, [r6, #96]	@ 0x60
100019e6:	6e75      	ldr	r5, [r6, #100]	@ 0x64
100019e8:	6f77      	ldr	r7, [r6, #116]	@ 0x74
100019ea:	6f36      	ldr	r6, [r6, #112]	@ 0x70
100019ec:	f000 f84c 	bl	10001a88 <divmod_u64u64_unsafe>
100019f0:	4694      	mov	ip, r2
100019f2:	4a36      	ldr	r2, [pc, #216]	@ (10001acc <udiv0+0x1a>)
100019f4:	6614      	str	r4, [r2, #96]	@ 0x60
100019f6:	6655      	str	r5, [r2, #100]	@ 0x64
100019f8:	6757      	str	r7, [r2, #116]	@ 0x74
100019fa:	6716      	str	r6, [r2, #112]	@ 0x70
100019fc:	4662      	mov	r2, ip
100019fe:	bdf0      	pop	{r4, r5, r6, r7, pc}

10001a00 <divmod_s64s64_unsafe>:
10001a00:	2b00      	cmp	r3, #0
10001a02:	db24      	blt.n	10001a4e <l42_1+0x26>
10001a04:	d011      	beq.n	10001a2a <l42_1+0x2>
10001a06:	2900      	cmp	r1, #0
10001a08:	da3e      	bge.n	10001a88 <divmod_u64u64_unsafe>
10001a0a:	b500      	push	{lr}
10001a0c:	43c9      	mvns	r1, r1
10001a0e:	4240      	negs	r0, r0
10001a10:	d100      	bne.n	10001a14 <l40_1>
10001a12:	3101      	adds	r1, #1

10001a14 <l40_1>:
10001a14:	f000 f838 	bl	10001a88 <divmod_u64u64_unsafe>
10001a18:	43c9      	mvns	r1, r1
10001a1a:	4240      	negs	r0, r0
10001a1c:	d100      	bne.n	10001a20 <l41_1>
10001a1e:	3101      	adds	r1, #1

10001a20 <l41_1>:
10001a20:	43db      	mvns	r3, r3
10001a22:	4252      	negs	r2, r2
10001a24:	d100      	bne.n	10001a28 <l42_1>
10001a26:	3301      	adds	r3, #1

10001a28 <l42_1>:
10001a28:	bd00      	pop	{pc}
10001a2a:	2a00      	cmp	r2, #0
10001a2c:	d1eb      	bne.n	10001a06 <divmod_s64s64_unsafe+0x6>
10001a2e:	2800      	cmp	r0, #0
10001a30:	d101      	bne.n	10001a36 <l42_1+0xe>
10001a32:	2900      	cmp	r1, #0
10001a34:	d005      	beq.n	10001a42 <l42_1+0x1a>
10001a36:	2000      	movs	r0, #0
10001a38:	0fc9      	lsrs	r1, r1, #31
10001a3a:	07c9      	lsls	r1, r1, #31
10001a3c:	d101      	bne.n	10001a42 <l42_1+0x1a>
10001a3e:	43c0      	mvns	r0, r0
10001a40:	0841      	lsrs	r1, r0, #1
10001a42:	b500      	push	{lr}
10001a44:	f005 f8a8 	bl	10006b98 <____aeabi_ldiv0_veneer>
10001a48:	2200      	movs	r2, #0
10001a4a:	2300      	movs	r3, #0
10001a4c:	bd00      	pop	{pc}
10001a4e:	b500      	push	{lr}
10001a50:	2900      	cmp	r1, #0
10001a52:	db0a      	blt.n	10001a6a <l44_1+0x2>
10001a54:	43db      	mvns	r3, r3
10001a56:	4252      	negs	r2, r2
10001a58:	d100      	bne.n	10001a5c <l43_1>
10001a5a:	3301      	adds	r3, #1

10001a5c <l43_1>:
10001a5c:	f000 f814 	bl	10001a88 <divmod_u64u64_unsafe>
10001a60:	43c9      	mvns	r1, r1
10001a62:	4240      	negs	r0, r0
10001a64:	d100      	bne.n	10001a68 <l44_1>
10001a66:	3101      	adds	r1, #1

10001a68 <l44_1>:
10001a68:	bd00      	pop	{pc}
10001a6a:	43c9      	mvns	r1, r1
10001a6c:	4240      	negs	r0, r0
10001a6e:	d100      	bne.n	10001a72 <l45_1>
10001a70:	3101      	adds	r1, #1

10001a72 <l45_1>:
10001a72:	43db      	mvns	r3, r3
10001a74:	4252      	negs	r2, r2
10001a76:	d100      	bne.n	10001a7a <l46_1>
10001a78:	3301      	adds	r3, #1

10001a7a <l46_1>:
10001a7a:	f000 f805 	bl	10001a88 <divmod_u64u64_unsafe>
10001a7e:	43db      	mvns	r3, r3
10001a80:	4252      	negs	r2, r2
10001a82:	d100      	bne.n	10001a86 <l47_1>
10001a84:	3301      	adds	r3, #1

10001a86 <l47_1>:
10001a86:	bd00      	pop	{pc}

10001a88 <divmod_u64u64_unsafe>:
10001a88:	2900      	cmp	r1, #0
10001a8a:	d123      	bne.n	10001ad4 <y64>
10001a8c:	2b00      	cmp	r3, #0
10001a8e:	d118      	bne.n	10001ac2 <udiv0+0x10>
10001a90:	2a00      	cmp	r2, #0
10001a92:	d00c      	beq.n	10001aae <divmod_u64u64_unsafe+0x26>
10001a94:	46bc      	mov	ip, r7
10001a96:	4f0d      	ldr	r7, [pc, #52]	@ (10001acc <udiv0+0x1a>)
10001a98:	6638      	str	r0, [r7, #96]	@ 0x60
10001a9a:	667a      	str	r2, [r7, #100]	@ 0x64
10001a9c:	2100      	movs	r1, #0
10001a9e:	2300      	movs	r3, #0
10001aa0:	e7ff      	b.n	10001aa2 <divmod_u64u64_unsafe+0x1a>
10001aa2:	e7ff      	b.n	10001aa4 <divmod_u64u64_unsafe+0x1c>
10001aa4:	e7ff      	b.n	10001aa6 <divmod_u64u64_unsafe+0x1e>
10001aa6:	6f7a      	ldr	r2, [r7, #116]	@ 0x74
10001aa8:	6f38      	ldr	r0, [r7, #112]	@ 0x70
10001aaa:	4667      	mov	r7, ip
10001aac:	4770      	bx	lr
10001aae:	2800      	cmp	r0, #0
10001ab0:	d001      	beq.n	10001ab6 <udiv0+0x4>

10001ab2 <udiv0>:
10001ab2:	4807      	ldr	r0, [pc, #28]	@ (10001ad0 <udiv0+0x1e>)
10001ab4:	0001      	movs	r1, r0
10001ab6:	b500      	push	{lr}
10001ab8:	f005 f86e 	bl	10006b98 <____aeabi_ldiv0_veneer>
10001abc:	2200      	movs	r2, #0
10001abe:	2300      	movs	r3, #0
10001ac0:	bd00      	pop	{pc}
10001ac2:	0002      	movs	r2, r0
10001ac4:	000b      	movs	r3, r1
10001ac6:	2000      	movs	r0, #0
10001ac8:	2100      	movs	r1, #0
10001aca:	4770      	bx	lr
10001acc:	d0000000 	.word	0xd0000000
10001ad0:	ffffffff 	.word	0xffffffff

10001ad4 <y64>:
10001ad4:	2b00      	cmp	r3, #0
10001ad6:	d000      	beq.n	10001ada <y64+0x6>
10001ad8:	e0bf      	b.n	10001c5a <y64_x48>
10001ada:	0c13      	lsrs	r3, r2, #16
10001adc:	d128      	bne.n	10001b30 <y64_x32>
10001ade:	2a00      	cmp	r2, #0
10001ae0:	d0e7      	beq.n	10001ab2 <udiv0>
10001ae2:	b480      	push	{r7}
10001ae4:	4f11      	ldr	r7, [pc, #68]	@ (10001b2c <y64+0x58>)
10001ae6:	6639      	str	r1, [r7, #96]	@ 0x60
10001ae8:	667a      	str	r2, [r7, #100]	@ 0x64
10001aea:	e7ff      	b.n	10001aec <y64+0x18>
10001aec:	e7ff      	b.n	10001aee <y64+0x1a>
10001aee:	b430      	push	{r4, r5}
10001af0:	0c04      	lsrs	r4, r0, #16
10001af2:	6f7b      	ldr	r3, [r7, #116]	@ 0x74
10001af4:	6f39      	ldr	r1, [r7, #112]	@ 0x70
10001af6:	041b      	lsls	r3, r3, #16
10001af8:	4323      	orrs	r3, r4
10001afa:	663b      	str	r3, [r7, #96]	@ 0x60
10001afc:	667a      	str	r2, [r7, #100]	@ 0x64
10001afe:	e7ff      	b.n	10001b00 <y64+0x2c>
10001b00:	e7ff      	b.n	10001b02 <y64+0x2e>
10001b02:	e7ff      	b.n	10001b04 <y64+0x30>
10001b04:	46c0      	nop			@ (mov r8, r8)
10001b06:	b284      	uxth	r4, r0
10001b08:	6f7b      	ldr	r3, [r7, #116]	@ 0x74
10001b0a:	6f3d      	ldr	r5, [r7, #112]	@ 0x70
10001b0c:	041b      	lsls	r3, r3, #16
10001b0e:	4323      	orrs	r3, r4
10001b10:	663b      	str	r3, [r7, #96]	@ 0x60
10001b12:	667a      	str	r2, [r7, #100]	@ 0x64
10001b14:	e7ff      	b.n	10001b16 <y64+0x42>
10001b16:	e7ff      	b.n	10001b18 <y64+0x44>
10001b18:	46c0      	nop			@ (mov r8, r8)
10001b1a:	2300      	movs	r3, #0
10001b1c:	042c      	lsls	r4, r5, #16
10001b1e:	0c2d      	lsrs	r5, r5, #16
10001b20:	6f7a      	ldr	r2, [r7, #116]	@ 0x74
10001b22:	6f38      	ldr	r0, [r7, #112]	@ 0x70
10001b24:	1900      	adds	r0, r0, r4
10001b26:	4169      	adcs	r1, r5
10001b28:	bcb0      	pop	{r4, r5, r7}
10001b2a:	4770      	bx	lr
10001b2c:	d0000000 	.word	0xd0000000

10001b30 <y64_x32>:
10001b30:	b5f0      	push	{r4, r5, r6, r7, lr}
10001b32:	4694      	mov	ip, r2
10001b34:	2500      	movs	r5, #0
10001b36:	0e14      	lsrs	r4, r2, #24
10001b38:	d101      	bne.n	10001b3e <y64_x32+0xe>
10001b3a:	0212      	lsls	r2, r2, #8
10001b3c:	3508      	adds	r5, #8
10001b3e:	0f14      	lsrs	r4, r2, #28
10001b40:	d101      	bne.n	10001b46 <y64_x32+0x16>
10001b42:	0112      	lsls	r2, r2, #4
10001b44:	3504      	adds	r5, #4
10001b46:	0f94      	lsrs	r4, r2, #30
10001b48:	d101      	bne.n	10001b4e <y64_x32+0x1e>
10001b4a:	0092      	lsls	r2, r2, #2
10001b4c:	3502      	adds	r5, #2
10001b4e:	0fd4      	lsrs	r4, r2, #31
10001b50:	d101      	bne.n	10001b56 <y64_x32+0x26>
10001b52:	0052      	lsls	r2, r2, #1
10001b54:	3501      	adds	r5, #1
10001b56:	0bd4      	lsrs	r4, r2, #15
10001b58:	3401      	adds	r4, #1
10001b5a:	4f25      	ldr	r7, [pc, #148]	@ (10001bf0 <y64_x32+0xc0>)
10001b5c:	667c      	str	r4, [r7, #100]	@ 0x64
10001b5e:	4c25      	ldr	r4, [pc, #148]	@ (10001bf4 <y64_x32+0xc4>)
10001b60:	663c      	str	r4, [r7, #96]	@ 0x60
10001b62:	0c0e      	lsrs	r6, r1, #16
10001b64:	b293      	uxth	r3, r2
10001b66:	e7ff      	b.n	10001b68 <y64_x32+0x38>
10001b68:	e7ff      	b.n	10001b6a <y64_x32+0x3a>
10001b6a:	e7ff      	b.n	10001b6c <y64_x32+0x3c>
10001b6c:	6f3c      	ldr	r4, [r7, #112]	@ 0x70
10001b6e:	4366      	muls	r6, r4
10001b70:	0c36      	lsrs	r6, r6, #16
10001b72:	0377      	lsls	r7, r6, #13
10001b74:	46be      	mov	lr, r7
10001b76:	4373      	muls	r3, r6
10001b78:	0bdf      	lsrs	r7, r3, #15
10001b7a:	045b      	lsls	r3, r3, #17
10001b7c:	1ac0      	subs	r0, r0, r3
10001b7e:	41b9      	sbcs	r1, r7
10001b80:	0c13      	lsrs	r3, r2, #16
10001b82:	4373      	muls	r3, r6
10001b84:	18db      	adds	r3, r3, r3
10001b86:	1ac9      	subs	r1, r1, r3
10001b88:	08ce      	lsrs	r6, r1, #3
10001b8a:	4366      	muls	r6, r4
10001b8c:	0c36      	lsrs	r6, r6, #16
10001b8e:	44b6      	add	lr, r6
10001b90:	b293      	uxth	r3, r2
10001b92:	4373      	muls	r3, r6
10001b94:	0f1f      	lsrs	r7, r3, #28
10001b96:	011b      	lsls	r3, r3, #4
10001b98:	1ac0      	subs	r0, r0, r3
10001b9a:	41b9      	sbcs	r1, r7
10001b9c:	0c13      	lsrs	r3, r2, #16
10001b9e:	4373      	muls	r3, r6
10001ba0:	0b1f      	lsrs	r7, r3, #12
10001ba2:	051b      	lsls	r3, r3, #20
10001ba4:	1ac0      	subs	r0, r0, r3
10001ba6:	41b9      	sbcs	r1, r7
10001ba8:	0d86      	lsrs	r6, r0, #22
10001baa:	028f      	lsls	r7, r1, #10
10001bac:	433e      	orrs	r6, r7
10001bae:	4366      	muls	r6, r4
10001bb0:	0c36      	lsrs	r6, r6, #16
10001bb2:	2d09      	cmp	r5, #9
10001bb4:	db24      	blt.n	10001c00 <last0>
10001bb6:	0a52      	lsrs	r2, r2, #9
10001bb8:	4372      	muls	r2, r6
10001bba:	1a80      	subs	r0, r0, r2
10001bbc:	0377      	lsls	r7, r6, #13
10001bbe:	0a46      	lsrs	r6, r0, #9
10001bc0:	4366      	muls	r6, r4
10001bc2:	0c36      	lsrs	r6, r6, #16
10001bc4:	2316      	movs	r3, #22
10001bc6:	1b5b      	subs	r3, r3, r5
10001bc8:	40de      	lsrs	r6, r3
10001bca:	40df      	lsrs	r7, r3
10001bcc:	19bf      	adds	r7, r7, r6
10001bce:	4664      	mov	r4, ip
10001bd0:	4366      	muls	r6, r4
10001bd2:	1b82      	subs	r2, r0, r6
10001bd4:	4670      	mov	r0, lr
10001bd6:	3504      	adds	r5, #4
10001bd8:	3306      	adds	r3, #6
10001bda:	0001      	movs	r1, r0
10001bdc:	40d9      	lsrs	r1, r3
10001bde:	40a8      	lsls	r0, r5
10001be0:	19c0      	adds	r0, r0, r7
10001be2:	d300      	bcc.n	10001be6 <y64_x32+0xb6>
10001be4:	3101      	adds	r1, #1
10001be6:	42a2      	cmp	r2, r4
10001be8:	d206      	bcs.n	10001bf8 <y64_x32+0xc8>
10001bea:	2300      	movs	r3, #0
10001bec:	bdf0      	pop	{r4, r5, r6, r7, pc}
10001bee:	0000      	.short	0x0000
10001bf0:	d0000000 	.word	0xd0000000
10001bf4:	ffffffff 	.word	0xffffffff
10001bf8:	1b12      	subs	r2, r2, r4
10001bfa:	3001      	adds	r0, #1
10001bfc:	d3f3      	bcc.n	10001be6 <y64_x32+0xb6>
10001bfe:	e7f1      	b.n	10001be4 <y64_x32+0xb4>

10001c00 <last0>:
10001c00:	2709      	movs	r7, #9
10001c02:	1b7f      	subs	r7, r7, r5
10001c04:	40fe      	lsrs	r6, r7
10001c06:	4664      	mov	r4, ip
10001c08:	b2a2      	uxth	r2, r4
10001c0a:	4372      	muls	r2, r6
10001c0c:	1a80      	subs	r0, r0, r2
10001c0e:	d200      	bcs.n	10001c12 <last0+0x12>
10001c10:	3901      	subs	r1, #1
10001c12:	0c22      	lsrs	r2, r4, #16
10001c14:	4372      	muls	r2, r6
10001c16:	0c13      	lsrs	r3, r2, #16
10001c18:	0412      	lsls	r2, r2, #16
10001c1a:	1a82      	subs	r2, r0, r2
10001c1c:	4199      	sbcs	r1, r3
10001c1e:	000b      	movs	r3, r1
10001c20:	4670      	mov	r0, lr
10001c22:	3504      	adds	r5, #4
10001c24:	3713      	adds	r7, #19
10001c26:	0001      	movs	r1, r0
10001c28:	40f9      	lsrs	r1, r7
10001c2a:	40a8      	lsls	r0, r5
10001c2c:	1980      	adds	r0, r0, r6
10001c2e:	d300      	bcc.n	10001c32 <last0+0x32>
10001c30:	3101      	adds	r1, #1
10001c32:	2b00      	cmp	r3, #0
10001c34:	d102      	bne.n	10001c3c <last0+0x3c>
10001c36:	42a2      	cmp	r2, r4
10001c38:	d20a      	bcs.n	10001c50 <last0+0x50>
10001c3a:	bdf0      	pop	{r4, r5, r6, r7, pc}
10001c3c:	3001      	adds	r0, #1
10001c3e:	d300      	bcc.n	10001c42 <last0+0x42>
10001c40:	3101      	adds	r1, #1
10001c42:	1b12      	subs	r2, r2, r4
10001c44:	d2fa      	bcs.n	10001c3c <last0+0x3c>
10001c46:	3b01      	subs	r3, #1
10001c48:	d1f8      	bne.n	10001c3c <last0+0x3c>
10001c4a:	42a2      	cmp	r2, r4
10001c4c:	d200      	bcs.n	10001c50 <last0+0x50>
10001c4e:	bdf0      	pop	{r4, r5, r6, r7, pc}
10001c50:	3001      	adds	r0, #1
10001c52:	d300      	bcc.n	10001c56 <last0+0x56>
10001c54:	3101      	adds	r1, #1
10001c56:	1b12      	subs	r2, r2, r4
10001c58:	e7f7      	b.n	10001c4a <last0+0x4a>

10001c5a <y64_x48>:
10001c5a:	b5f0      	push	{r4, r5, r6, r7, lr}
10001c5c:	0c1c      	lsrs	r4, r3, #16
10001c5e:	d000      	beq.n	10001c62 <y64_x48+0x8>
10001c60:	e080      	b.n	10001d64 <y64_x64>
10001c62:	b40c      	push	{r2, r3}
10001c64:	2500      	movs	r5, #0
10001c66:	0a1c      	lsrs	r4, r3, #8
10001c68:	d104      	bne.n	10001c74 <y64_x48+0x1a>
10001c6a:	021b      	lsls	r3, r3, #8
10001c6c:	0e16      	lsrs	r6, r2, #24
10001c6e:	4333      	orrs	r3, r6
10001c70:	0212      	lsls	r2, r2, #8
10001c72:	3508      	adds	r5, #8
10001c74:	0b1c      	lsrs	r4, r3, #12
10001c76:	d104      	bne.n	10001c82 <y64_x48+0x28>
10001c78:	011b      	lsls	r3, r3, #4
10001c7a:	0f16      	lsrs	r6, r2, #28
10001c7c:	4333      	orrs	r3, r6
10001c7e:	0112      	lsls	r2, r2, #4
10001c80:	3504      	adds	r5, #4
10001c82:	0b9c      	lsrs	r4, r3, #14
10001c84:	d104      	bne.n	10001c90 <y64_x48+0x36>
10001c86:	009b      	lsls	r3, r3, #2
10001c88:	0f96      	lsrs	r6, r2, #30
10001c8a:	4333      	orrs	r3, r6
10001c8c:	0092      	lsls	r2, r2, #2
10001c8e:	3502      	adds	r5, #2
10001c90:	0bdc      	lsrs	r4, r3, #15
10001c92:	d102      	bne.n	10001c9a <y64_x48+0x40>
10001c94:	1892      	adds	r2, r2, r2
10001c96:	415b      	adcs	r3, r3
10001c98:	3501      	adds	r5, #1
10001c9a:	001c      	movs	r4, r3
10001c9c:	1897      	adds	r7, r2, r2
10001c9e:	4164      	adcs	r4, r4
10001ca0:	3401      	adds	r4, #1
10001ca2:	4f46      	ldr	r7, [pc, #280]	@ (10001dbc <y64_x64+0x58>)
10001ca4:	667c      	str	r4, [r7, #100]	@ 0x64
10001ca6:	4c46      	ldr	r4, [pc, #280]	@ (10001dc0 <y64_x64+0x5c>)
10001ca8:	663c      	str	r4, [r7, #96]	@ 0x60
10001caa:	0c0e      	lsrs	r6, r1, #16
10001cac:	e7ff      	b.n	10001cae <y64_x48+0x54>
10001cae:	e7ff      	b.n	10001cb0 <y64_x48+0x56>
10001cb0:	e7ff      	b.n	10001cb2 <y64_x48+0x58>
10001cb2:	46c0      	nop			@ (mov r8, r8)
10001cb4:	6f3c      	ldr	r4, [r7, #112]	@ 0x70
10001cb6:	4366      	muls	r6, r4
10001cb8:	0c36      	lsrs	r6, r6, #16
10001cba:	0377      	lsls	r7, r6, #13
10001cbc:	46be      	mov	lr, r7
10001cbe:	b297      	uxth	r7, r2
10001cc0:	4377      	muls	r7, r6
10001cc2:	1bc0      	subs	r0, r0, r7
10001cc4:	d200      	bcs.n	10001cc8 <y64_x48+0x6e>
10001cc6:	3901      	subs	r1, #1
10001cc8:	1bc0      	subs	r0, r0, r7
10001cca:	d200      	bcs.n	10001cce <y64_x48+0x74>
10001ccc:	3901      	subs	r1, #1
10001cce:	b29f      	uxth	r7, r3
10001cd0:	4377      	muls	r7, r6
10001cd2:	1bc9      	subs	r1, r1, r7
10001cd4:	1bc9      	subs	r1, r1, r7
10001cd6:	0c17      	lsrs	r7, r2, #16
10001cd8:	4377      	muls	r7, r6
10001cda:	047e      	lsls	r6, r7, #17
10001cdc:	0bff      	lsrs	r7, r7, #15
10001cde:	1b80      	subs	r0, r0, r6
10001ce0:	41b9      	sbcs	r1, r7
10001ce2:	08ce      	lsrs	r6, r1, #3
10001ce4:	4366      	muls	r6, r4
10001ce6:	0c36      	lsrs	r6, r6, #16
10001ce8:	2d0c      	cmp	r5, #12
10001cea:	db33      	blt.n	10001d54 <last1>
10001cec:	44b6      	add	lr, r6
10001cee:	0b12      	lsrs	r2, r2, #12
10001cf0:	051f      	lsls	r7, r3, #20
10001cf2:	433a      	orrs	r2, r7
10001cf4:	0b1b      	lsrs	r3, r3, #12
10001cf6:	b297      	uxth	r7, r2
10001cf8:	4377      	muls	r7, r6
10001cfa:	1bc0      	subs	r0, r0, r7
10001cfc:	d200      	bcs.n	10001d00 <y64_x48+0xa6>
10001cfe:	3901      	subs	r1, #1
10001d00:	b29f      	uxth	r7, r3
10001d02:	4377      	muls	r7, r6
10001d04:	1bc9      	subs	r1, r1, r7
10001d06:	0c17      	lsrs	r7, r2, #16
10001d08:	4377      	muls	r7, r6
10001d0a:	043e      	lsls	r6, r7, #16
10001d0c:	0c3f      	lsrs	r7, r7, #16
10001d0e:	1b80      	subs	r0, r0, r6
10001d10:	41b9      	sbcs	r1, r7
10001d12:	0d86      	lsrs	r6, r0, #22
10001d14:	028f      	lsls	r7, r1, #10
10001d16:	433e      	orrs	r6, r7
10001d18:	4366      	muls	r6, r4
10001d1a:	2729      	movs	r7, #41	@ 0x29
10001d1c:	1b7f      	subs	r7, r7, r5
10001d1e:	40fe      	lsrs	r6, r7
10001d20:	3d0c      	subs	r5, #12
10001d22:	4677      	mov	r7, lr
10001d24:	40af      	lsls	r7, r5
10001d26:	19bf      	adds	r7, r7, r6
10001d28:	bc30      	pop	{r4, r5}
10001d2a:	b2a2      	uxth	r2, r4
10001d2c:	b2ab      	uxth	r3, r5
10001d2e:	4372      	muls	r2, r6
10001d30:	4373      	muls	r3, r6
10001d32:	1a80      	subs	r0, r0, r2
10001d34:	4199      	sbcs	r1, r3
10001d36:	0c22      	lsrs	r2, r4, #16
10001d38:	4372      	muls	r2, r6
10001d3a:	0c13      	lsrs	r3, r2, #16
10001d3c:	0412      	lsls	r2, r2, #16
10001d3e:	1a80      	subs	r0, r0, r2
10001d40:	4199      	sbcs	r1, r3
10001d42:	0002      	movs	r2, r0
10001d44:	000b      	movs	r3, r1
10001d46:	3701      	adds	r7, #1
10001d48:	1b00      	subs	r0, r0, r4
10001d4a:	41a9      	sbcs	r1, r5
10001d4c:	d2f9      	bcs.n	10001d42 <y64_x48+0xe8>
10001d4e:	1e78      	subs	r0, r7, #1
10001d50:	2100      	movs	r1, #0
10001d52:	bdf0      	pop	{r4, r5, r6, r7, pc}

10001d54 <last1>:
10001d54:	270c      	movs	r7, #12
10001d56:	1b7f      	subs	r7, r7, r5
10001d58:	40fe      	lsrs	r6, r7
10001d5a:	4677      	mov	r7, lr
10001d5c:	0b7f      	lsrs	r7, r7, #13
10001d5e:	40af      	lsls	r7, r5
10001d60:	19ff      	adds	r7, r7, r7
10001d62:	e7e0      	b.n	10001d26 <y64_x48+0xcc>

10001d64 <y64_x64>:
10001d64:	2400      	movs	r4, #0
10001d66:	1c5d      	adds	r5, r3, #1
10001d68:	d007      	beq.n	10001d7a <y64_x64+0x16>
10001d6a:	4f14      	ldr	r7, [pc, #80]	@ (10001dbc <y64_x64+0x58>)
10001d6c:	667d      	str	r5, [r7, #100]	@ 0x64
10001d6e:	6639      	str	r1, [r7, #96]	@ 0x60
10001d70:	e7ff      	b.n	10001d72 <y64_x64+0xe>
10001d72:	e7ff      	b.n	10001d74 <y64_x64+0x10>
10001d74:	e7ff      	b.n	10001d76 <y64_x64+0x12>
10001d76:	e7ff      	b.n	10001d78 <y64_x64+0x14>
10001d78:	6f3c      	ldr	r4, [r7, #112]	@ 0x70
10001d7a:	b295      	uxth	r5, r2
10001d7c:	b29e      	uxth	r6, r3
10001d7e:	4365      	muls	r5, r4
10001d80:	4366      	muls	r6, r4
10001d82:	1b40      	subs	r0, r0, r5
10001d84:	41b1      	sbcs	r1, r6
10001d86:	0c15      	lsrs	r5, r2, #16
10001d88:	0c1e      	lsrs	r6, r3, #16
10001d8a:	4365      	muls	r5, r4
10001d8c:	4366      	muls	r6, r4
10001d8e:	0436      	lsls	r6, r6, #16
10001d90:	0c2f      	lsrs	r7, r5, #16
10001d92:	433e      	orrs	r6, r7
10001d94:	042d      	lsls	r5, r5, #16
10001d96:	1b40      	subs	r0, r0, r5
10001d98:	41b1      	sbcs	r1, r6
10001d9a:	4299      	cmp	r1, r3
10001d9c:	d204      	bcs.n	10001da8 <y64_x64+0x44>
10001d9e:	0002      	movs	r2, r0
10001da0:	000b      	movs	r3, r1
10001da2:	0020      	movs	r0, r4
10001da4:	2100      	movs	r1, #0
10001da6:	bdf0      	pop	{r4, r5, r6, r7, pc}
10001da8:	d101      	bne.n	10001dae <y64_x64+0x4a>
10001daa:	4290      	cmp	r0, r2
10001dac:	d3f7      	bcc.n	10001d9e <y64_x64+0x3a>
10001dae:	1a80      	subs	r0, r0, r2
10001db0:	4199      	sbcs	r1, r3
10001db2:	3401      	adds	r4, #1
10001db4:	4299      	cmp	r1, r3
10001db6:	d3f2      	bcc.n	10001d9e <y64_x64+0x3a>
10001db8:	e7f6      	b.n	10001da8 <y64_x64+0x44>
10001dba:	0000      	.short	0x0000
10001dbc:	d0000000 	.word	0xd0000000
10001dc0:	ffffffff 	.word	0xffffffff

10001dc4 <__wrap___aeabi_drsub>:
10001dc4:	4048      	eors	r0, r1
10001dc6:	4041      	eors	r1, r0
10001dc8:	4048      	eors	r0, r1

10001dca <__wrap___aeabi_dsub>:
10001dca:	b418      	push	{r3, r4}
10001dcc:	4b1b      	ldr	r3, [pc, #108]	@ (10001e3c <__wrap___aeabi_dmul+0x12>)
10001dce:	685b      	ldr	r3, [r3, #4]
10001dd0:	46fc      	mov	ip, pc
10001dd2:	9301      	str	r3, [sp, #4]
10001dd4:	bd08      	pop	{r3, pc}
10001dd6:	df04      	.short	0xdf04
10001dd8:	1000205f 	.word	0x1000205f

10001ddc <__wrap___aeabi_dadd>:
10001ddc:	b418      	push	{r3, r4}
10001dde:	4b17      	ldr	r3, [pc, #92]	@ (10001e3c <__wrap___aeabi_dmul+0x12>)
10001de0:	681b      	ldr	r3, [r3, #0]
10001de2:	46fc      	mov	ip, pc
10001de4:	9301      	str	r3, [sp, #4]
10001de6:	bd08      	pop	{r3, pc}
10001de8:	2069df00 	.word	0x2069df00
10001dec:	1000      	.short	0x1000

10001dee <__wrap___aeabi_ddiv>:
10001dee:	4694      	mov	ip, r2
10001df0:	4a13      	ldr	r2, [pc, #76]	@ (10001e40 <__wrap___aeabi_dmul+0x16>)
10001df2:	6f92      	ldr	r2, [r2, #120]	@ 0x78
10001df4:	0892      	lsrs	r2, r2, #2
10001df6:	d209      	bcs.n	10001e0c <ddiv_save_state>
10001df8:	4662      	mov	r2, ip

10001dfa <ddiv_shim_call>:
10001dfa:	b418      	push	{r3, r4}
10001dfc:	4b0f      	ldr	r3, [pc, #60]	@ (10001e3c <__wrap___aeabi_dmul+0x12>)
10001dfe:	68db      	ldr	r3, [r3, #12]
10001e00:	46fc      	mov	ip, pc
10001e02:	9301      	str	r3, [sp, #4]
10001e04:	bd08      	pop	{r3, pc}
10001e06:	df0c      	.short	0xdf0c
10001e08:	10002321 	.word	0x10002321

10001e0c <ddiv_save_state>:
10001e0c:	4a0c      	ldr	r2, [pc, #48]	@ (10001e40 <__wrap___aeabi_dmul+0x16>)
10001e0e:	b5f0      	push	{r4, r5, r6, r7, lr}
10001e10:	6e14      	ldr	r4, [r2, #96]	@ 0x60
10001e12:	6e55      	ldr	r5, [r2, #100]	@ 0x64
10001e14:	6f57      	ldr	r7, [r2, #116]	@ 0x74
10001e16:	6f16      	ldr	r6, [r2, #112]	@ 0x70
10001e18:	4662      	mov	r2, ip
10001e1a:	f7ff ffee 	bl	10001dfa <ddiv_shim_call>
10001e1e:	4a08      	ldr	r2, [pc, #32]	@ (10001e40 <__wrap___aeabi_dmul+0x16>)
10001e20:	6614      	str	r4, [r2, #96]	@ 0x60
10001e22:	6655      	str	r5, [r2, #100]	@ 0x64
10001e24:	6757      	str	r7, [r2, #116]	@ 0x74
10001e26:	6716      	str	r6, [r2, #112]	@ 0x70
10001e28:	bdf0      	pop	{r4, r5, r6, r7, pc}

10001e2a <__wrap___aeabi_dmul>:
10001e2a:	b418      	push	{r3, r4}
10001e2c:	4b03      	ldr	r3, [pc, #12]	@ (10001e3c <__wrap___aeabi_dmul+0x12>)
10001e2e:	689b      	ldr	r3, [r3, #8]
10001e30:	46fc      	mov	ip, pc
10001e32:	9301      	str	r3, [sp, #4]
10001e34:	bd08      	pop	{r3, pc}
10001e36:	df08      	.short	0xdf08
10001e38:	100021c5 	.word	0x100021c5
10001e3c:	200014b0 	.word	0x200014b0
10001e40:	d0000000 	.word	0xd0000000

10001e44 <__wrap___aeabi_cdrcmple>:
10001e44:	b5ff      	push	{r0, r1, r2, r3, r4, r5, r6, r7, lr}
10001e46:	4050      	eors	r0, r2
10001e48:	4042      	eors	r2, r0
10001e4a:	4050      	eors	r0, r2
10001e4c:	4059      	eors	r1, r3
10001e4e:	404b      	eors	r3, r1
10001e50:	4059      	eors	r1, r3
10001e52:	e000      	b.n	10001e56 <__aeabi_dfcmple_guts>

10001e54 <__wrap___aeabi_cdcmpeq>:
10001e54:	b5ff      	push	{r0, r1, r2, r3, r4, r5, r6, r7, lr}

10001e56 <__aeabi_dfcmple_guts>:
10001e56:	4f15      	ldr	r7, [pc, #84]	@ (10001eac <__aeabi_dfcmple_guts+0x56>)
10001e58:	004c      	lsls	r4, r1, #1
10001e5a:	0d64      	lsrs	r4, r4, #21
10001e5c:	d003      	beq.n	10001e66 <__aeabi_dfcmple_guts+0x10>
10001e5e:	42bc      	cmp	r4, r7
10001e60:	d104      	bne.n	10001e6c <__aeabi_dfcmple_guts+0x16>
10001e62:	030c      	lsls	r4, r1, #12
10001e64:	d814      	bhi.n	10001e90 <__aeabi_dfcmple_guts+0x3a>
10001e66:	2000      	movs	r0, #0
10001e68:	0d09      	lsrs	r1, r1, #20
10001e6a:	0509      	lsls	r1, r1, #20
10001e6c:	005c      	lsls	r4, r3, #1
10001e6e:	0d64      	lsrs	r4, r4, #21
10001e70:	d003      	beq.n	10001e7a <__aeabi_dfcmple_guts+0x24>
10001e72:	42bc      	cmp	r4, r7
10001e74:	d104      	bne.n	10001e80 <__aeabi_dfcmple_guts+0x2a>
10001e76:	031c      	lsls	r4, r3, #12
10001e78:	d80a      	bhi.n	10001e90 <__aeabi_dfcmple_guts+0x3a>
10001e7a:	2200      	movs	r2, #0
10001e7c:	0d1b      	lsrs	r3, r3, #20
10001e7e:	051b      	lsls	r3, r3, #20
10001e80:	2601      	movs	r6, #1
10001e82:	404b      	eors	r3, r1
10001e84:	d409      	bmi.n	10001e9a <__aeabi_dfcmple_guts+0x44>
10001e86:	404b      	eors	r3, r1
10001e88:	d503      	bpl.n	10001e92 <__aeabi_dfcmple_guts+0x3c>
10001e8a:	428b      	cmp	r3, r1
10001e8c:	d100      	bne.n	10001e90 <__aeabi_dfcmple_guts+0x3a>
10001e8e:	4282      	cmp	r2, r0
10001e90:	bdff      	pop	{r0, r1, r2, r3, r4, r5, r6, r7, pc}
10001e92:	4299      	cmp	r1, r3
10001e94:	d1fc      	bne.n	10001e90 <__aeabi_dfcmple_guts+0x3a>
10001e96:	4290      	cmp	r0, r2
10001e98:	bdff      	pop	{r0, r1, r2, r3, r4, r5, r6, r7, pc}
10001e9a:	430b      	orrs	r3, r1
10001e9c:	18db      	adds	r3, r3, r3
10001e9e:	4303      	orrs	r3, r0
10001ea0:	4313      	orrs	r3, r2
10001ea2:	d0f5      	beq.n	10001e90 <__aeabi_dfcmple_guts+0x3a>
10001ea4:	43c9      	mvns	r1, r1
10001ea6:	1849      	adds	r1, r1, r1
10001ea8:	bdff      	pop	{r0, r1, r2, r3, r4, r5, r6, r7, pc}
10001eaa:	0000      	.short	0x0000
10001eac:	000007ff 	.word	0x000007ff

10001eb0 <__wrap___aeabi_dcmplt>:
10001eb0:	b500      	push	{lr}
10001eb2:	f7ff ffcf 	bl	10001e54 <__wrap___aeabi_cdcmpeq>
10001eb6:	4180      	sbcs	r0, r0
10001eb8:	bd00      	pop	{pc}
10001eba:	46c0      	nop			@ (mov r8, r8)

10001ebc <__wrap___aeabi_dcmpge>:
10001ebc:	b500      	push	{lr}
10001ebe:	f7ff ffc1 	bl	10001e44 <__wrap___aeabi_cdrcmple>
10001ec2:	d901      	bls.n	10001ec8 <__wrap___aeabi_dcmpge+0xc>
10001ec4:	2000      	movs	r0, #0
10001ec6:	bd00      	pop	{pc}
10001ec8:	2001      	movs	r0, #1
10001eca:	bd00      	pop	{pc}

10001ecc <__wrap___aeabi_dcmpgt>:
10001ecc:	b500      	push	{lr}
10001ece:	f7ff ffb9 	bl	10001e44 <__wrap___aeabi_cdrcmple>
10001ed2:	4180      	sbcs	r0, r0
10001ed4:	bd00      	pop	{pc}

10001ed6 <__wrap___aeabi_dcmpun>:
10001ed6:	2001      	movs	r0, #1
10001ed8:	0540      	lsls	r0, r0, #21
10001eda:	004a      	lsls	r2, r1, #1
10001edc:	1812      	adds	r2, r2, r0
10001ede:	d804      	bhi.n	10001eea <__wrap___aeabi_dcmpun+0x14>
10001ee0:	005a      	lsls	r2, r3, #1
10001ee2:	1812      	adds	r2, r2, r0
10001ee4:	d801      	bhi.n	10001eea <__wrap___aeabi_dcmpun+0x14>
10001ee6:	2000      	movs	r0, #0
10001ee8:	4770      	bx	lr
10001eea:	2001      	movs	r0, #1
10001eec:	4770      	bx	lr
	...

10001ef0 <__wrap___aeabi_ui2d>:
10001ef0:	2100      	movs	r1, #0
10001ef2:	2800      	cmp	r0, #0
10001ef4:	d105      	bne.n	10001f02 <__wrap___aeabi_i2d+0xa>
10001ef6:	4770      	bx	lr

10001ef8 <__wrap___aeabi_i2d>:
10001ef8:	17c1      	asrs	r1, r0, #31
10001efa:	4048      	eors	r0, r1
10001efc:	1a40      	subs	r0, r0, r1
10001efe:	d0fa      	beq.n	10001ef6 <__wrap___aeabi_ui2d+0x6>
10001f00:	07c9      	lsls	r1, r1, #31
10001f02:	b513      	push	{r0, r1, r4, lr}
10001f04:	4b06      	ldr	r3, [pc, #24]	@ (10001f20 <__wrap___aeabi_i2d+0x28>)
10001f06:	681b      	ldr	r3, [r3, #0]
10001f08:	4798      	blx	r3
10001f0a:	bc0c      	pop	{r2, r3}
10001f0c:	1c44      	adds	r4, r0, #1
10001f0e:	40a2      	lsls	r2, r4
10001f10:	0510      	lsls	r0, r2, #20
10001f12:	0b12      	lsrs	r2, r2, #12
10001f14:	4903      	ldr	r1, [pc, #12]	@ (10001f24 <__wrap___aeabi_i2d+0x2c>)
10001f16:	1b09      	subs	r1, r1, r4
10001f18:	0509      	lsls	r1, r1, #20
10001f1a:	4319      	orrs	r1, r3
10001f1c:	4311      	orrs	r1, r2
10001f1e:	bd10      	pop	{r4, pc}
10001f20:	20002240 	.word	0x20002240
10001f24:	0000041f 	.word	0x0000041f

10001f28 <__wrap___aeabi_d2iz>:
10001f28:	b510      	push	{r4, lr}
10001f2a:	004c      	lsls	r4, r1, #1
10001f2c:	0d62      	lsrs	r2, r4, #21
10001f2e:	2380      	movs	r3, #128	@ 0x80
10001f30:	18d2      	adds	r2, r2, r3
10001f32:	00db      	lsls	r3, r3, #3
10001f34:	1ad2      	subs	r2, r2, r3
10001f36:	055b      	lsls	r3, r3, #21
10001f38:	2a7e      	cmp	r2, #126	@ 0x7e
10001f3a:	dd10      	ble.n	10001f5e <__wrap___aeabi_d2iz+0x36>
10001f3c:	3a9e      	subs	r2, #158	@ 0x9e
10001f3e:	da13      	bge.n	10001f68 <__wrap___aeabi_d2iz+0x40>
10001f40:	17cc      	asrs	r4, r1, #31
10001f42:	0309      	lsls	r1, r1, #12
10001f44:	0849      	lsrs	r1, r1, #1
10001f46:	4319      	orrs	r1, r3
10001f48:	4252      	negs	r2, r2
10001f4a:	40d1      	lsrs	r1, r2
10001f4c:	0064      	lsls	r4, r4, #1
10001f4e:	3401      	adds	r4, #1
10001f50:	3215      	adds	r2, #21
10001f52:	2a20      	cmp	r2, #32
10001f54:	da05      	bge.n	10001f62 <__wrap___aeabi_d2iz+0x3a>
10001f56:	40d0      	lsrs	r0, r2
10001f58:	4308      	orrs	r0, r1
10001f5a:	4360      	muls	r0, r4
10001f5c:	bd10      	pop	{r4, pc}
10001f5e:	2000      	movs	r0, #0
10001f60:	bd10      	pop	{r4, pc}
10001f62:	4608      	mov	r0, r1
10001f64:	4360      	muls	r0, r4
10001f66:	bd10      	pop	{r4, pc}
10001f68:	0fc8      	lsrs	r0, r1, #31
10001f6a:	18c0      	adds	r0, r0, r3
10001f6c:	3801      	subs	r0, #1
10001f6e:	bd10      	pop	{r4, pc}

10001f70 <__wrap___aeabi_d2uiz>:
10001f70:	b418      	push	{r3, r4}
10001f72:	4b04      	ldr	r3, [pc, #16]	@ (10001f84 <__wrap___aeabi_d2uiz+0x14>)
10001f74:	6a5b      	ldr	r3, [r3, #36]	@ 0x24
10001f76:	46fc      	mov	ip, pc
10001f78:	9301      	str	r3, [sp, #4]
10001f7a:	bd08      	pop	{r3, pc}
10001f7c:	24d1df24 	.word	0x24d1df24
10001f80:	00001000 	.word	0x00001000
10001f84:	200014b0 	.word	0x200014b0

10001f88 <__aeabi_double_init>:
10001f88:	2313      	movs	r3, #19
10001f8a:	b570      	push	{r4, r5, r6, lr}
10001f8c:	781d      	ldrb	r5, [r3, #0]
10001f8e:	2d01      	cmp	r5, #1
10001f90:	d019      	beq.n	10001fc6 <__aeabi_double_init+0x3e>
10001f92:	dd14      	ble.n	10001fbe <__aeabi_double_init+0x36>
10001f94:	481f      	ldr	r0, [pc, #124]	@ (10002014 <__aeabi_double_init+0x8c>)
10001f96:	f7ff fc7b 	bl	10001890 <rom_data_lookup>
10001f9a:	0006      	movs	r6, r0
10001f9c:	481e      	ldr	r0, [pc, #120]	@ (10002018 <__aeabi_double_init+0x90>)
10001f9e:	f7ff fc77 	bl	10001890 <rom_data_lookup>
10001fa2:	4c1e      	ldr	r4, [pc, #120]	@ (1000201c <__aeabi_double_init+0x94>)
10001fa4:	2280      	movs	r2, #128	@ 0x80
10001fa6:	0031      	movs	r1, r6
10001fa8:	0020      	movs	r0, r4
10001faa:	f000 fb5f 	bl	1000266c <__wrap___aeabi_memcpy>
10001fae:	2d02      	cmp	r5, #2
10001fb0:	d02d      	beq.n	1000200e <__aeabi_double_init+0x86>
10001fb2:	481b      	ldr	r0, [pc, #108]	@ (10002020 <__aeabi_double_init+0x98>)
10001fb4:	f7ff fc64 	bl	10001880 <rom_func_lookup>
10001fb8:	4b1a      	ldr	r3, [pc, #104]	@ (10002024 <__aeabi_double_init+0x9c>)
10001fba:	6018      	str	r0, [r3, #0]
10001fbc:	bd70      	pop	{r4, r5, r6, pc}
10001fbe:	4b1a      	ldr	r3, [pc, #104]	@ (10002028 <__aeabi_double_init+0xa0>)
10001fc0:	4c16      	ldr	r4, [pc, #88]	@ (1000201c <__aeabi_double_init+0x94>)
10001fc2:	64a3      	str	r3, [r4, #72]	@ 0x48
10001fc4:	e7f5      	b.n	10001fb2 <__aeabi_double_init+0x2a>
10001fc6:	4b18      	ldr	r3, [pc, #96]	@ (10002028 <__aeabi_double_init+0xa0>)
10001fc8:	4c14      	ldr	r4, [pc, #80]	@ (1000201c <__aeabi_double_init+0x94>)
10001fca:	6023      	str	r3, [r4, #0]
10001fcc:	6063      	str	r3, [r4, #4]
10001fce:	60a3      	str	r3, [r4, #8]
10001fd0:	60e3      	str	r3, [r4, #12]
10001fd2:	6123      	str	r3, [r4, #16]
10001fd4:	6163      	str	r3, [r4, #20]
10001fd6:	61a3      	str	r3, [r4, #24]
10001fd8:	61e3      	str	r3, [r4, #28]
10001fda:	6223      	str	r3, [r4, #32]
10001fdc:	6263      	str	r3, [r4, #36]	@ 0x24
10001fde:	62a3      	str	r3, [r4, #40]	@ 0x28
10001fe0:	62e3      	str	r3, [r4, #44]	@ 0x2c
10001fe2:	6323      	str	r3, [r4, #48]	@ 0x30
10001fe4:	6363      	str	r3, [r4, #52]	@ 0x34
10001fe6:	63a3      	str	r3, [r4, #56]	@ 0x38
10001fe8:	63e3      	str	r3, [r4, #60]	@ 0x3c
10001fea:	6423      	str	r3, [r4, #64]	@ 0x40
10001fec:	6463      	str	r3, [r4, #68]	@ 0x44
10001fee:	64a3      	str	r3, [r4, #72]	@ 0x48
10001ff0:	64e3      	str	r3, [r4, #76]	@ 0x4c
10001ff2:	6523      	str	r3, [r4, #80]	@ 0x50
10001ff4:	6563      	str	r3, [r4, #84]	@ 0x54
10001ff6:	65a3      	str	r3, [r4, #88]	@ 0x58
10001ff8:	65e3      	str	r3, [r4, #92]	@ 0x5c
10001ffa:	6623      	str	r3, [r4, #96]	@ 0x60
10001ffc:	6663      	str	r3, [r4, #100]	@ 0x64
10001ffe:	66a3      	str	r3, [r4, #104]	@ 0x68
10002000:	66e3      	str	r3, [r4, #108]	@ 0x6c
10002002:	6723      	str	r3, [r4, #112]	@ 0x70
10002004:	6763      	str	r3, [r4, #116]	@ 0x74
10002006:	67a3      	str	r3, [r4, #120]	@ 0x78
10002008:	67e3      	str	r3, [r4, #124]	@ 0x7c
1000200a:	64a3      	str	r3, [r4, #72]	@ 0x48
1000200c:	e7d1      	b.n	10001fb2 <__aeabi_double_init+0x2a>
1000200e:	4b06      	ldr	r3, [pc, #24]	@ (10002028 <__aeabi_double_init+0xa0>)
10002010:	64a3      	str	r3, [r4, #72]	@ 0x48
10002012:	e7ce      	b.n	10001fb2 <__aeabi_double_init+0x2a>
10002014:	00004453 	.word	0x00004453
10002018:	00004653 	.word	0x00004653
1000201c:	200014b0 	.word	0x200014b0
10002020:	0000334c 	.word	0x0000334c
10002024:	20002240 	.word	0x20002240
10002028:	1000202d 	.word	0x1000202d

1000202c <double_table_shim_on_use_helper>:
1000202c:	b507      	push	{r0, r1, r2, lr}
1000202e:	4660      	mov	r0, ip
10002030:	8801      	ldrh	r1, [r0, #0]
10002032:	0a0a      	lsrs	r2, r1, #8
10002034:	3002      	adds	r0, #2
10002036:	2adf      	cmp	r2, #223	@ 0xdf
10002038:	d1fa      	bne.n	10002030 <double_table_shim_on_use_helper+0x4>
1000203a:	b2c9      	uxtb	r1, r1
1000203c:	0882      	lsrs	r2, r0, #2
1000203e:	d304      	bcc.n	1000204a <double_table_shim_on_use_helper+0x1e>
10002040:	8802      	ldrh	r2, [r0, #0]
10002042:	8840      	ldrh	r0, [r0, #2]
10002044:	0400      	lsls	r0, r0, #16
10002046:	4310      	orrs	r0, r2
10002048:	e000      	b.n	1000204c <double_table_shim_on_use_helper+0x20>
1000204a:	6800      	ldr	r0, [r0, #0]
1000204c:	4a01      	ldr	r2, [pc, #4]	@ (10002054 <double_table_shim_on_use_helper+0x28>)
1000204e:	5050      	str	r0, [r2, r1]
10002050:	9003      	str	r0, [sp, #12]
10002052:	bd07      	pop	{r0, r1, r2, pc}
10002054:	200014b0 	.word	0x200014b0

10002058 <drsub_shim>:
10002058:	b40f      	push	{r0, r1, r2, r3}
1000205a:	bc03      	pop	{r0, r1}
1000205c:	bc0c      	pop	{r2, r3}

1000205e <dsub_shim>:
1000205e:	b5f0      	push	{r4, r5, r6, r7, lr}
10002060:	2401      	movs	r4, #1
10002062:	07e4      	lsls	r4, r4, #31
10002064:	4063      	eors	r3, r4
10002066:	e000      	b.n	1000206a <da_entry>

10002068 <dadd_shim>:
10002068:	b5f0      	push	{r4, r5, r6, r7, lr}

1000206a <da_entry>:
1000206a:	0d0c      	lsrs	r4, r1, #20
1000206c:	0fcf      	lsrs	r7, r1, #31
1000206e:	1e66      	subs	r6, r4, #1
10002070:	0536      	lsls	r6, r6, #20
10002072:	1b89      	subs	r1, r1, r6
10002074:	0564      	lsls	r4, r4, #21
10002076:	d303      	bcc.n	10002080 <l8_1>
10002078:	43c9      	mvns	r1, r1
1000207a:	4240      	negs	r0, r0
1000207c:	d300      	bcc.n	10002080 <l8_1>
1000207e:	3101      	adds	r1, #1

10002080 <l8_1>:
10002080:	0d64      	lsrs	r4, r4, #21
10002082:	d003      	beq.n	1000208c <l8_2>
10002084:	1c66      	adds	r6, r4, #1
10002086:	0af6      	lsrs	r6, r6, #11
10002088:	d007      	beq.n	1000209a <l8_3>
1000208a:	1be4      	subs	r4, r4, r7

1000208c <l8_2>:
1000208c:	2000      	movs	r0, #0
1000208e:	007f      	lsls	r7, r7, #1
10002090:	1c79      	adds	r1, r7, #1
10002092:	0789      	lsls	r1, r1, #30
10002094:	1289      	asrs	r1, r1, #10
10002096:	3c80      	subs	r4, #128	@ 0x80
10002098:	0324      	lsls	r4, r4, #12

1000209a <l8_3>:
1000209a:	0d1d      	lsrs	r5, r3, #20
1000209c:	0fdf      	lsrs	r7, r3, #31
1000209e:	1e6e      	subs	r6, r5, #1
100020a0:	0536      	lsls	r6, r6, #20
100020a2:	1b9b      	subs	r3, r3, r6
100020a4:	056d      	lsls	r5, r5, #21
100020a6:	d303      	bcc.n	100020b0 <l9_1>
100020a8:	43db      	mvns	r3, r3
100020aa:	4252      	negs	r2, r2
100020ac:	d300      	bcc.n	100020b0 <l9_1>
100020ae:	3301      	adds	r3, #1

100020b0 <l9_1>:
100020b0:	0d6d      	lsrs	r5, r5, #21
100020b2:	d003      	beq.n	100020bc <l9_2>
100020b4:	1c6e      	adds	r6, r5, #1
100020b6:	0af6      	lsrs	r6, r6, #11
100020b8:	d007      	beq.n	100020ca <l9_3>
100020ba:	1bed      	subs	r5, r5, r7

100020bc <l9_2>:
100020bc:	2200      	movs	r2, #0
100020be:	007f      	lsls	r7, r7, #1
100020c0:	1c7b      	adds	r3, r7, #1
100020c2:	079b      	lsls	r3, r3, #30
100020c4:	129b      	asrs	r3, r3, #10
100020c6:	3d80      	subs	r5, #128	@ 0x80
100020c8:	032d      	lsls	r5, r5, #12

100020ca <l9_3>:
100020ca:	1b2f      	subs	r7, r5, r4
100020cc:	1b66      	subs	r6, r4, r5
100020ce:	d458      	bmi.n	10002182 <da_ygtx>
100020d0:	46a4      	mov	ip, r4
100020d2:	2e20      	cmp	r6, #32
100020d4:	da46      	bge.n	10002164 <da_xrgty>
100020d6:	3720      	adds	r7, #32
100020d8:	0014      	movs	r4, r2
100020da:	40bc      	lsls	r4, r7

100020dc <da_xgty0>:
100020dc:	001d      	movs	r5, r3
100020de:	40bd      	lsls	r5, r7
100020e0:	40f2      	lsrs	r2, r6
100020e2:	4133      	asrs	r3, r6
100020e4:	432a      	orrs	r2, r5

100020e6 <da_add>:
100020e6:	1880      	adds	r0, r0, r2
100020e8:	4159      	adcs	r1, r3

100020ea <da_pack>:
100020ea:	0fcb      	lsrs	r3, r1, #31
100020ec:	d005      	beq.n	100020fa <da_pack+0x10>
100020ee:	43c9      	mvns	r1, r1
100020f0:	43c0      	mvns	r0, r0
100020f2:	2200      	movs	r2, #0
100020f4:	4264      	negs	r4, r4
100020f6:	4150      	adcs	r0, r2
100020f8:	4151      	adcs	r1, r2
100020fa:	4662      	mov	r2, ip
100020fc:	0d4d      	lsrs	r5, r1, #21
100020fe:	d128      	bne.n	10002152 <da_0>
10002100:	0d0d      	lsrs	r5, r1, #20
10002102:	d107      	bne.n	10002114 <da_1>
10002104:	2800      	cmp	r0, #0
10002106:	d01f      	beq.n	10002148 <da_5>

10002108 <da_2>:
10002108:	1924      	adds	r4, r4, r4
1000210a:	4140      	adcs	r0, r0
1000210c:	4149      	adcs	r1, r1
1000210e:	3a01      	subs	r2, #1
10002110:	0d0d      	lsrs	r5, r1, #20
10002112:	d0f9      	beq.n	10002108 <da_2>

10002114 <da_1>:
10002114:	0064      	lsls	r4, r4, #1
10002116:	d306      	bcc.n	10002126 <da_3>

10002118 <da_4>:
10002118:	3001      	adds	r0, #1
1000211a:	d300      	bcc.n	1000211e <da_4+0x6>
1000211c:	3101      	adds	r1, #1
1000211e:	2c00      	cmp	r4, #0
10002120:	d101      	bne.n	10002126 <da_3>
10002122:	0840      	lsrs	r0, r0, #1
10002124:	0040      	lsls	r0, r0, #1

10002126 <da_3>:
10002126:	3a01      	subs	r2, #1
10002128:	d40b      	bmi.n	10002142 <da_6>
1000212a:	1c94      	adds	r4, r2, #2
1000212c:	0ae4      	lsrs	r4, r4, #11
1000212e:	d104      	bne.n	1000213a <da_7>
10002130:	0512      	lsls	r2, r2, #20
10002132:	4411      	add	r1, r2
10002134:	07db      	lsls	r3, r3, #31
10002136:	4419      	add	r1, r3
10002138:	bdf0      	pop	{r4, r5, r6, r7, pc}

1000213a <da_7>:
1000213a:	07d9      	lsls	r1, r3, #31
1000213c:	4b20      	ldr	r3, [pc, #128]	@ (100021c0 <da_xmgty+0x4>)
1000213e:	4319      	orrs	r1, r3
10002140:	e000      	b.n	10002144 <da_6+0x2>

10002142 <da_6>:
10002142:	07d9      	lsls	r1, r3, #31
10002144:	2000      	movs	r0, #0
10002146:	bdf0      	pop	{r4, r5, r6, r7, pc}

10002148 <da_5>:
10002148:	2900      	cmp	r1, #0
1000214a:	d1dd      	bne.n	10002108 <da_2>
1000214c:	2c00      	cmp	r4, #0
1000214e:	d1db      	bne.n	10002108 <da_2>
10002150:	bdf0      	pop	{r4, r5, r6, r7, pc}

10002152 <da_0>:
10002152:	3201      	adds	r2, #1
10002154:	07c6      	lsls	r6, r0, #31
10002156:	0840      	lsrs	r0, r0, #1
10002158:	07cd      	lsls	r5, r1, #31
1000215a:	4328      	orrs	r0, r5
1000215c:	0849      	lsrs	r1, r1, #1
1000215e:	2e00      	cmp	r6, #0
10002160:	d0e1      	beq.n	10002126 <da_3>
10002162:	e7d9      	b.n	10002118 <da_4>

10002164 <da_xrgty>:
10002164:	2e3c      	cmp	r6, #60	@ 0x3c
10002166:	da29      	bge.n	100021bc <da_xmgty>
10002168:	3e20      	subs	r6, #32
1000216a:	3740      	adds	r7, #64	@ 0x40
1000216c:	0014      	movs	r4, r2
1000216e:	40bc      	lsls	r4, r7
10002170:	d000      	beq.n	10002174 <da_xrgty+0x10>
10002172:	2401      	movs	r4, #1
10002174:	40f2      	lsrs	r2, r6
10002176:	4314      	orrs	r4, r2
10002178:	001a      	movs	r2, r3
1000217a:	40bb      	lsls	r3, r7
1000217c:	431c      	orrs	r4, r3
1000217e:	17d3      	asrs	r3, r2, #31
10002180:	e7ac      	b.n	100020dc <da_xgty0>

10002182 <da_ygtx>:
10002182:	46ac      	mov	ip, r5
10002184:	2f20      	cmp	r7, #32
10002186:	da08      	bge.n	1000219a <da_yrgtx>
10002188:	3620      	adds	r6, #32
1000218a:	0004      	movs	r4, r0
1000218c:	40b4      	lsls	r4, r6

1000218e <da_ygtx0>:
1000218e:	000d      	movs	r5, r1
10002190:	40b5      	lsls	r5, r6
10002192:	40f8      	lsrs	r0, r7
10002194:	4139      	asrs	r1, r7
10002196:	4328      	orrs	r0, r5
10002198:	e7a5      	b.n	100020e6 <da_add>

1000219a <da_yrgtx>:
1000219a:	2f3c      	cmp	r7, #60	@ 0x3c
1000219c:	da0c      	bge.n	100021b8 <da_ymgtx>
1000219e:	3f20      	subs	r7, #32
100021a0:	3640      	adds	r6, #64	@ 0x40
100021a2:	0004      	movs	r4, r0
100021a4:	40b4      	lsls	r4, r6
100021a6:	d000      	beq.n	100021aa <da_yrgtx+0x10>
100021a8:	2401      	movs	r4, #1
100021aa:	40f8      	lsrs	r0, r7
100021ac:	4304      	orrs	r4, r0
100021ae:	0008      	movs	r0, r1
100021b0:	40b1      	lsls	r1, r6
100021b2:	430c      	orrs	r4, r1
100021b4:	17c1      	asrs	r1, r0, #31
100021b6:	e7ea      	b.n	1000218e <da_ygtx0>

100021b8 <da_ymgtx>:
100021b8:	0010      	movs	r0, r2
100021ba:	0019      	movs	r1, r3

100021bc <da_xmgty>:
100021bc:	2400      	movs	r4, #0
100021be:	e794      	b.n	100020ea <da_pack>
100021c0:	7ff00000 	.word	0x7ff00000

100021c4 <dmul_shim>:
100021c4:	b5f0      	push	{r4, r5, r6, r7, lr}
100021c6:	0d0c      	lsrs	r4, r1, #20
100021c8:	1e66      	subs	r6, r4, #1
100021ca:	0536      	lsls	r6, r6, #20
100021cc:	1b89      	subs	r1, r1, r6
100021ce:	0ae6      	lsrs	r6, r4, #11
100021d0:	0564      	lsls	r4, r4, #21
100021d2:	0d64      	lsrs	r4, r4, #21
100021d4:	d002      	beq.n	100021dc <l12_1>
100021d6:	1c65      	adds	r5, r4, #1
100021d8:	0aed      	lsrs	r5, r5, #11
100021da:	d004      	beq.n	100021e6 <l12_2>

100021dc <l12_1>:
100021dc:	2000      	movs	r0, #0
100021de:	2101      	movs	r1, #1
100021e0:	0509      	lsls	r1, r1, #20
100021e2:	3c80      	subs	r4, #128	@ 0x80
100021e4:	0324      	lsls	r4, r4, #12

100021e6 <l12_2>:
100021e6:	46a4      	mov	ip, r4
100021e8:	0d1c      	lsrs	r4, r3, #20
100021ea:	1e67      	subs	r7, r4, #1
100021ec:	053f      	lsls	r7, r7, #20
100021ee:	1bdb      	subs	r3, r3, r7
100021f0:	0ae7      	lsrs	r7, r4, #11
100021f2:	0564      	lsls	r4, r4, #21
100021f4:	0d64      	lsrs	r4, r4, #21
100021f6:	d002      	beq.n	100021fe <l13_1>
100021f8:	1c65      	adds	r5, r4, #1
100021fa:	0aed      	lsrs	r5, r5, #11
100021fc:	d004      	beq.n	10002208 <l13_2>

100021fe <l13_1>:
100021fe:	2200      	movs	r2, #0
10002200:	2301      	movs	r3, #1
10002202:	051b      	lsls	r3, r3, #20
10002204:	3c80      	subs	r4, #128	@ 0x80
10002206:	0324      	lsls	r4, r4, #12

10002208 <l13_2>:
10002208:	4077      	eors	r7, r6
1000220a:	4464      	add	r4, ip
1000220c:	b497      	push	{r0, r1, r2, r4, r7}
1000220e:	b284      	uxth	r4, r0
10002210:	b296      	uxth	r6, r2
10002212:	4374      	muls	r4, r6
10002214:	0c07      	lsrs	r7, r0, #16
10002216:	437e      	muls	r6, r7
10002218:	0c15      	lsrs	r5, r2, #16
1000221a:	436f      	muls	r7, r5
1000221c:	b280      	uxth	r0, r0
1000221e:	4368      	muls	r0, r5
10002220:	1836      	adds	r6, r6, r0
10002222:	d302      	bcc.n	1000222a <l14_1>
10002224:	2001      	movs	r0, #1
10002226:	0400      	lsls	r0, r0, #16
10002228:	183f      	adds	r7, r7, r0

1000222a <l14_1>:
1000222a:	0430      	lsls	r0, r6, #16
1000222c:	0c35      	lsrs	r5, r6, #16
1000222e:	1900      	adds	r0, r0, r4
10002230:	417d      	adcs	r5, r7
10002232:	4684      	mov	ip, r0
10002234:	b288      	uxth	r0, r1
10002236:	b29a      	uxth	r2, r3
10002238:	4350      	muls	r0, r2
1000223a:	0c0c      	lsrs	r4, r1, #16
1000223c:	4362      	muls	r2, r4
1000223e:	0c1f      	lsrs	r7, r3, #16
10002240:	437c      	muls	r4, r7
10002242:	b28e      	uxth	r6, r1
10002244:	437e      	muls	r6, r7
10002246:	1992      	adds	r2, r2, r6
10002248:	d302      	bcc.n	10002250 <l15_1>
1000224a:	2601      	movs	r6, #1
1000224c:	0436      	lsls	r6, r6, #16
1000224e:	19a4      	adds	r4, r4, r6

10002250 <l15_1>:
10002250:	0416      	lsls	r6, r2, #16
10002252:	0c17      	lsrs	r7, r2, #16
10002254:	1836      	adds	r6, r6, r0
10002256:	4167      	adcs	r7, r4
10002258:	bc01      	pop	{r0}
1000225a:	b281      	uxth	r1, r0
1000225c:	b29a      	uxth	r2, r3
1000225e:	4351      	muls	r1, r2
10002260:	0c04      	lsrs	r4, r0, #16
10002262:	4362      	muls	r2, r4
10002264:	0c1b      	lsrs	r3, r3, #16
10002266:	435c      	muls	r4, r3
10002268:	b280      	uxth	r0, r0
1000226a:	4358      	muls	r0, r3
1000226c:	1812      	adds	r2, r2, r0
1000226e:	d302      	bcc.n	10002276 <l16_1>
10002270:	2001      	movs	r0, #1
10002272:	0400      	lsls	r0, r0, #16
10002274:	1824      	adds	r4, r4, r0

10002276 <l16_1>:
10002276:	0410      	lsls	r0, r2, #16
10002278:	0c13      	lsrs	r3, r2, #16
1000227a:	1840      	adds	r0, r0, r1
1000227c:	4163      	adcs	r3, r4
1000227e:	182d      	adds	r5, r5, r0
10002280:	415e      	adcs	r6, r3
10002282:	2000      	movs	r0, #0
10002284:	4147      	adcs	r7, r0
10002286:	bc06      	pop	{r1, r2}
10002288:	b288      	uxth	r0, r1
1000228a:	b293      	uxth	r3, r2
1000228c:	4358      	muls	r0, r3
1000228e:	0c0c      	lsrs	r4, r1, #16
10002290:	4363      	muls	r3, r4
10002292:	0c12      	lsrs	r2, r2, #16
10002294:	4354      	muls	r4, r2
10002296:	b289      	uxth	r1, r1
10002298:	4351      	muls	r1, r2
1000229a:	185b      	adds	r3, r3, r1
1000229c:	d302      	bcc.n	100022a4 <l17_1>
1000229e:	2101      	movs	r1, #1
100022a0:	0409      	lsls	r1, r1, #16
100022a2:	1864      	adds	r4, r4, r1

100022a4 <l17_1>:
100022a4:	0419      	lsls	r1, r3, #16
100022a6:	0c1a      	lsrs	r2, r3, #16
100022a8:	1809      	adds	r1, r1, r0
100022aa:	4162      	adcs	r2, r4
100022ac:	186d      	adds	r5, r5, r1
100022ae:	4156      	adcs	r6, r2
100022b0:	2000      	movs	r0, #0
100022b2:	4147      	adcs	r7, r0
100022b4:	bc18      	pop	{r3, r4}
100022b6:	02f9      	lsls	r1, r7, #11
100022b8:	0d72      	lsrs	r2, r6, #21
100022ba:	4311      	orrs	r1, r2
100022bc:	02f0      	lsls	r0, r6, #11
100022be:	0d6a      	lsrs	r2, r5, #21
100022c0:	4310      	orrs	r0, r2
100022c2:	02ed      	lsls	r5, r5, #11
100022c4:	0d0a      	lsrs	r2, r1, #20
100022c6:	d103      	bne.n	100022d0 <l17_1+0x2c>
100022c8:	196d      	adds	r5, r5, r5
100022ca:	4140      	adcs	r0, r0
100022cc:	4149      	adcs	r1, r1
100022ce:	3b01      	subs	r3, #1
100022d0:	4e12      	ldr	r6, [pc, #72]	@ (1000231c <dm_1+0xa>)
100022d2:	1b9b      	subs	r3, r3, r6
100022d4:	0076      	lsls	r6, r6, #1
100022d6:	42b3      	cmp	r3, r6
100022d8:	d20e      	bcs.n	100022f8 <dm_0>
100022da:	006d      	lsls	r5, r5, #1
100022dc:	d307      	bcc.n	100022ee <l17_1+0x4a>
100022de:	3001      	adds	r0, #1
100022e0:	2600      	movs	r6, #0
100022e2:	4171      	adcs	r1, r6
100022e4:	4666      	mov	r6, ip
100022e6:	4335      	orrs	r5, r6
100022e8:	d101      	bne.n	100022ee <l17_1+0x4a>
100022ea:	0840      	lsrs	r0, r0, #1
100022ec:	0040      	lsls	r0, r0, #1
100022ee:	051b      	lsls	r3, r3, #20
100022f0:	18c9      	adds	r1, r1, r3

100022f2 <dm_2>:
100022f2:	07e4      	lsls	r4, r4, #31
100022f4:	4421      	add	r1, r4
100022f6:	bdf0      	pop	{r4, r5, r6, r7, pc}

100022f8 <dm_0>:
100022f8:	da0b      	bge.n	10002312 <dm_1>
100022fa:	3301      	adds	r3, #1
100022fc:	d106      	bne.n	1000230c <dm_0+0x14>
100022fe:	3001      	adds	r0, #1
10002300:	d104      	bne.n	1000230c <dm_0+0x14>
10002302:	3101      	adds	r1, #1
10002304:	0d4f      	lsrs	r7, r1, #21
10002306:	d001      	beq.n	1000230c <dm_0+0x14>
10002308:	0849      	lsrs	r1, r1, #1
1000230a:	e7f2      	b.n	100022f2 <dm_2>
1000230c:	07e1      	lsls	r1, r4, #31
1000230e:	2000      	movs	r0, #0
10002310:	bdf0      	pop	{r4, r5, r6, r7, pc}

10002312 <dm_1>:
10002312:	3601      	adds	r6, #1
10002314:	0531      	lsls	r1, r6, #20
10002316:	2000      	movs	r0, #0
10002318:	e7eb      	b.n	100022f2 <dm_2>
1000231a:	0000      	.short	0x0000
1000231c:	000003ff 	.word	0x000003ff

10002320 <ddiv_shim>:
10002320:	b5f0      	push	{r4, r5, r6, r7, lr}

10002322 <ddiv0>:
10002322:	0d1c      	lsrs	r4, r3, #20
10002324:	1e67      	subs	r7, r4, #1
10002326:	053f      	lsls	r7, r7, #20
10002328:	1bdb      	subs	r3, r3, r7
1000232a:	0ae7      	lsrs	r7, r4, #11
1000232c:	0564      	lsls	r4, r4, #21
1000232e:	0d64      	lsrs	r4, r4, #21
10002330:	d002      	beq.n	10002338 <l20_1>
10002332:	1c66      	adds	r6, r4, #1
10002334:	0af6      	lsrs	r6, r6, #11
10002336:	d004      	beq.n	10002342 <l20_2>

10002338 <l20_1>:
10002338:	2200      	movs	r2, #0
1000233a:	2301      	movs	r3, #1
1000233c:	051b      	lsls	r3, r3, #20
1000233e:	3c80      	subs	r4, #128	@ 0x80
10002340:	0324      	lsls	r4, r4, #12

10002342 <l20_2>:
10002342:	25d0      	movs	r5, #208	@ 0xd0
10002344:	062d      	lsls	r5, r5, #24
10002346:	2600      	movs	r6, #0
10002348:	43f6      	mvns	r6, r6
1000234a:	662e      	str	r6, [r5, #96]	@ 0x60
1000234c:	091e      	lsrs	r6, r3, #4
1000234e:	666e      	str	r6, [r5, #100]	@ 0x64
10002350:	0fce      	lsrs	r6, r1, #31
10002352:	19f6      	adds	r6, r6, r7
10002354:	46b4      	mov	ip, r6
10002356:	0049      	lsls	r1, r1, #1
10002358:	0d4f      	lsrs	r7, r1, #21
1000235a:	d002      	beq.n	10002362 <l20_2+0x20>
1000235c:	1c7e      	adds	r6, r7, #1
1000235e:	0af6      	lsrs	r6, r6, #11
10002360:	d003      	beq.n	1000236a <l20_2+0x28>
10002362:	2000      	movs	r0, #0
10002364:	2100      	movs	r1, #0
10002366:	3f40      	subs	r7, #64	@ 0x40
10002368:	033f      	lsls	r7, r7, #12
1000236a:	1b3e      	subs	r6, r7, r4
1000236c:	00b6      	lsls	r6, r6, #2
1000236e:	44b4      	add	ip, r6
10002370:	3f01      	subs	r7, #1
10002372:	057f      	lsls	r7, r7, #21
10002374:	1bc9      	subs	r1, r1, r7
10002376:	0849      	lsrs	r1, r1, #1
10002378:	6f2e      	ldr	r6, [r5, #112]	@ 0x70
1000237a:	3601      	adds	r6, #1
1000237c:	0876      	lsrs	r6, r6, #1
1000237e:	029c      	lsls	r4, r3, #10
10002380:	0d95      	lsrs	r5, r2, #22
10002382:	4325      	orrs	r5, r4
10002384:	4375      	muls	r5, r6
10002386:	13ed      	asrs	r5, r5, #15
10002388:	4375      	muls	r5, r6
1000238a:	13ad      	asrs	r5, r5, #14
1000238c:	3501      	adds	r5, #1
1000238e:	106d      	asrs	r5, r5, #1
10002390:	03f6      	lsls	r6, r6, #15
10002392:	1b76      	subs	r6, r6, r5
10002394:	b40c      	push	{r2, r3}
10002396:	02cc      	lsls	r4, r1, #11
10002398:	0d45      	lsrs	r5, r0, #21
1000239a:	432c      	orrs	r4, r5
1000239c:	b2a2      	uxth	r2, r4
1000239e:	b2b3      	uxth	r3, r6
100023a0:	435a      	muls	r2, r3
100023a2:	0c27      	lsrs	r7, r4, #16
100023a4:	437b      	muls	r3, r7
100023a6:	0c35      	lsrs	r5, r6, #16
100023a8:	436f      	muls	r7, r5
100023aa:	b2a4      	uxth	r4, r4
100023ac:	436c      	muls	r4, r5
100023ae:	191b      	adds	r3, r3, r4
100023b0:	d302      	bcc.n	100023b8 <l21_1>
100023b2:	2401      	movs	r4, #1
100023b4:	0424      	lsls	r4, r4, #16
100023b6:	193f      	adds	r7, r7, r4

100023b8 <l21_1>:
100023b8:	041c      	lsls	r4, r3, #16
100023ba:	0c1d      	lsrs	r5, r3, #16
100023bc:	18a4      	adds	r4, r4, r2
100023be:	417d      	adcs	r5, r7
100023c0:	1924      	adds	r4, r4, r4
100023c2:	416d      	adcs	r5, r5
100023c4:	9a00      	ldr	r2, [sp, #0]
100023c6:	b291      	uxth	r1, r2
100023c8:	b2ac      	uxth	r4, r5
100023ca:	4361      	muls	r1, r4
100023cc:	0c17      	lsrs	r7, r2, #16
100023ce:	437c      	muls	r4, r7
100023d0:	0c2b      	lsrs	r3, r5, #16
100023d2:	435f      	muls	r7, r3
100023d4:	b292      	uxth	r2, r2
100023d6:	435a      	muls	r2, r3
100023d8:	18a4      	adds	r4, r4, r2
100023da:	d302      	bcc.n	100023e2 <l22_1>
100023dc:	2201      	movs	r2, #1
100023de:	0412      	lsls	r2, r2, #16
100023e0:	18bf      	adds	r7, r7, r2

100023e2 <l22_1>:
100023e2:	0422      	lsls	r2, r4, #16
100023e4:	0c23      	lsrs	r3, r4, #16
100023e6:	1852      	adds	r2, r2, r1
100023e8:	417b      	adcs	r3, r7
100023ea:	9c01      	ldr	r4, [sp, #4]
100023ec:	436c      	muls	r4, r5
100023ee:	191b      	adds	r3, r3, r4
100023f0:	0e52      	lsrs	r2, r2, #25
100023f2:	01d9      	lsls	r1, r3, #7
100023f4:	430a      	orrs	r2, r1
100023f6:	0144      	lsls	r4, r0, #5
100023f8:	1aa0      	subs	r0, r4, r2
100023fa:	b281      	uxth	r1, r0
100023fc:	b2b2      	uxth	r2, r6
100023fe:	4351      	muls	r1, r2
10002400:	1403      	asrs	r3, r0, #16
10002402:	435a      	muls	r2, r3
10002404:	0c36      	lsrs	r6, r6, #16
10002406:	4373      	muls	r3, r6
10002408:	b287      	uxth	r7, r0
1000240a:	4377      	muls	r7, r6
1000240c:	17d6      	asrs	r6, r2, #31
1000240e:	19d2      	adds	r2, r2, r7
10002410:	2700      	movs	r7, #0
10002412:	417e      	adcs	r6, r7
10002414:	0436      	lsls	r6, r6, #16
10002416:	199b      	adds	r3, r3, r6
10002418:	0417      	lsls	r7, r2, #16
1000241a:	0c16      	lsrs	r6, r2, #16
1000241c:	187f      	adds	r7, r7, r1
1000241e:	415e      	adcs	r6, r3
10002420:	1673      	asrs	r3, r6, #25
10002422:	18ed      	adds	r5, r5, r3
10002424:	01f3      	lsls	r3, r6, #7
10002426:	2600      	movs	r6, #0
10002428:	3380      	adds	r3, #128	@ 0x80
1000242a:	4175      	adcs	r5, r6
1000242c:	0fa9      	lsrs	r1, r5, #30
1000242e:	d106      	bne.n	1000243e <dd_0>
10002430:	0064      	lsls	r4, r4, #1
10002432:	0a69      	lsrs	r1, r5, #9
10002434:	05e8      	lsls	r0, r5, #23
10002436:	0a5b      	lsrs	r3, r3, #9
10002438:	4318      	orrs	r0, r3
1000243a:	d209      	bcs.n	10002450 <dd_1>
1000243c:	e02f      	b.n	1000249e <dd_2>

1000243e <dd_0>:
1000243e:	2204      	movs	r2, #4
10002440:	4494      	add	ip, r2
10002442:	3380      	adds	r3, #128	@ 0x80
10002444:	4175      	adcs	r5, r6
10002446:	0aa9      	lsrs	r1, r5, #10
10002448:	05a8      	lsls	r0, r5, #22
1000244a:	0a9b      	lsrs	r3, r3, #10
1000244c:	4318      	orrs	r0, r3
1000244e:	d326      	bcc.n	1000249e <dd_2>

10002450 <dd_1>:
10002450:	4140      	adcs	r0, r0
10002452:	4149      	adcs	r1, r1
10002454:	0424      	lsls	r4, r4, #16
10002456:	9a00      	ldr	r2, [sp, #0]
10002458:	9b01      	ldr	r3, [sp, #4]
1000245a:	000d      	movs	r5, r1
1000245c:	4355      	muls	r5, r2
1000245e:	1b64      	subs	r4, r4, r5
10002460:	4343      	muls	r3, r0
10002462:	1ae4      	subs	r4, r4, r3
10002464:	b295      	uxth	r5, r2
10002466:	b286      	uxth	r6, r0
10002468:	4375      	muls	r5, r6
1000246a:	0c17      	lsrs	r7, r2, #16
1000246c:	437e      	muls	r6, r7
1000246e:	0c03      	lsrs	r3, r0, #16
10002470:	435f      	muls	r7, r3
10002472:	b292      	uxth	r2, r2
10002474:	435a      	muls	r2, r3
10002476:	18b6      	adds	r6, r6, r2
10002478:	d302      	bcc.n	10002480 <l24_1>
1000247a:	2201      	movs	r2, #1
1000247c:	0412      	lsls	r2, r2, #16
1000247e:	18bf      	adds	r7, r7, r2

10002480 <l24_1>:
10002480:	0432      	lsls	r2, r6, #16
10002482:	0c33      	lsrs	r3, r6, #16
10002484:	1952      	adds	r2, r2, r5
10002486:	417b      	adcs	r3, r7
10002488:	4252      	negs	r2, r2
1000248a:	419c      	sbcs	r4, r3
1000248c:	2c00      	cmp	r4, #0
1000248e:	d402      	bmi.n	10002496 <l24_1+0x16>
10002490:	2200      	movs	r2, #0
10002492:	3001      	adds	r0, #1
10002494:	4151      	adcs	r1, r2
10002496:	0840      	lsrs	r0, r0, #1
10002498:	07ca      	lsls	r2, r1, #31
1000249a:	4310      	orrs	r0, r2
1000249c:	0849      	lsrs	r1, r1, #1

1000249e <dd_2>:
1000249e:	b002      	add	sp, #8
100024a0:	4662      	mov	r2, ip
100024a2:	07d7      	lsls	r7, r2, #31
100024a4:	1092      	asrs	r2, r2, #2
100024a6:	4b08      	ldr	r3, [pc, #32]	@ (100024c8 <dd_4+0x6>)
100024a8:	18d2      	adds	r2, r2, r3
100024aa:	4b08      	ldr	r3, [pc, #32]	@ (100024cc <dd_4+0xa>)
100024ac:	429a      	cmp	r2, r3
100024ae:	d203      	bcs.n	100024b8 <dd_3>
100024b0:	0512      	lsls	r2, r2, #20
100024b2:	1889      	adds	r1, r1, r2

100024b4 <dd_5>:
100024b4:	19c9      	adds	r1, r1, r7
100024b6:	bdf0      	pop	{r4, r5, r6, r7, pc}

100024b8 <dd_3>:
100024b8:	2000      	movs	r0, #0
100024ba:	2a00      	cmp	r2, #0
100024bc:	dc01      	bgt.n	100024c2 <dd_4>
100024be:	0039      	movs	r1, r7
100024c0:	bdf0      	pop	{r4, r5, r6, r7, pc}

100024c2 <dd_4>:
100024c2:	3301      	adds	r3, #1
100024c4:	0519      	lsls	r1, r3, #20
100024c6:	e7f5      	b.n	100024b4 <dd_5>
100024c8:	000003fd 	.word	0x000003fd
100024cc:	000007fe 	.word	0x000007fe

100024d0 <double2uint_shim>:
100024d0:	2200      	movs	r2, #0

100024d2 <double2ufix_shim>:
100024d2:	b500      	push	{lr}
100024d4:	3220      	adds	r2, #32
100024d6:	f000 f804 	bl	100024e2 <double2ufix64_shim>
100024da:	0008      	movs	r0, r1
100024dc:	bd00      	pop	{pc}
	...

100024e0 <double2uint64_shim>:
100024e0:	2200      	movs	r2, #0

100024e2 <double2ufix64_shim>:
100024e2:	150b      	asrs	r3, r1, #20
100024e4:	d40a      	bmi.n	100024fc <ret_dzero>

100024e6 <d2fix>:
100024e6:	b510      	push	{r4, lr}
100024e8:	4694      	mov	ip, r2
100024ea:	f000 f831 	bl	10002550 <dunpacks>
100024ee:	1414      	asrs	r4, r2, #16
100024f0:	3401      	adds	r4, #1
100024f2:	da00      	bge.n	100024f6 <d2fix+0x10>
100024f4:	2100      	movs	r1, #0
100024f6:	17cb      	asrs	r3, r1, #31
100024f8:	4c14      	ldr	r4, [pc, #80]	@ (1000254c <d2fix_a+0x4a>)
100024fa:	4720      	bx	r4

100024fc <ret_dzero>:
100024fc:	2000      	movs	r0, #0
100024fe:	2100      	movs	r1, #0
10002500:	4770      	bx	lr

10002502 <d2fix_a>:
10002502:	4462      	add	r2, ip
10002504:	3a34      	subs	r2, #52	@ 0x34
10002506:	d40c      	bmi.n	10002522 <d2fix_a+0x20>
10002508:	2a0c      	cmp	r2, #12
1000250a:	da07      	bge.n	1000251c <d2fix_a+0x1a>
1000250c:	0004      	movs	r4, r0
1000250e:	4091      	lsls	r1, r2
10002510:	4090      	lsls	r0, r2
10002512:	4252      	negs	r2, r2
10002514:	3220      	adds	r2, #32
10002516:	40d4      	lsrs	r4, r2
10002518:	4321      	orrs	r1, r4
1000251a:	bd10      	pop	{r4, pc}
1000251c:	43d8      	mvns	r0, r3
1000251e:	43d9      	mvns	r1, r3
10002520:	bd10      	pop	{r4, pc}
10002522:	3220      	adds	r2, #32
10002524:	d407      	bmi.n	10002536 <d2fix_a+0x34>
10002526:	460c      	mov	r4, r1
10002528:	4094      	lsls	r4, r2
1000252a:	4252      	negs	r2, r2
1000252c:	3220      	adds	r2, #32
1000252e:	4111      	asrs	r1, r2
10002530:	40d0      	lsrs	r0, r2
10002532:	4320      	orrs	r0, r4
10002534:	bd10      	pop	{r4, pc}
10002536:	0008      	movs	r0, r1
10002538:	17c9      	asrs	r1, r1, #31
1000253a:	3220      	adds	r2, #32
1000253c:	d403      	bmi.n	10002546 <d2fix_a+0x44>
1000253e:	4252      	negs	r2, r2
10002540:	3220      	adds	r2, #32
10002542:	4110      	asrs	r0, r2
10002544:	bd10      	pop	{r4, pc}
10002546:	0018      	movs	r0, r3
10002548:	0019      	movs	r1, r3
1000254a:	bd10      	pop	{r4, pc}
1000254c:	10002503 	.word	0x10002503

10002550 <dunpacks>:
10002550:	0d0a      	lsrs	r2, r1, #20
10002552:	0fcc      	lsrs	r4, r1, #31
10002554:	1e53      	subs	r3, r2, #1
10002556:	051b      	lsls	r3, r3, #20
10002558:	1ac9      	subs	r1, r1, r3
1000255a:	0552      	lsls	r2, r2, #21
1000255c:	d303      	bcc.n	10002566 <l60_1>
1000255e:	43c9      	mvns	r1, r1
10002560:	4240      	negs	r0, r0
10002562:	d300      	bcc.n	10002566 <l60_1>
10002564:	3101      	adds	r1, #1

10002566 <l60_1>:
10002566:	0d52      	lsrs	r2, r2, #21
10002568:	d003      	beq.n	10002572 <l60_2>
1000256a:	1c53      	adds	r3, r2, #1
1000256c:	0adb      	lsrs	r3, r3, #11
1000256e:	d007      	beq.n	10002580 <l60_3>
10002570:	1b12      	subs	r2, r2, r4

10002572 <l60_2>:
10002572:	2000      	movs	r0, #0
10002574:	0064      	lsls	r4, r4, #1
10002576:	1c61      	adds	r1, r4, #1
10002578:	0789      	lsls	r1, r1, #30
1000257a:	1289      	asrs	r1, r1, #10
1000257c:	3a80      	subs	r2, #128	@ 0x80
1000257e:	0312      	lsls	r2, r2, #12

10002580 <l60_3>:
10002580:	4b01      	ldr	r3, [pc, #4]	@ (10002588 <l60_3+0x8>)
10002582:	1ad2      	subs	r2, r2, r3
10002584:	4770      	bx	lr
10002586:	0000      	.short	0x0000
10002588:	000003ff 	.word	0x000003ff

1000258c <__wrap___aeabi_lmul>:
1000258c:	4351      	muls	r1, r2
1000258e:	4343      	muls	r3, r0
10002590:	18c9      	adds	r1, r1, r3
10002592:	468c      	mov	ip, r1
10002594:	0c11      	lsrs	r1, r2, #16
10002596:	b283      	uxth	r3, r0
10002598:	434b      	muls	r3, r1
1000259a:	b410      	push	{r4}
1000259c:	0c04      	lsrs	r4, r0, #16
1000259e:	4361      	muls	r1, r4
100025a0:	b292      	uxth	r2, r2
100025a2:	b280      	uxth	r0, r0
100025a4:	4350      	muls	r0, r2
100025a6:	4362      	muls	r2, r4
100025a8:	041c      	lsls	r4, r3, #16
100025aa:	0c1b      	lsrs	r3, r3, #16
100025ac:	1900      	adds	r0, r0, r4
100025ae:	bc10      	pop	{r4}
100025b0:	4159      	adcs	r1, r3
100025b2:	0413      	lsls	r3, r2, #16
100025b4:	0c12      	lsrs	r2, r2, #16
100025b6:	18c0      	adds	r0, r0, r3
100025b8:	4151      	adcs	r1, r2
100025ba:	4461      	add	r1, ip
100025bc:	4770      	bx	lr
	...

100025c0 <__aeabi_float_init>:
100025c0:	2313      	movs	r3, #19
100025c2:	b510      	push	{r4, lr}
100025c4:	4812      	ldr	r0, [pc, #72]	@ (10002610 <__aeabi_float_init+0x50>)
100025c6:	781c      	ldrb	r4, [r3, #0]
100025c8:	f7ff f962 	bl	10001890 <rom_data_lookup>
100025cc:	0001      	movs	r1, r0
100025ce:	2c01      	cmp	r4, #1
100025d0:	d00a      	beq.n	100025e8 <__aeabi_float_init+0x28>
100025d2:	dd03      	ble.n	100025dc <__aeabi_float_init+0x1c>
100025d4:	2280      	movs	r2, #128	@ 0x80
100025d6:	480f      	ldr	r0, [pc, #60]	@ (10002614 <__aeabi_float_init+0x54>)
100025d8:	f000 f848 	bl	1000266c <__wrap___aeabi_memcpy>
100025dc:	480e      	ldr	r0, [pc, #56]	@ (10002618 <__aeabi_float_init+0x58>)
100025de:	f7ff f94f 	bl	10001880 <rom_func_lookup>
100025e2:	4b0e      	ldr	r3, [pc, #56]	@ (1000261c <__aeabi_float_init+0x5c>)
100025e4:	6018      	str	r0, [r3, #0]
100025e6:	bd10      	pop	{r4, pc}
100025e8:	4c0a      	ldr	r4, [pc, #40]	@ (10002614 <__aeabi_float_init+0x54>)
100025ea:	2254      	movs	r2, #84	@ 0x54
100025ec:	0020      	movs	r0, r4
100025ee:	f000 f83d 	bl	1000266c <__wrap___aeabi_memcpy>
100025f2:	4b0b      	ldr	r3, [pc, #44]	@ (10002620 <__aeabi_float_init+0x60>)
100025f4:	6563      	str	r3, [r4, #84]	@ 0x54
100025f6:	65a3      	str	r3, [r4, #88]	@ 0x58
100025f8:	65e3      	str	r3, [r4, #92]	@ 0x5c
100025fa:	6623      	str	r3, [r4, #96]	@ 0x60
100025fc:	6663      	str	r3, [r4, #100]	@ 0x64
100025fe:	66a3      	str	r3, [r4, #104]	@ 0x68
10002600:	66e3      	str	r3, [r4, #108]	@ 0x6c
10002602:	6723      	str	r3, [r4, #112]	@ 0x70
10002604:	6763      	str	r3, [r4, #116]	@ 0x74
10002606:	67a3      	str	r3, [r4, #120]	@ 0x78
10002608:	67e3      	str	r3, [r4, #124]	@ 0x7c
1000260a:	6223      	str	r3, [r4, #32]
1000260c:	61e3      	str	r3, [r4, #28]
1000260e:	e7e5      	b.n	100025dc <__aeabi_float_init+0x1c>
10002610:	00004653 	.word	0x00004653
10002614:	200015b0 	.word	0x200015b0
10002618:	0000334c 	.word	0x0000334c
1000261c:	20002240 	.word	0x20002240
10002620:	10002625 	.word	0x10002625

10002624 <float_table_shim_on_use_helper>:
10002624:	b507      	push	{r0, r1, r2, lr}
10002626:	4660      	mov	r0, ip
10002628:	8801      	ldrh	r1, [r0, #0]
1000262a:	0a0a      	lsrs	r2, r1, #8
1000262c:	3002      	adds	r0, #2
1000262e:	2adf      	cmp	r2, #223	@ 0xdf
10002630:	d1fa      	bne.n	10002628 <float_table_shim_on_use_helper+0x4>
10002632:	b2c9      	uxtb	r1, r1
10002634:	0882      	lsrs	r2, r0, #2
10002636:	d304      	bcc.n	10002642 <float_table_shim_on_use_helper+0x1e>
10002638:	8802      	ldrh	r2, [r0, #0]
1000263a:	8840      	ldrh	r0, [r0, #2]
1000263c:	0400      	lsls	r0, r0, #16
1000263e:	4310      	orrs	r0, r2
10002640:	e000      	b.n	10002644 <float_table_shim_on_use_helper+0x20>
10002642:	6800      	ldr	r0, [r0, #0]
10002644:	4a01      	ldr	r2, [pc, #4]	@ (1000264c <float_table_shim_on_use_helper+0x28>)
10002646:	5050      	str	r0, [r2, r1]
10002648:	9003      	str	r0, [sp, #12]
1000264a:	bd07      	pop	{r0, r1, r2, pc}
1000264c:	200015b0 	.word	0x200015b0

10002650 <__aeabi_mem_init>:
10002650:	4801      	ldr	r0, [pc, #4]	@ (10002658 <__aeabi_mem_init+0x8>)
10002652:	2104      	movs	r1, #4
10002654:	4b01      	ldr	r3, [pc, #4]	@ (1000265c <__aeabi_mem_init+0xc>)
10002656:	4718      	bx	r3
10002658:	20001010 	.word	0x20001010
1000265c:	100018a1 	.word	0x100018a1

10002660 <__wrap_memset>:
10002660:	4b01      	ldr	r3, [pc, #4]	@ (10002668 <__wrap_memset+0x8>)
10002662:	681b      	ldr	r3, [r3, #0]
10002664:	4718      	bx	r3
10002666:	0000      	.short	0x0000
10002668:	20001010 	.word	0x20001010

1000266c <__wrap___aeabi_memcpy>:
1000266c:	4b01      	ldr	r3, [pc, #4]	@ (10002674 <__wrap___aeabi_memcpy+0x8>)
1000266e:	685b      	ldr	r3, [r3, #4]
10002670:	4718      	bx	r3
10002672:	0000      	.short	0x0000
10002674:	20001010 	.word	0x20001010

10002678 <_out_null>:
10002678:	4770      	bx	lr
1000267a:	46c0      	nop			@ (mov r8, r8)

1000267c <_out_rev>:
1000267c:	b5f8      	push	{r3, r4, r5, r6, r7, lr}
1000267e:	4657      	mov	r7, sl
10002680:	46de      	mov	lr, fp
10002682:	464e      	mov	r6, r9
10002684:	4645      	mov	r5, r8
10002686:	b5e0      	push	{r5, r6, r7, lr}
10002688:	4699      	mov	r9, r3
1000268a:	9b0a      	ldr	r3, [sp, #40]	@ 0x28
1000268c:	0007      	movs	r7, r0
1000268e:	469a      	mov	sl, r3
10002690:	9b0d      	ldr	r3, [sp, #52]	@ 0x34
10002692:	4688      	mov	r8, r1
10002694:	4693      	mov	fp, r2
10002696:	9c0b      	ldr	r4, [sp, #44]	@ 0x2c
10002698:	079b      	lsls	r3, r3, #30
1000269a:	d13b      	bne.n	10002714 <_out_rev+0x98>
1000269c:	9b0c      	ldr	r3, [sp, #48]	@ 0x30
1000269e:	429c      	cmp	r4, r3
100026a0:	d23d      	bcs.n	1000271e <_out_rev+0xa2>
100026a2:	1b1e      	subs	r6, r3, r4
100026a4:	940b      	str	r4, [sp, #44]	@ 0x2c
100026a6:	0015      	movs	r5, r2
100026a8:	000c      	movs	r4, r1
100026aa:	445e      	add	r6, fp
100026ac:	002a      	movs	r2, r5
100026ae:	464b      	mov	r3, r9
100026b0:	3501      	adds	r5, #1
100026b2:	0021      	movs	r1, r4
100026b4:	2020      	movs	r0, #32
100026b6:	47b8      	blx	r7
100026b8:	42b5      	cmp	r5, r6
100026ba:	d1f7      	bne.n	100026ac <_out_rev+0x30>
100026bc:	46a0      	mov	r8, r4
100026be:	9c0b      	ldr	r4, [sp, #44]	@ 0x2c
100026c0:	2c00      	cmp	r4, #0
100026c2:	d020      	beq.n	10002706 <_out_rev+0x8a>
100026c4:	4645      	mov	r5, r8
100026c6:	1936      	adds	r6, r6, r4
100026c8:	4653      	mov	r3, sl
100026ca:	1b32      	subs	r2, r6, r4
100026cc:	3c01      	subs	r4, #1
100026ce:	5d18      	ldrb	r0, [r3, r4]
100026d0:	0029      	movs	r1, r5
100026d2:	464b      	mov	r3, r9
100026d4:	47b8      	blx	r7
100026d6:	2c00      	cmp	r4, #0
100026d8:	d1f6      	bne.n	100026c8 <_out_rev+0x4c>
100026da:	002b      	movs	r3, r5
100026dc:	0035      	movs	r5, r6
100026de:	4698      	mov	r8, r3
100026e0:	9b0d      	ldr	r3, [sp, #52]	@ 0x34
100026e2:	079b      	lsls	r3, r3, #30
100026e4:	d50f      	bpl.n	10002706 <_out_rev+0x8a>
100026e6:	465b      	mov	r3, fp
100026e8:	1aec      	subs	r4, r5, r3
100026ea:	9b0c      	ldr	r3, [sp, #48]	@ 0x30
100026ec:	42a3      	cmp	r3, r4
100026ee:	d90a      	bls.n	10002706 <_out_rev+0x8a>
100026f0:	4646      	mov	r6, r8
100026f2:	4698      	mov	r8, r3
100026f4:	002a      	movs	r2, r5
100026f6:	464b      	mov	r3, r9
100026f8:	0031      	movs	r1, r6
100026fa:	2020      	movs	r0, #32
100026fc:	3401      	adds	r4, #1
100026fe:	47b8      	blx	r7
10002700:	3501      	adds	r5, #1
10002702:	4544      	cmp	r4, r8
10002704:	d3f6      	bcc.n	100026f4 <_out_rev+0x78>
10002706:	0028      	movs	r0, r5
10002708:	bcf0      	pop	{r4, r5, r6, r7}
1000270a:	46bb      	mov	fp, r7
1000270c:	46b2      	mov	sl, r6
1000270e:	46a9      	mov	r9, r5
10002710:	46a0      	mov	r8, r4
10002712:	bdf8      	pop	{r3, r4, r5, r6, r7, pc}
10002714:	0016      	movs	r6, r2
10002716:	0015      	movs	r5, r2
10002718:	2c00      	cmp	r4, #0
1000271a:	d1d3      	bne.n	100026c4 <_out_rev+0x48>
1000271c:	e7e0      	b.n	100026e0 <_out_rev+0x64>
1000271e:	0016      	movs	r6, r2
10002720:	2c00      	cmp	r4, #0
10002722:	d1cf      	bne.n	100026c4 <_out_rev+0x48>
10002724:	0015      	movs	r5, r2
10002726:	e7ee      	b.n	10002706 <_out_rev+0x8a>

10002728 <_ntoa_format>:
10002728:	b5f0      	push	{r4, r5, r6, r7, lr}
1000272a:	464f      	mov	r7, r9
1000272c:	4646      	mov	r6, r8
1000272e:	46d6      	mov	lr, sl
10002730:	b5c0      	push	{r6, r7, lr}
10002732:	b084      	sub	sp, #16
10002734:	4698      	mov	r8, r3
10002736:	ab0e      	add	r3, sp, #56	@ 0x38
10002738:	781b      	ldrb	r3, [r3, #0]
1000273a:	4694      	mov	ip, r2
1000273c:	4699      	mov	r9, r3
1000273e:	9b12      	ldr	r3, [sp, #72]	@ 0x48
10002740:	9c0d      	ldr	r4, [sp, #52]	@ 0x34
10002742:	9f10      	ldr	r7, [sp, #64]	@ 0x40
10002744:	9e11      	ldr	r6, [sp, #68]	@ 0x44
10002746:	079a      	lsls	r2, r3, #30
10002748:	d425      	bmi.n	10002796 <_ntoa_format+0x6e>
1000274a:	2e00      	cmp	r6, #0
1000274c:	d165      	bne.n	1000281a <_ntoa_format+0xf2>
1000274e:	42bc      	cmp	r4, r7
10002750:	d221      	bcs.n	10002796 <_ntoa_format+0x6e>
10002752:	2201      	movs	r2, #1
10002754:	401a      	ands	r2, r3
10002756:	4692      	mov	sl, r2
10002758:	2c20      	cmp	r4, #32
1000275a:	d100      	bne.n	1000275e <_ntoa_format+0x36>
1000275c:	e0e9      	b.n	10002932 <_ntoa_format+0x20a>
1000275e:	9a0c      	ldr	r2, [sp, #48]	@ 0x30
10002760:	1e55      	subs	r5, r2, #1
10002762:	2230      	movs	r2, #48	@ 0x30
10002764:	e002      	b.n	1000276c <_ntoa_format+0x44>
10002766:	2c20      	cmp	r4, #32
10002768:	d100      	bne.n	1000276c <_ntoa_format+0x44>
1000276a:	e07b      	b.n	10002864 <_ntoa_format+0x13c>
1000276c:	3401      	adds	r4, #1
1000276e:	552a      	strb	r2, [r5, r4]
10002770:	42a7      	cmp	r7, r4
10002772:	d8f8      	bhi.n	10002766 <_ntoa_format+0x3e>
10002774:	4652      	mov	r2, sl
10002776:	2a00      	cmp	r2, #0
10002778:	d00d      	beq.n	10002796 <_ntoa_format+0x6e>
1000277a:	42b4      	cmp	r4, r6
1000277c:	d20b      	bcs.n	10002796 <_ntoa_format+0x6e>
1000277e:	9a0c      	ldr	r2, [sp, #48]	@ 0x30
10002780:	1e55      	subs	r5, r2, #1
10002782:	2230      	movs	r2, #48	@ 0x30
10002784:	2c20      	cmp	r4, #32
10002786:	d102      	bne.n	1000278e <_ntoa_format+0x66>
10002788:	e071      	b.n	1000286e <_ntoa_format+0x146>
1000278a:	2c20      	cmp	r4, #32
1000278c:	d02d      	beq.n	100027ea <_ntoa_format+0xc2>
1000278e:	3401      	adds	r4, #1
10002790:	552a      	strb	r2, [r5, r4]
10002792:	42b4      	cmp	r4, r6
10002794:	d1f9      	bne.n	1000278a <_ntoa_format+0x62>
10002796:	06da      	lsls	r2, r3, #27
10002798:	d53c      	bpl.n	10002814 <_ntoa_format+0xec>
1000279a:	055a      	lsls	r2, r3, #21
1000279c:	d42e      	bmi.n	100027fc <_ntoa_format+0xd4>
1000279e:	2c00      	cmp	r4, #0
100027a0:	d128      	bne.n	100027f4 <_ntoa_format+0xcc>
100027a2:	9a0f      	ldr	r2, [sp, #60]	@ 0x3c
100027a4:	2a10      	cmp	r2, #16
100027a6:	d100      	bne.n	100027aa <_ntoa_format+0x82>
100027a8:	e0b6      	b.n	10002918 <_ntoa_format+0x1f0>
100027aa:	2a02      	cmp	r2, #2
100027ac:	d100      	bne.n	100027b0 <_ntoa_format+0x88>
100027ae:	e0bc      	b.n	1000292a <_ntoa_format+0x202>
100027b0:	2230      	movs	r2, #48	@ 0x30
100027b2:	9c0c      	ldr	r4, [sp, #48]	@ 0x30
100027b4:	7022      	strb	r2, [r4, #0]
100027b6:	2401      	movs	r4, #1
100027b8:	464a      	mov	r2, r9
100027ba:	2a00      	cmp	r2, #0
100027bc:	d165      	bne.n	1000288a <_ntoa_format+0x162>
100027be:	075a      	lsls	r2, r3, #29
100027c0:	d400      	bmi.n	100027c4 <_ntoa_format+0x9c>
100027c2:	e099      	b.n	100028f8 <_ntoa_format+0x1d0>
100027c4:	222b      	movs	r2, #43	@ 0x2b
100027c6:	9d0c      	ldr	r5, [sp, #48]	@ 0x30
100027c8:	552a      	strb	r2, [r5, r4]
100027ca:	3401      	adds	r4, #1
100027cc:	9303      	str	r3, [sp, #12]
100027ce:	9b0c      	ldr	r3, [sp, #48]	@ 0x30
100027d0:	4662      	mov	r2, ip
100027d2:	9300      	str	r3, [sp, #0]
100027d4:	9602      	str	r6, [sp, #8]
100027d6:	4643      	mov	r3, r8
100027d8:	9401      	str	r4, [sp, #4]
100027da:	f7ff ff4f 	bl	1000267c <_out_rev>
100027de:	b004      	add	sp, #16
100027e0:	bce0      	pop	{r5, r6, r7}
100027e2:	46ba      	mov	sl, r7
100027e4:	46b1      	mov	r9, r6
100027e6:	46a8      	mov	r8, r5
100027e8:	bdf0      	pop	{r4, r5, r6, r7, pc}
100027ea:	2420      	movs	r4, #32
100027ec:	06da      	lsls	r2, r3, #27
100027ee:	d5ed      	bpl.n	100027cc <_ntoa_format+0xa4>
100027f0:	055a      	lsls	r2, r3, #21
100027f2:	d403      	bmi.n	100027fc <_ntoa_format+0xd4>
100027f4:	42a7      	cmp	r7, r4
100027f6:	d066      	beq.n	100028c6 <_ntoa_format+0x19e>
100027f8:	42b4      	cmp	r4, r6
100027fa:	d064      	beq.n	100028c6 <_ntoa_format+0x19e>
100027fc:	9a0f      	ldr	r2, [sp, #60]	@ 0x3c
100027fe:	2a10      	cmp	r2, #16
10002800:	d071      	beq.n	100028e6 <_ntoa_format+0x1be>
10002802:	2a02      	cmp	r2, #2
10002804:	d057      	beq.n	100028b6 <_ntoa_format+0x18e>
10002806:	2c20      	cmp	r4, #32
10002808:	d0e0      	beq.n	100027cc <_ntoa_format+0xa4>
1000280a:	0022      	movs	r2, r4
1000280c:	3401      	adds	r4, #1
1000280e:	2530      	movs	r5, #48	@ 0x30
10002810:	9f0c      	ldr	r7, [sp, #48]	@ 0x30
10002812:	54bd      	strb	r5, [r7, r2]
10002814:	2c20      	cmp	r4, #32
10002816:	d0d9      	beq.n	100027cc <_ntoa_format+0xa4>
10002818:	e7ce      	b.n	100027b8 <_ntoa_format+0x90>
1000281a:	2201      	movs	r2, #1
1000281c:	0015      	movs	r5, r2
1000281e:	401d      	ands	r5, r3
10002820:	46aa      	mov	sl, r5
10002822:	421a      	tst	r2, r3
10002824:	d036      	beq.n	10002894 <_ntoa_format+0x16c>
10002826:	464a      	mov	r2, r9
10002828:	2a00      	cmp	r2, #0
1000282a:	d14a      	bne.n	100028c2 <_ntoa_format+0x19a>
1000282c:	320c      	adds	r2, #12
1000282e:	421a      	tst	r2, r3
10002830:	d147      	bne.n	100028c2 <_ntoa_format+0x19a>
10002832:	42bc      	cmp	r4, r7
10002834:	d2a1      	bcs.n	1000277a <_ntoa_format+0x52>
10002836:	2c20      	cmp	r4, #32
10002838:	d191      	bne.n	1000275e <_ntoa_format+0x36>
1000283a:	2e20      	cmp	r6, #32
1000283c:	d817      	bhi.n	1000286e <_ntoa_format+0x146>
1000283e:	2420      	movs	r4, #32
10002840:	06da      	lsls	r2, r3, #27
10002842:	d5c3      	bpl.n	100027cc <_ntoa_format+0xa4>
10002844:	055a      	lsls	r2, r3, #21
10002846:	d41b      	bmi.n	10002880 <_ntoa_format+0x158>
10002848:	2f20      	cmp	r7, #32
1000284a:	d001      	beq.n	10002850 <_ntoa_format+0x128>
1000284c:	2e20      	cmp	r6, #32
1000284e:	d1d5      	bne.n	100027fc <_ntoa_format+0xd4>
10002850:	221f      	movs	r2, #31
10002852:	9d0f      	ldr	r5, [sp, #60]	@ 0x3c
10002854:	2d10      	cmp	r5, #16
10002856:	d06f      	beq.n	10002938 <_ntoa_format+0x210>
10002858:	2d02      	cmp	r5, #2
1000285a:	d1d8      	bne.n	1000280e <_ntoa_format+0xe6>
1000285c:	2562      	movs	r5, #98	@ 0x62
1000285e:	9f0c      	ldr	r7, [sp, #48]	@ 0x30
10002860:	54bd      	strb	r5, [r7, r2]
10002862:	e7d0      	b.n	10002806 <_ntoa_format+0xde>
10002864:	4652      	mov	r2, sl
10002866:	2a00      	cmp	r2, #0
10002868:	d079      	beq.n	1000295e <_ntoa_format+0x236>
1000286a:	2e20      	cmp	r6, #32
1000286c:	d9bd      	bls.n	100027ea <_ntoa_format+0xc2>
1000286e:	2420      	movs	r4, #32
10002870:	06da      	lsls	r2, r3, #27
10002872:	d5ab      	bpl.n	100027cc <_ntoa_format+0xa4>
10002874:	055a      	lsls	r2, r3, #21
10002876:	d403      	bmi.n	10002880 <_ntoa_format+0x158>
10002878:	2f20      	cmp	r7, #32
1000287a:	d0e9      	beq.n	10002850 <_ntoa_format+0x128>
1000287c:	2e20      	cmp	r6, #32
1000287e:	d0e7      	beq.n	10002850 <_ntoa_format+0x128>
10002880:	9a0f      	ldr	r2, [sp, #60]	@ 0x3c
10002882:	2a10      	cmp	r2, #16
10002884:	d1a2      	bne.n	100027cc <_ntoa_format+0xa4>
10002886:	2420      	movs	r4, #32
10002888:	e7a0      	b.n	100027cc <_ntoa_format+0xa4>
1000288a:	222d      	movs	r2, #45	@ 0x2d
1000288c:	9d0c      	ldr	r5, [sp, #48]	@ 0x30
1000288e:	552a      	strb	r2, [r5, r4]
10002890:	3401      	adds	r4, #1
10002892:	e79b      	b.n	100027cc <_ntoa_format+0xa4>
10002894:	42bc      	cmp	r4, r7
10002896:	d300      	bcc.n	1000289a <_ntoa_format+0x172>
10002898:	e77d      	b.n	10002796 <_ntoa_format+0x6e>
1000289a:	2c20      	cmp	r4, #32
1000289c:	d000      	beq.n	100028a0 <_ntoa_format+0x178>
1000289e:	e75e      	b.n	1000275e <_ntoa_format+0x36>
100028a0:	06da      	lsls	r2, r3, #27
100028a2:	d5f0      	bpl.n	10002886 <_ntoa_format+0x15e>
100028a4:	055a      	lsls	r2, r3, #21
100028a6:	d4ee      	bmi.n	10002886 <_ntoa_format+0x15e>
100028a8:	2f20      	cmp	r7, #32
100028aa:	d062      	beq.n	10002972 <_ntoa_format+0x24a>
100028ac:	2e20      	cmp	r6, #32
100028ae:	d1ea      	bne.n	10002886 <_ntoa_format+0x15e>
100028b0:	0034      	movs	r4, r6
100028b2:	221f      	movs	r2, #31
100028b4:	e7cd      	b.n	10002852 <_ntoa_format+0x12a>
100028b6:	2c20      	cmp	r4, #32
100028b8:	d100      	bne.n	100028bc <_ntoa_format+0x194>
100028ba:	e787      	b.n	100027cc <_ntoa_format+0xa4>
100028bc:	0022      	movs	r2, r4
100028be:	3401      	adds	r4, #1
100028c0:	e7cc      	b.n	1000285c <_ntoa_format+0x134>
100028c2:	3e01      	subs	r6, #1
100028c4:	e7b5      	b.n	10002832 <_ntoa_format+0x10a>
100028c6:	1e62      	subs	r2, r4, #1
100028c8:	2c01      	cmp	r4, #1
100028ca:	d1c2      	bne.n	10002852 <_ntoa_format+0x12a>
100028cc:	9a0f      	ldr	r2, [sp, #60]	@ 0x3c
100028ce:	2a10      	cmp	r2, #16
100028d0:	d000      	beq.n	100028d4 <_ntoa_format+0x1ac>
100028d2:	e76a      	b.n	100027aa <_ntoa_format+0x82>
100028d4:	069a      	lsls	r2, r3, #26
100028d6:	d53b      	bpl.n	10002950 <_ntoa_format+0x228>
100028d8:	2258      	movs	r2, #88	@ 0x58
100028da:	9c0c      	ldr	r4, [sp, #48]	@ 0x30
100028dc:	7022      	strb	r2, [r4, #0]
100028de:	3a28      	subs	r2, #40	@ 0x28
100028e0:	7062      	strb	r2, [r4, #1]
100028e2:	2402      	movs	r4, #2
100028e4:	e768      	b.n	100027b8 <_ntoa_format+0x90>
100028e6:	069a      	lsls	r2, r3, #26
100028e8:	d40e      	bmi.n	10002908 <_ntoa_format+0x1e0>
100028ea:	2c20      	cmp	r4, #32
100028ec:	d0cb      	beq.n	10002886 <_ntoa_format+0x15e>
100028ee:	2278      	movs	r2, #120	@ 0x78
100028f0:	9d0c      	ldr	r5, [sp, #48]	@ 0x30
100028f2:	552a      	strb	r2, [r5, r4]
100028f4:	3401      	adds	r4, #1
100028f6:	e786      	b.n	10002806 <_ntoa_format+0xde>
100028f8:	071a      	lsls	r2, r3, #28
100028fa:	d400      	bmi.n	100028fe <_ntoa_format+0x1d6>
100028fc:	e766      	b.n	100027cc <_ntoa_format+0xa4>
100028fe:	2220      	movs	r2, #32
10002900:	9d0c      	ldr	r5, [sp, #48]	@ 0x30
10002902:	552a      	strb	r2, [r5, r4]
10002904:	3401      	adds	r4, #1
10002906:	e761      	b.n	100027cc <_ntoa_format+0xa4>
10002908:	2c20      	cmp	r4, #32
1000290a:	d0bc      	beq.n	10002886 <_ntoa_format+0x15e>
1000290c:	2558      	movs	r5, #88	@ 0x58
1000290e:	9a0c      	ldr	r2, [sp, #48]	@ 0x30
10002910:	1912      	adds	r2, r2, r4
10002912:	7015      	strb	r5, [r2, #0]
10002914:	3401      	adds	r4, #1
10002916:	e776      	b.n	10002806 <_ntoa_format+0xde>
10002918:	069a      	lsls	r2, r3, #26
1000291a:	d508      	bpl.n	1000292e <_ntoa_format+0x206>
1000291c:	2258      	movs	r2, #88	@ 0x58
1000291e:	9c0c      	ldr	r4, [sp, #48]	@ 0x30
10002920:	7022      	strb	r2, [r4, #0]
10002922:	2230      	movs	r2, #48	@ 0x30
10002924:	7062      	strb	r2, [r4, #1]
10002926:	2402      	movs	r4, #2
10002928:	e746      	b.n	100027b8 <_ntoa_format+0x90>
1000292a:	3260      	adds	r2, #96	@ 0x60
1000292c:	e7f7      	b.n	1000291e <_ntoa_format+0x1f6>
1000292e:	2278      	movs	r2, #120	@ 0x78
10002930:	e7f5      	b.n	1000291e <_ntoa_format+0x1f6>
10002932:	2a00      	cmp	r2, #0
10002934:	d183      	bne.n	1000283e <_ntoa_format+0x116>
10002936:	e7b3      	b.n	100028a0 <_ntoa_format+0x178>
10002938:	1ea2      	subs	r2, r4, #2
1000293a:	3c01      	subs	r4, #1
1000293c:	069d      	lsls	r5, r3, #26
1000293e:	d403      	bmi.n	10002948 <_ntoa_format+0x220>
10002940:	2578      	movs	r5, #120	@ 0x78
10002942:	9f0c      	ldr	r7, [sp, #48]	@ 0x30
10002944:	54bd      	strb	r5, [r7, r2]
10002946:	e760      	b.n	1000280a <_ntoa_format+0xe2>
10002948:	2558      	movs	r5, #88	@ 0x58
1000294a:	9f0c      	ldr	r7, [sp, #48]	@ 0x30
1000294c:	54bd      	strb	r5, [r7, r2]
1000294e:	e75c      	b.n	1000280a <_ntoa_format+0xe2>
10002950:	2278      	movs	r2, #120	@ 0x78
10002952:	9c0c      	ldr	r4, [sp, #48]	@ 0x30
10002954:	7022      	strb	r2, [r4, #0]
10002956:	3a48      	subs	r2, #72	@ 0x48
10002958:	7062      	strb	r2, [r4, #1]
1000295a:	2402      	movs	r4, #2
1000295c:	e72c      	b.n	100027b8 <_ntoa_format+0x90>
1000295e:	06da      	lsls	r2, r3, #27
10002960:	d400      	bmi.n	10002964 <_ntoa_format+0x23c>
10002962:	e733      	b.n	100027cc <_ntoa_format+0xa4>
10002964:	055a      	lsls	r2, r3, #21
10002966:	d48b      	bmi.n	10002880 <_ntoa_format+0x158>
10002968:	2f20      	cmp	r7, #32
1000296a:	d000      	beq.n	1000296e <_ntoa_format+0x246>
1000296c:	e744      	b.n	100027f8 <_ntoa_format+0xd0>
1000296e:	221f      	movs	r2, #31
10002970:	e76f      	b.n	10002852 <_ntoa_format+0x12a>
10002972:	003c      	movs	r4, r7
10002974:	221f      	movs	r2, #31
10002976:	e76c      	b.n	10002852 <_ntoa_format+0x12a>

10002978 <_out_char>:
10002978:	b510      	push	{r4, lr}
1000297a:	2800      	cmp	r0, #0
1000297c:	d100      	bne.n	10002980 <_out_char+0x8>
1000297e:	bd10      	pop	{r4, pc}
10002980:	f001 fb64 	bl	1000404c <__wrap_putchar>
10002984:	e7fb      	b.n	1000297e <_out_char+0x6>
10002986:	46c0      	nop			@ (mov r8, r8)

10002988 <_out_fct>:
10002988:	000b      	movs	r3, r1
1000298a:	b510      	push	{r4, lr}
1000298c:	2800      	cmp	r0, #0
1000298e:	d002      	beq.n	10002996 <_out_fct+0xe>
10002990:	6849      	ldr	r1, [r1, #4]
10002992:	681b      	ldr	r3, [r3, #0]
10002994:	4798      	blx	r3
10002996:	bd10      	pop	{r4, pc}

10002998 <_etoa>:
10002998:	b5f0      	push	{r4, r5, r6, r7, lr}
1000299a:	4657      	mov	r7, sl
1000299c:	464e      	mov	r6, r9
1000299e:	4645      	mov	r5, r8
100029a0:	46de      	mov	lr, fp
100029a2:	b5e0      	push	{r5, r6, r7, lr}
100029a4:	b099      	sub	sp, #100	@ 0x64
100029a6:	4682      	mov	sl, r0
100029a8:	4689      	mov	r9, r1
100029aa:	4690      	mov	r8, r2
100029ac:	9308      	str	r3, [sp, #32]
100029ae:	9a22      	ldr	r2, [sp, #136]	@ 0x88
100029b0:	9b23      	ldr	r3, [sp, #140]	@ 0x8c
100029b2:	0010      	movs	r0, r2
100029b4:	0019      	movs	r1, r3
100029b6:	f7ff fa8e 	bl	10001ed6 <__wrap___aeabi_dcmpun>
100029ba:	2800      	cmp	r0, #0
100029bc:	d000      	beq.n	100029c0 <_etoa+0x28>
100029be:	e0cd      	b.n	10002b5c <_etoa+0x1c4>
100029c0:	9822      	ldr	r0, [sp, #136]	@ 0x88
100029c2:	9923      	ldr	r1, [sp, #140]	@ 0x8c
100029c4:	2201      	movs	r2, #1
100029c6:	4bd9      	ldr	r3, [pc, #868]	@ (10002d2c <_etoa+0x394>)
100029c8:	4252      	negs	r2, r2
100029ca:	f7ff fa7f 	bl	10001ecc <__wrap___aeabi_dcmpgt>
100029ce:	2800      	cmp	r0, #0
100029d0:	d000      	beq.n	100029d4 <_etoa+0x3c>
100029d2:	e0c3      	b.n	10002b5c <_etoa+0x1c4>
100029d4:	9822      	ldr	r0, [sp, #136]	@ 0x88
100029d6:	9923      	ldr	r1, [sp, #140]	@ 0x8c
100029d8:	2201      	movs	r2, #1
100029da:	4bd5      	ldr	r3, [pc, #852]	@ (10002d30 <_etoa+0x398>)
100029dc:	4252      	negs	r2, r2
100029de:	f7ff fa67 	bl	10001eb0 <__wrap___aeabi_dcmplt>
100029e2:	2800      	cmp	r0, #0
100029e4:	d000      	beq.n	100029e8 <_etoa+0x50>
100029e6:	e0b9      	b.n	10002b5c <_etoa+0x1c4>
100029e8:	9822      	ldr	r0, [sp, #136]	@ 0x88
100029ea:	9923      	ldr	r1, [sp, #140]	@ 0x8c
100029ec:	2200      	movs	r2, #0
100029ee:	2300      	movs	r3, #0
100029f0:	f7ff fa5e 	bl	10001eb0 <__wrap___aeabi_dcmplt>
100029f4:	2800      	cmp	r0, #0
100029f6:	d000      	beq.n	100029fa <_etoa+0x62>
100029f8:	e1f1      	b.n	10002dde <_etoa+0x446>
100029fa:	9e22      	ldr	r6, [sp, #136]	@ 0x88
100029fc:	9f23      	ldr	r7, [sp, #140]	@ 0x8c
100029fe:	2380      	movs	r3, #128	@ 0x80
10002a00:	9a26      	ldr	r2, [sp, #152]	@ 0x98
10002a02:	00db      	lsls	r3, r3, #3
10002a04:	401a      	ands	r2, r3
10002a06:	920d      	str	r2, [sp, #52]	@ 0x34
10002a08:	9a26      	ldr	r2, [sp, #152]	@ 0x98
10002a0a:	421a      	tst	r2, r3
10002a0c:	d101      	bne.n	10002a12 <_etoa+0x7a>
10002a0e:	2306      	movs	r3, #6
10002a10:	9324      	str	r3, [sp, #144]	@ 0x90
10002a12:	2380      	movs	r3, #128	@ 0x80
10002a14:	9a26      	ldr	r2, [sp, #152]	@ 0x98
10002a16:	011b      	lsls	r3, r3, #4
10002a18:	401a      	ands	r2, r3
10002a1a:	003b      	movs	r3, r7
10002a1c:	4693      	mov	fp, r2
10002a1e:	9609      	str	r6, [sp, #36]	@ 0x24
10002a20:	4333      	orrs	r3, r6
10002a22:	d000      	beq.n	10002a26 <_etoa+0x8e>
10002a24:	e0b3      	b.n	10002b8e <_etoa+0x1f6>
10002a26:	2a00      	cmp	r2, #0
10002a28:	d000      	beq.n	10002a2c <_etoa+0x94>
10002a2a:	e1c2      	b.n	10002db2 <_etoa+0x41a>
10002a2c:	2300      	movs	r3, #0
10002a2e:	2400      	movs	r4, #0
10002a30:	930a      	str	r3, [sp, #40]	@ 0x28
10002a32:	940b      	str	r4, [sp, #44]	@ 0x2c
10002a34:	2300      	movs	r3, #0
10002a36:	2504      	movs	r5, #4
10002a38:	9309      	str	r3, [sp, #36]	@ 0x24
10002a3a:	9b25      	ldr	r3, [sp, #148]	@ 0x94
10002a3c:	2400      	movs	r4, #0
10002a3e:	42ab      	cmp	r3, r5
10002a40:	d900      	bls.n	10002a44 <_etoa+0xac>
10002a42:	1b5c      	subs	r4, r3, r5
10002a44:	2302      	movs	r3, #2
10002a46:	9a26      	ldr	r2, [sp, #152]	@ 0x98
10002a48:	401a      	ands	r2, r3
10002a4a:	920c      	str	r2, [sp, #48]	@ 0x30
10002a4c:	9a26      	ldr	r2, [sp, #152]	@ 0x98
10002a4e:	4213      	tst	r3, r2
10002a50:	d003      	beq.n	10002a5a <_etoa+0xc2>
10002a52:	426b      	negs	r3, r5
10002a54:	416b      	adcs	r3, r5
10002a56:	425b      	negs	r3, r3
10002a58:	401c      	ands	r4, r3
10002a5a:	9b09      	ldr	r3, [sp, #36]	@ 0x24
10002a5c:	2b00      	cmp	r3, #0
10002a5e:	d007      	beq.n	10002a70 <_etoa+0xd8>
10002a60:	9a0a      	ldr	r2, [sp, #40]	@ 0x28
10002a62:	9b0b      	ldr	r3, [sp, #44]	@ 0x2c
10002a64:	0030      	movs	r0, r6
10002a66:	0039      	movs	r1, r7
10002a68:	f7ff f9c1 	bl	10001dee <__wrap___aeabi_ddiv>
10002a6c:	0006      	movs	r6, r0
10002a6e:	000f      	movs	r7, r1
10002a70:	9822      	ldr	r0, [sp, #136]	@ 0x88
10002a72:	9923      	ldr	r1, [sp, #140]	@ 0x8c
10002a74:	2200      	movs	r2, #0
10002a76:	2300      	movs	r3, #0
10002a78:	f7ff fa1a 	bl	10001eb0 <__wrap___aeabi_dcmplt>
10002a7c:	2800      	cmp	r0, #0
10002a7e:	d003      	beq.n	10002a88 <_etoa+0xf0>
10002a80:	2180      	movs	r1, #128	@ 0x80
10002a82:	0609      	lsls	r1, r1, #24
10002a84:	187b      	adds	r3, r7, r1
10002a86:	001f      	movs	r7, r3
10002a88:	9a26      	ldr	r2, [sp, #152]	@ 0x98
10002a8a:	4baa      	ldr	r3, [pc, #680]	@ (10002d34 <_etoa+0x39c>)
10002a8c:	9600      	str	r6, [sp, #0]
10002a8e:	9701      	str	r7, [sp, #4]
10002a90:	4013      	ands	r3, r2
10002a92:	9e08      	ldr	r6, [sp, #32]
10002a94:	9304      	str	r3, [sp, #16]
10002a96:	9b24      	ldr	r3, [sp, #144]	@ 0x90
10002a98:	9403      	str	r4, [sp, #12]
10002a9a:	9302      	str	r3, [sp, #8]
10002a9c:	4642      	mov	r2, r8
10002a9e:	0033      	movs	r3, r6
10002aa0:	4649      	mov	r1, r9
10002aa2:	4650      	mov	r0, sl
10002aa4:	f000 f9aa 	bl	10002dfc <_ftoa>
10002aa8:	0004      	movs	r4, r0
10002aaa:	2d00      	cmp	r5, #0
10002aac:	d067      	beq.n	10002b7e <_etoa+0x1e6>
10002aae:	2020      	movs	r0, #32
10002ab0:	9a26      	ldr	r2, [sp, #152]	@ 0x98
10002ab2:	4649      	mov	r1, r9
10002ab4:	4002      	ands	r2, r0
10002ab6:	0013      	movs	r3, r2
10002ab8:	425a      	negs	r2, r3
10002aba:	4153      	adcs	r3, r2
10002abc:	425b      	negs	r3, r3
10002abe:	1c62      	adds	r2, r4, #1
10002ac0:	4018      	ands	r0, r3
10002ac2:	920a      	str	r2, [sp, #40]	@ 0x28
10002ac4:	0033      	movs	r3, r6
10002ac6:	0022      	movs	r2, r4
10002ac8:	3045      	adds	r0, #69	@ 0x45
10002aca:	47d0      	blx	sl
10002acc:	9a09      	ldr	r2, [sp, #36]	@ 0x24
10002ace:	1e6f      	subs	r7, r5, #1
10002ad0:	17d3      	asrs	r3, r2, #31
10002ad2:	18d4      	adds	r4, r2, r3
10002ad4:	405c      	eors	r4, r3
10002ad6:	0fd3      	lsrs	r3, r2, #31
10002ad8:	469b      	mov	fp, r3
10002ada:	2500      	movs	r5, #0
10002adc:	e001      	b.n	10002ae2 <_etoa+0x14a>
10002ade:	2d20      	cmp	r5, #32
10002ae0:	d013      	beq.n	10002b0a <_etoa+0x172>
10002ae2:	aa08      	add	r2, sp, #32
10002ae4:	4694      	mov	ip, r2
10002ae6:	231f      	movs	r3, #31
10002ae8:	0020      	movs	r0, r4
10002aea:	4463      	add	r3, ip
10002aec:	210a      	movs	r1, #10
10002aee:	3501      	adds	r5, #1
10002af0:	195e      	adds	r6, r3, r5
10002af2:	f7fe ff2f 	bl	10001954 <__wrap___aeabi_uidiv>
10002af6:	3130      	adds	r1, #48	@ 0x30
10002af8:	7031      	strb	r1, [r6, #0]
10002afa:	0020      	movs	r0, r4
10002afc:	210a      	movs	r1, #10
10002afe:	f7fe ff29 	bl	10001954 <__wrap___aeabi_uidiv>
10002b02:	0026      	movs	r6, r4
10002b04:	0004      	movs	r4, r0
10002b06:	2e09      	cmp	r6, #9
10002b08:	d8e9      	bhi.n	10002ade <_etoa+0x146>
10002b0a:	2305      	movs	r3, #5
10002b0c:	9306      	str	r3, [sp, #24]
10002b0e:	2300      	movs	r3, #0
10002b10:	9304      	str	r3, [sp, #16]
10002b12:	330a      	adds	r3, #10
10002b14:	9303      	str	r3, [sp, #12]
10002b16:	465b      	mov	r3, fp
10002b18:	9e08      	ldr	r6, [sp, #32]
10002b1a:	9302      	str	r3, [sp, #8]
10002b1c:	ab10      	add	r3, sp, #64	@ 0x40
10002b1e:	9a0a      	ldr	r2, [sp, #40]	@ 0x28
10002b20:	9300      	str	r3, [sp, #0]
10002b22:	4649      	mov	r1, r9
10002b24:	0033      	movs	r3, r6
10002b26:	4650      	mov	r0, sl
10002b28:	9705      	str	r7, [sp, #20]
10002b2a:	9501      	str	r5, [sp, #4]
10002b2c:	f7ff fdfc 	bl	10002728 <_ntoa_format>
10002b30:	9a0c      	ldr	r2, [sp, #48]	@ 0x30
10002b32:	0004      	movs	r4, r0
10002b34:	2a00      	cmp	r2, #0
10002b36:	d022      	beq.n	10002b7e <_etoa+0x1e6>
10002b38:	4642      	mov	r2, r8
10002b3a:	1a85      	subs	r5, r0, r2
10002b3c:	9a25      	ldr	r2, [sp, #148]	@ 0x94
10002b3e:	42aa      	cmp	r2, r5
10002b40:	d91d      	bls.n	10002b7e <_etoa+0x1e6>
10002b42:	46b0      	mov	r8, r6
10002b44:	4657      	mov	r7, sl
10002b46:	0016      	movs	r6, r2
10002b48:	0022      	movs	r2, r4
10002b4a:	4643      	mov	r3, r8
10002b4c:	4649      	mov	r1, r9
10002b4e:	2020      	movs	r0, #32
10002b50:	3501      	adds	r5, #1
10002b52:	47b8      	blx	r7
10002b54:	3401      	adds	r4, #1
10002b56:	42ae      	cmp	r6, r5
10002b58:	d8f6      	bhi.n	10002b48 <_etoa+0x1b0>
10002b5a:	e010      	b.n	10002b7e <_etoa+0x1e6>
10002b5c:	9b26      	ldr	r3, [sp, #152]	@ 0x98
10002b5e:	4642      	mov	r2, r8
10002b60:	9304      	str	r3, [sp, #16]
10002b62:	9b25      	ldr	r3, [sp, #148]	@ 0x94
10002b64:	4649      	mov	r1, r9
10002b66:	9303      	str	r3, [sp, #12]
10002b68:	9b24      	ldr	r3, [sp, #144]	@ 0x90
10002b6a:	4650      	mov	r0, sl
10002b6c:	9302      	str	r3, [sp, #8]
10002b6e:	9b22      	ldr	r3, [sp, #136]	@ 0x88
10002b70:	9c23      	ldr	r4, [sp, #140]	@ 0x8c
10002b72:	9300      	str	r3, [sp, #0]
10002b74:	9401      	str	r4, [sp, #4]
10002b76:	9b08      	ldr	r3, [sp, #32]
10002b78:	f000 f940 	bl	10002dfc <_ftoa>
10002b7c:	0004      	movs	r4, r0
10002b7e:	0020      	movs	r0, r4
10002b80:	b019      	add	sp, #100	@ 0x64
10002b82:	bcf0      	pop	{r4, r5, r6, r7}
10002b84:	46bb      	mov	fp, r7
10002b86:	46b2      	mov	sl, r6
10002b88:	46a9      	mov	r9, r5
10002b8a:	46a0      	mov	r8, r4
10002b8c:	bdf0      	pop	{r4, r5, r6, r7, pc}
10002b8e:	4b6a      	ldr	r3, [pc, #424]	@ (10002d38 <_etoa+0x3a0>)
10002b90:	0078      	lsls	r0, r7, #1
10002b92:	469c      	mov	ip, r3
10002b94:	0d40      	lsrs	r0, r0, #21
10002b96:	4460      	add	r0, ip
10002b98:	f7ff f9ae 	bl	10001ef8 <__wrap___aeabi_i2d>
10002b9c:	4a67      	ldr	r2, [pc, #412]	@ (10002d3c <_etoa+0x3a4>)
10002b9e:	4b68      	ldr	r3, [pc, #416]	@ (10002d40 <_etoa+0x3a8>)
10002ba0:	f7ff f943 	bl	10001e2a <__wrap___aeabi_dmul>
10002ba4:	4a67      	ldr	r2, [pc, #412]	@ (10002d44 <_etoa+0x3ac>)
10002ba6:	4b68      	ldr	r3, [pc, #416]	@ (10002d48 <_etoa+0x3b0>)
10002ba8:	f7ff f918 	bl	10001ddc <__wrap___aeabi_dadd>
10002bac:	4a67      	ldr	r2, [pc, #412]	@ (10002d4c <_etoa+0x3b4>)
10002bae:	033b      	lsls	r3, r7, #12
10002bb0:	0b1b      	lsrs	r3, r3, #12
10002bb2:	431a      	orrs	r2, r3
10002bb4:	0004      	movs	r4, r0
10002bb6:	000d      	movs	r5, r1
10002bb8:	9809      	ldr	r0, [sp, #36]	@ 0x24
10002bba:	0011      	movs	r1, r2
10002bbc:	4b64      	ldr	r3, [pc, #400]	@ (10002d50 <_etoa+0x3b8>)
10002bbe:	2200      	movs	r2, #0
10002bc0:	f7ff f903 	bl	10001dca <__wrap___aeabi_dsub>
10002bc4:	4a63      	ldr	r2, [pc, #396]	@ (10002d54 <_etoa+0x3bc>)
10002bc6:	4b64      	ldr	r3, [pc, #400]	@ (10002d58 <_etoa+0x3c0>)
10002bc8:	f7ff f92f 	bl	10001e2a <__wrap___aeabi_dmul>
10002bcc:	0002      	movs	r2, r0
10002bce:	000b      	movs	r3, r1
10002bd0:	0020      	movs	r0, r4
10002bd2:	0029      	movs	r1, r5
10002bd4:	f7ff f902 	bl	10001ddc <__wrap___aeabi_dadd>
10002bd8:	f7ff f9a6 	bl	10001f28 <__wrap___aeabi_d2iz>
10002bdc:	9009      	str	r0, [sp, #36]	@ 0x24
10002bde:	f7ff f98b 	bl	10001ef8 <__wrap___aeabi_i2d>
10002be2:	4a5e      	ldr	r2, [pc, #376]	@ (10002d5c <_etoa+0x3c4>)
10002be4:	4b5e      	ldr	r3, [pc, #376]	@ (10002d60 <_etoa+0x3c8>)
10002be6:	0004      	movs	r4, r0
10002be8:	000d      	movs	r5, r1
10002bea:	f7ff f91e 	bl	10001e2a <__wrap___aeabi_dmul>
10002bee:	2200      	movs	r2, #0
10002bf0:	4b5c      	ldr	r3, [pc, #368]	@ (10002d64 <_etoa+0x3cc>)
10002bf2:	f7ff f8f3 	bl	10001ddc <__wrap___aeabi_dadd>
10002bf6:	f7ff f997 	bl	10001f28 <__wrap___aeabi_d2iz>
10002bfa:	4a5b      	ldr	r2, [pc, #364]	@ (10002d68 <_etoa+0x3d0>)
10002bfc:	4b5b      	ldr	r3, [pc, #364]	@ (10002d6c <_etoa+0x3d4>)
10002bfe:	0029      	movs	r1, r5
10002c00:	900c      	str	r0, [sp, #48]	@ 0x30
10002c02:	0020      	movs	r0, r4
10002c04:	f7ff f911 	bl	10001e2a <__wrap___aeabi_dmul>
10002c08:	0004      	movs	r4, r0
10002c0a:	980c      	ldr	r0, [sp, #48]	@ 0x30
10002c0c:	000d      	movs	r5, r1
10002c0e:	f7ff f973 	bl	10001ef8 <__wrap___aeabi_i2d>
10002c12:	4a57      	ldr	r2, [pc, #348]	@ (10002d70 <_etoa+0x3d8>)
10002c14:	4b57      	ldr	r3, [pc, #348]	@ (10002d74 <_etoa+0x3dc>)
10002c16:	f7ff f908 	bl	10001e2a <__wrap___aeabi_dmul>
10002c1a:	0002      	movs	r2, r0
10002c1c:	000b      	movs	r3, r1
10002c1e:	0020      	movs	r0, r4
10002c20:	0029      	movs	r1, r5
10002c22:	f7ff f8d2 	bl	10001dca <__wrap___aeabi_dsub>
10002c26:	0004      	movs	r4, r0
10002c28:	000d      	movs	r5, r1
10002c2a:	0002      	movs	r2, r0
10002c2c:	000b      	movs	r3, r1
10002c2e:	940a      	str	r4, [sp, #40]	@ 0x28
10002c30:	950b      	str	r5, [sp, #44]	@ 0x2c
10002c32:	f7ff f8fa 	bl	10001e2a <__wrap___aeabi_dmul>
10002c36:	0004      	movs	r4, r0
10002c38:	000d      	movs	r5, r1
10002c3a:	980a      	ldr	r0, [sp, #40]	@ 0x28
10002c3c:	990b      	ldr	r1, [sp, #44]	@ 0x2c
10002c3e:	0002      	movs	r2, r0
10002c40:	000b      	movs	r3, r1
10002c42:	f7ff f8cb 	bl	10001ddc <__wrap___aeabi_dadd>
10002c46:	2200      	movs	r2, #0
10002c48:	900e      	str	r0, [sp, #56]	@ 0x38
10002c4a:	910f      	str	r1, [sp, #60]	@ 0x3c
10002c4c:	4b4a      	ldr	r3, [pc, #296]	@ (10002d78 <_etoa+0x3e0>)
10002c4e:	0020      	movs	r0, r4
10002c50:	0029      	movs	r1, r5
10002c52:	f7ff f8cc 	bl	10001dee <__wrap___aeabi_ddiv>
10002c56:	2200      	movs	r2, #0
10002c58:	4b48      	ldr	r3, [pc, #288]	@ (10002d7c <_etoa+0x3e4>)
10002c5a:	f7ff f8bf 	bl	10001ddc <__wrap___aeabi_dadd>
10002c5e:	0002      	movs	r2, r0
10002c60:	000b      	movs	r3, r1
10002c62:	0020      	movs	r0, r4
10002c64:	0029      	movs	r1, r5
10002c66:	f7ff f8c2 	bl	10001dee <__wrap___aeabi_ddiv>
10002c6a:	2200      	movs	r2, #0
10002c6c:	4b44      	ldr	r3, [pc, #272]	@ (10002d80 <_etoa+0x3e8>)
10002c6e:	f7ff f8b5 	bl	10001ddc <__wrap___aeabi_dadd>
10002c72:	0002      	movs	r2, r0
10002c74:	000b      	movs	r3, r1
10002c76:	0020      	movs	r0, r4
10002c78:	0029      	movs	r1, r5
10002c7a:	f7ff f8b8 	bl	10001dee <__wrap___aeabi_ddiv>
10002c7e:	9a0a      	ldr	r2, [sp, #40]	@ 0x28
10002c80:	9b0b      	ldr	r3, [sp, #44]	@ 0x2c
10002c82:	000d      	movs	r5, r1
10002c84:	2180      	movs	r1, #128	@ 0x80
10002c86:	0004      	movs	r4, r0
10002c88:	05c9      	lsls	r1, r1, #23
10002c8a:	2000      	movs	r0, #0
10002c8c:	f7ff f89d 	bl	10001dca <__wrap___aeabi_dsub>
10002c90:	0002      	movs	r2, r0
10002c92:	000b      	movs	r3, r1
10002c94:	0020      	movs	r0, r4
10002c96:	0029      	movs	r1, r5
10002c98:	f7ff f8a0 	bl	10001ddc <__wrap___aeabi_dadd>
10002c9c:	0002      	movs	r2, r0
10002c9e:	000b      	movs	r3, r1
10002ca0:	980e      	ldr	r0, [sp, #56]	@ 0x38
10002ca2:	990f      	ldr	r1, [sp, #60]	@ 0x3c
10002ca4:	f7ff f8a3 	bl	10001dee <__wrap___aeabi_ddiv>
10002ca8:	2200      	movs	r2, #0
10002caa:	4b28      	ldr	r3, [pc, #160]	@ (10002d4c <_etoa+0x3b4>)
10002cac:	f7ff f896 	bl	10001ddc <__wrap___aeabi_dadd>
10002cb0:	4b34      	ldr	r3, [pc, #208]	@ (10002d84 <_etoa+0x3ec>)
10002cb2:	9c0c      	ldr	r4, [sp, #48]	@ 0x30
10002cb4:	469c      	mov	ip, r3
10002cb6:	4464      	add	r4, ip
10002cb8:	0523      	lsls	r3, r4, #20
10002cba:	2200      	movs	r2, #0
10002cbc:	f7ff f8b5 	bl	10001e2a <__wrap___aeabi_dmul>
10002cc0:	0004      	movs	r4, r0
10002cc2:	000d      	movs	r5, r1
10002cc4:	0002      	movs	r2, r0
10002cc6:	000b      	movs	r3, r1
10002cc8:	0030      	movs	r0, r6
10002cca:	0039      	movs	r1, r7
10002ccc:	940a      	str	r4, [sp, #40]	@ 0x28
10002cce:	950b      	str	r5, [sp, #44]	@ 0x2c
10002cd0:	f7ff f8ee 	bl	10001eb0 <__wrap___aeabi_dcmplt>
10002cd4:	2800      	cmp	r0, #0
10002cd6:	d15d      	bne.n	10002d94 <_etoa+0x3fc>
10002cd8:	0023      	movs	r3, r4
10002cda:	002a      	movs	r2, r5
10002cdc:	25c6      	movs	r5, #198	@ 0xc6
10002cde:	9909      	ldr	r1, [sp, #36]	@ 0x24
10002ce0:	3163      	adds	r1, #99	@ 0x63
10002ce2:	428d      	cmp	r5, r1
10002ce4:	41ad      	sbcs	r5, r5
10002ce6:	4659      	mov	r1, fp
10002ce8:	426d      	negs	r5, r5
10002cea:	3504      	adds	r5, #4
10002cec:	2900      	cmp	r1, #0
10002cee:	d100      	bne.n	10002cf2 <_etoa+0x35a>
10002cf0:	e6a3      	b.n	10002a3a <_etoa+0xa2>
10002cf2:	4313      	orrs	r3, r2
10002cf4:	d063      	beq.n	10002dbe <_etoa+0x426>
10002cf6:	0030      	movs	r0, r6
10002cf8:	0039      	movs	r1, r7
10002cfa:	4a23      	ldr	r2, [pc, #140]	@ (10002d88 <_etoa+0x3f0>)
10002cfc:	4b23      	ldr	r3, [pc, #140]	@ (10002d8c <_etoa+0x3f4>)
10002cfe:	f7ff f8dd 	bl	10001ebc <__wrap___aeabi_dcmpge>
10002d02:	2800      	cmp	r0, #0
10002d04:	d007      	beq.n	10002d16 <_etoa+0x37e>
10002d06:	2200      	movs	r2, #0
10002d08:	0030      	movs	r0, r6
10002d0a:	0039      	movs	r1, r7
10002d0c:	4b20      	ldr	r3, [pc, #128]	@ (10002d90 <_etoa+0x3f8>)
10002d0e:	f7ff f8cf 	bl	10001eb0 <__wrap___aeabi_dcmplt>
10002d12:	2800      	cmp	r0, #0
10002d14:	d153      	bne.n	10002dbe <_etoa+0x426>
10002d16:	9b24      	ldr	r3, [sp, #144]	@ 0x90
10002d18:	2b00      	cmp	r3, #0
10002d1a:	d100      	bne.n	10002d1e <_etoa+0x386>
10002d1c:	e68d      	b.n	10002a3a <_etoa+0xa2>
10002d1e:	9b0d      	ldr	r3, [sp, #52]	@ 0x34
10002d20:	1e5a      	subs	r2, r3, #1
10002d22:	4193      	sbcs	r3, r2
10002d24:	9a24      	ldr	r2, [sp, #144]	@ 0x90
10002d26:	1ad3      	subs	r3, r2, r3
10002d28:	9324      	str	r3, [sp, #144]	@ 0x90
10002d2a:	e686      	b.n	10002a3a <_etoa+0xa2>
10002d2c:	7fefffff 	.word	0x7fefffff
10002d30:	ffefffff 	.word	0xffefffff
10002d34:	fffff7ff 	.word	0xfffff7ff
10002d38:	fffffc01 	.word	0xfffffc01
10002d3c:	509f79fb 	.word	0x509f79fb
10002d40:	3fd34413 	.word	0x3fd34413
10002d44:	8b60c8b3 	.word	0x8b60c8b3
10002d48:	3fc68a28 	.word	0x3fc68a28
10002d4c:	3ff00000 	.word	0x3ff00000
10002d50:	3ff80000 	.word	0x3ff80000
10002d54:	636f4361 	.word	0x636f4361
10002d58:	3fd287a7 	.word	0x3fd287a7
10002d5c:	0979a371 	.word	0x0979a371
10002d60:	400a934f 	.word	0x400a934f
10002d64:	3fe00000 	.word	0x3fe00000
10002d68:	bbb55516 	.word	0xbbb55516
10002d6c:	40026bb1 	.word	0x40026bb1
10002d70:	fefa39ef 	.word	0xfefa39ef
10002d74:	3fe62e42 	.word	0x3fe62e42
10002d78:	402c0000 	.word	0x402c0000
10002d7c:	40240000 	.word	0x40240000
10002d80:	40180000 	.word	0x40180000
10002d84:	000003ff 	.word	0x000003ff
10002d88:	eb1c432d 	.word	0xeb1c432d
10002d8c:	3f1a36e2 	.word	0x3f1a36e2
10002d90:	412e8480 	.word	0x412e8480
10002d94:	9b09      	ldr	r3, [sp, #36]	@ 0x24
10002d96:	2200      	movs	r2, #0
10002d98:	3b01      	subs	r3, #1
10002d9a:	9309      	str	r3, [sp, #36]	@ 0x24
10002d9c:	0020      	movs	r0, r4
10002d9e:	4b16      	ldr	r3, [pc, #88]	@ (10002df8 <_etoa+0x460>)
10002da0:	0029      	movs	r1, r5
10002da2:	f7ff f824 	bl	10001dee <__wrap___aeabi_ddiv>
10002da6:	000a      	movs	r2, r1
10002da8:	0001      	movs	r1, r0
10002daa:	0003      	movs	r3, r0
10002dac:	910a      	str	r1, [sp, #40]	@ 0x28
10002dae:	920b      	str	r2, [sp, #44]	@ 0x2c
10002db0:	e794      	b.n	10002cdc <_etoa+0x344>
10002db2:	2300      	movs	r3, #0
10002db4:	2400      	movs	r4, #0
10002db6:	930a      	str	r3, [sp, #40]	@ 0x28
10002db8:	940b      	str	r4, [sp, #44]	@ 0x2c
10002dba:	2300      	movs	r3, #0
10002dbc:	9309      	str	r3, [sp, #36]	@ 0x24
10002dbe:	9a24      	ldr	r2, [sp, #144]	@ 0x90
10002dc0:	9b09      	ldr	r3, [sp, #36]	@ 0x24
10002dc2:	429a      	cmp	r2, r3
10002dc4:	dd14      	ble.n	10002df0 <_etoa+0x458>
10002dc6:	1ad3      	subs	r3, r2, r3
10002dc8:	3b01      	subs	r3, #1
10002dca:	9324      	str	r3, [sp, #144]	@ 0x90
10002dcc:	2380      	movs	r3, #128	@ 0x80
10002dce:	9a26      	ldr	r2, [sp, #152]	@ 0x98
10002dd0:	00db      	lsls	r3, r3, #3
10002dd2:	431a      	orrs	r2, r3
10002dd4:	2300      	movs	r3, #0
10002dd6:	2500      	movs	r5, #0
10002dd8:	9226      	str	r2, [sp, #152]	@ 0x98
10002dda:	9309      	str	r3, [sp, #36]	@ 0x24
10002ddc:	e62d      	b.n	10002a3a <_etoa+0xa2>
10002dde:	2280      	movs	r2, #128	@ 0x80
10002de0:	0612      	lsls	r2, r2, #24
10002de2:	4694      	mov	ip, r2
10002de4:	9b22      	ldr	r3, [sp, #136]	@ 0x88
10002de6:	001e      	movs	r6, r3
10002de8:	9b23      	ldr	r3, [sp, #140]	@ 0x8c
10002dea:	4463      	add	r3, ip
10002dec:	001f      	movs	r7, r3
10002dee:	e606      	b.n	100029fe <_etoa+0x66>
10002df0:	2300      	movs	r3, #0
10002df2:	9324      	str	r3, [sp, #144]	@ 0x90
10002df4:	e7ea      	b.n	10002dcc <_etoa+0x434>
10002df6:	46c0      	nop			@ (mov r8, r8)
10002df8:	40240000 	.word	0x40240000

10002dfc <_ftoa>:
10002dfc:	b5f0      	push	{r4, r5, r6, r7, lr}
10002dfe:	4645      	mov	r5, r8
10002e00:	46de      	mov	lr, fp
10002e02:	464e      	mov	r6, r9
10002e04:	4657      	mov	r7, sl
10002e06:	b5e0      	push	{r5, r6, r7, lr}
10002e08:	b095      	sub	sp, #84	@ 0x54
10002e0a:	468b      	mov	fp, r1
10002e0c:	4690      	mov	r8, r2
10002e0e:	4699      	mov	r9, r3
10002e10:	9a1e      	ldr	r2, [sp, #120]	@ 0x78
10002e12:	9b1f      	ldr	r3, [sp, #124]	@ 0x7c
10002e14:	900a      	str	r0, [sp, #40]	@ 0x28
10002e16:	0019      	movs	r1, r3
10002e18:	0010      	movs	r0, r2
10002e1a:	9d20      	ldr	r5, [sp, #128]	@ 0x80
10002e1c:	f7ff f85b 	bl	10001ed6 <__wrap___aeabi_dcmpun>
10002e20:	2800      	cmp	r0, #0
10002e22:	d000      	beq.n	10002e26 <_ftoa+0x2a>
10002e24:	e1b0      	b.n	10003188 <_ftoa+0x38c>
10002e26:	981e      	ldr	r0, [sp, #120]	@ 0x78
10002e28:	991f      	ldr	r1, [sp, #124]	@ 0x7c
10002e2a:	2201      	movs	r2, #1
10002e2c:	4bc7      	ldr	r3, [pc, #796]	@ (1000314c <_ftoa+0x350>)
10002e2e:	4252      	negs	r2, r2
10002e30:	f7ff f83e 	bl	10001eb0 <__wrap___aeabi_dcmplt>
10002e34:	2800      	cmp	r0, #0
10002e36:	d000      	beq.n	10002e3a <_ftoa+0x3e>
10002e38:	e137      	b.n	100030aa <_ftoa+0x2ae>
10002e3a:	981e      	ldr	r0, [sp, #120]	@ 0x78
10002e3c:	991f      	ldr	r1, [sp, #124]	@ 0x7c
10002e3e:	2201      	movs	r2, #1
10002e40:	4bc3      	ldr	r3, [pc, #780]	@ (10003150 <_ftoa+0x354>)
10002e42:	4252      	negs	r2, r2
10002e44:	f7ff f842 	bl	10001ecc <__wrap___aeabi_dcmpgt>
10002e48:	2800      	cmp	r0, #0
10002e4a:	d000      	beq.n	10002e4e <_ftoa+0x52>
10002e4c:	e0a7      	b.n	10002f9e <_ftoa+0x1a2>
10002e4e:	981e      	ldr	r0, [sp, #120]	@ 0x78
10002e50:	991f      	ldr	r1, [sp, #124]	@ 0x7c
10002e52:	2200      	movs	r2, #0
10002e54:	4bbf      	ldr	r3, [pc, #764]	@ (10003154 <_ftoa+0x358>)
10002e56:	f7ff f839 	bl	10001ecc <__wrap___aeabi_dcmpgt>
10002e5a:	2800      	cmp	r0, #0
10002e5c:	d000      	beq.n	10002e60 <_ftoa+0x64>
10002e5e:	e088      	b.n	10002f72 <_ftoa+0x176>
10002e60:	981e      	ldr	r0, [sp, #120]	@ 0x78
10002e62:	991f      	ldr	r1, [sp, #124]	@ 0x7c
10002e64:	2200      	movs	r2, #0
10002e66:	4bbc      	ldr	r3, [pc, #752]	@ (10003158 <_ftoa+0x35c>)
10002e68:	f7ff f822 	bl	10001eb0 <__wrap___aeabi_dcmplt>
10002e6c:	2800      	cmp	r0, #0
10002e6e:	d000      	beq.n	10002e72 <_ftoa+0x76>
10002e70:	e07f      	b.n	10002f72 <_ftoa+0x176>
10002e72:	981e      	ldr	r0, [sp, #120]	@ 0x78
10002e74:	991f      	ldr	r1, [sp, #124]	@ 0x7c
10002e76:	2200      	movs	r2, #0
10002e78:	2300      	movs	r3, #0
10002e7a:	f7ff f819 	bl	10001eb0 <__wrap___aeabi_dcmplt>
10002e7e:	2800      	cmp	r0, #0
10002e80:	d000      	beq.n	10002e84 <_ftoa+0x88>
10002e82:	e0fa      	b.n	1000307a <_ftoa+0x27e>
10002e84:	2300      	movs	r3, #0
10002e86:	930b      	str	r3, [sp, #44]	@ 0x2c
10002e88:	2380      	movs	r3, #128	@ 0x80
10002e8a:	9c22      	ldr	r4, [sp, #136]	@ 0x88
10002e8c:	9a22      	ldr	r2, [sp, #136]	@ 0x88
10002e8e:	00db      	lsls	r3, r3, #3
10002e90:	401c      	ands	r4, r3
10002e92:	421a      	tst	r2, r3
10002e94:	d100      	bne.n	10002e98 <_ftoa+0x9c>
10002e96:	e102      	b.n	1000309e <_ftoa+0x2a2>
10002e98:	2d09      	cmp	r5, #9
10002e9a:	d800      	bhi.n	10002e9e <_ftoa+0xa2>
10002e9c:	e17c      	b.n	10003198 <_ftoa+0x39c>
10002e9e:	a906      	add	r1, sp, #24
10002ea0:	468c      	mov	ip, r1
10002ea2:	002c      	movs	r4, r5
10002ea4:	2217      	movs	r2, #23
10002ea6:	2300      	movs	r3, #0
10002ea8:	2130      	movs	r1, #48	@ 0x30
10002eaa:	3c09      	subs	r4, #9
10002eac:	4462      	add	r2, ip
10002eae:	3301      	adds	r3, #1
10002eb0:	54d1      	strb	r1, [r2, r3]
10002eb2:	1aef      	subs	r7, r5, r3
10002eb4:	2b20      	cmp	r3, #32
10002eb6:	d100      	bne.n	10002eba <_ftoa+0xbe>
10002eb8:	e132      	b.n	10003120 <_ftoa+0x324>
10002eba:	42a3      	cmp	r3, r4
10002ebc:	d1f7      	bne.n	10002eae <_ftoa+0xb2>
10002ebe:	2200      	movs	r2, #0
10002ec0:	4ba4      	ldr	r3, [pc, #656]	@ (10003154 <_ftoa+0x358>)
10002ec2:	9206      	str	r2, [sp, #24]
10002ec4:	9307      	str	r3, [sp, #28]
10002ec6:	981e      	ldr	r0, [sp, #120]	@ 0x78
10002ec8:	991f      	ldr	r1, [sp, #124]	@ 0x7c
10002eca:	f7ff f82d 	bl	10001f28 <__wrap___aeabi_d2iz>
10002ece:	0005      	movs	r5, r0
10002ed0:	f7ff f812 	bl	10001ef8 <__wrap___aeabi_i2d>
10002ed4:	0002      	movs	r2, r0
10002ed6:	000b      	movs	r3, r1
10002ed8:	981e      	ldr	r0, [sp, #120]	@ 0x78
10002eda:	991f      	ldr	r1, [sp, #124]	@ 0x7c
10002edc:	f7fe ff75 	bl	10001dca <__wrap___aeabi_dsub>
10002ee0:	9a06      	ldr	r2, [sp, #24]
10002ee2:	9b07      	ldr	r3, [sp, #28]
10002ee4:	f7fe ffa1 	bl	10001e2a <__wrap___aeabi_dmul>
10002ee8:	9008      	str	r0, [sp, #32]
10002eea:	9109      	str	r1, [sp, #36]	@ 0x24
10002eec:	f7ff f840 	bl	10001f70 <__wrap___aeabi_d2uiz>
10002ef0:	0006      	movs	r6, r0
10002ef2:	f7fe fffd 	bl	10001ef0 <__wrap___aeabi_ui2d>
10002ef6:	0002      	movs	r2, r0
10002ef8:	000b      	movs	r3, r1
10002efa:	9808      	ldr	r0, [sp, #32]
10002efc:	9909      	ldr	r1, [sp, #36]	@ 0x24
10002efe:	f7fe ff64 	bl	10001dca <__wrap___aeabi_dsub>
10002f02:	2200      	movs	r2, #0
10002f04:	4b95      	ldr	r3, [pc, #596]	@ (1000315c <_ftoa+0x360>)
10002f06:	9008      	str	r0, [sp, #32]
10002f08:	9109      	str	r1, [sp, #36]	@ 0x24
10002f0a:	f7fe ffdf 	bl	10001ecc <__wrap___aeabi_dcmpgt>
10002f0e:	2800      	cmp	r0, #0
10002f10:	d100      	bne.n	10002f14 <_ftoa+0x118>
10002f12:	e0d2      	b.n	100030ba <_ftoa+0x2be>
10002f14:	3601      	adds	r6, #1
10002f16:	0030      	movs	r0, r6
10002f18:	f7fe ffea 	bl	10001ef0 <__wrap___aeabi_ui2d>
10002f1c:	9a06      	ldr	r2, [sp, #24]
10002f1e:	9b07      	ldr	r3, [sp, #28]
10002f20:	f7fe ffcc 	bl	10001ebc <__wrap___aeabi_dcmpge>
10002f24:	2800      	cmp	r0, #0
10002f26:	d001      	beq.n	10002f2c <_ftoa+0x130>
10002f28:	2600      	movs	r6, #0
10002f2a:	3501      	adds	r5, #1
10002f2c:	46aa      	mov	sl, r5
10002f2e:	2f00      	cmp	r7, #0
10002f30:	d000      	beq.n	10002f34 <_ftoa+0x138>
10002f32:	e098      	b.n	10003066 <_ftoa+0x26a>
10002f34:	0028      	movs	r0, r5
10002f36:	f7fe ffdf 	bl	10001ef8 <__wrap___aeabi_i2d>
10002f3a:	0002      	movs	r2, r0
10002f3c:	000b      	movs	r3, r1
10002f3e:	981e      	ldr	r0, [sp, #120]	@ 0x78
10002f40:	991f      	ldr	r1, [sp, #124]	@ 0x7c
10002f42:	f7fe ff42 	bl	10001dca <__wrap___aeabi_dsub>
10002f46:	4b85      	ldr	r3, [pc, #532]	@ (1000315c <_ftoa+0x360>)
10002f48:	2200      	movs	r2, #0
10002f4a:	0006      	movs	r6, r0
10002f4c:	000f      	movs	r7, r1
10002f4e:	f7fe ffaf 	bl	10001eb0 <__wrap___aeabi_dcmplt>
10002f52:	ab0c      	add	r3, sp, #48	@ 0x30
10002f54:	469a      	mov	sl, r3
10002f56:	2800      	cmp	r0, #0
10002f58:	d145      	bne.n	10002fe6 <_ftoa+0x1ea>
10002f5a:	2200      	movs	r2, #0
10002f5c:	0030      	movs	r0, r6
10002f5e:	0039      	movs	r1, r7
10002f60:	4b7e      	ldr	r3, [pc, #504]	@ (1000315c <_ftoa+0x360>)
10002f62:	f7fe ffb3 	bl	10001ecc <__wrap___aeabi_dcmpgt>
10002f66:	2800      	cmp	r0, #0
10002f68:	d13d      	bne.n	10002fe6 <_ftoa+0x1ea>
10002f6a:	07eb      	lsls	r3, r5, #31
10002f6c:	d53b      	bpl.n	10002fe6 <_ftoa+0x1ea>
10002f6e:	3501      	adds	r5, #1
10002f70:	e039      	b.n	10002fe6 <_ftoa+0x1ea>
10002f72:	9b22      	ldr	r3, [sp, #136]	@ 0x88
10002f74:	4642      	mov	r2, r8
10002f76:	9304      	str	r3, [sp, #16]
10002f78:	9b21      	ldr	r3, [sp, #132]	@ 0x84
10002f7a:	4659      	mov	r1, fp
10002f7c:	9303      	str	r3, [sp, #12]
10002f7e:	980a      	ldr	r0, [sp, #40]	@ 0x28
10002f80:	9b1e      	ldr	r3, [sp, #120]	@ 0x78
10002f82:	9c1f      	ldr	r4, [sp, #124]	@ 0x7c
10002f84:	9502      	str	r5, [sp, #8]
10002f86:	9300      	str	r3, [sp, #0]
10002f88:	9401      	str	r4, [sp, #4]
10002f8a:	464b      	mov	r3, r9
10002f8c:	f7ff fd04 	bl	10002998 <_etoa>
10002f90:	b015      	add	sp, #84	@ 0x54
10002f92:	bcf0      	pop	{r4, r5, r6, r7}
10002f94:	46bb      	mov	fp, r7
10002f96:	46b2      	mov	sl, r6
10002f98:	46a9      	mov	r9, r5
10002f9a:	46a0      	mov	r8, r4
10002f9c:	bdf0      	pop	{r4, r5, r6, r7, pc}
10002f9e:	9b22      	ldr	r3, [sp, #136]	@ 0x88
10002fa0:	075b      	lsls	r3, r3, #29
10002fa2:	d467      	bmi.n	10003074 <_ftoa+0x278>
10002fa4:	2203      	movs	r2, #3
10002fa6:	4b6e      	ldr	r3, [pc, #440]	@ (10003160 <_ftoa+0x364>)
10002fa8:	9922      	ldr	r1, [sp, #136]	@ 0x88
10002faa:	9201      	str	r2, [sp, #4]
10002fac:	9103      	str	r1, [sp, #12]
10002fae:	9921      	ldr	r1, [sp, #132]	@ 0x84
10002fb0:	9102      	str	r1, [sp, #8]
10002fb2:	9300      	str	r3, [sp, #0]
10002fb4:	4642      	mov	r2, r8
10002fb6:	464b      	mov	r3, r9
10002fb8:	4659      	mov	r1, fp
10002fba:	980a      	ldr	r0, [sp, #40]	@ 0x28
10002fbc:	f7ff fb5e 	bl	1000267c <_out_rev>
10002fc0:	e7e6      	b.n	10002f90 <_ftoa+0x194>
10002fc2:	aa06      	add	r2, sp, #24
10002fc4:	4694      	mov	ip, r2
10002fc6:	2317      	movs	r3, #23
10002fc8:	0028      	movs	r0, r5
10002fca:	4463      	add	r3, ip
10002fcc:	210a      	movs	r1, #10
10002fce:	3401      	adds	r4, #1
10002fd0:	191e      	adds	r6, r3, r4
10002fd2:	f7fe fc97 	bl	10001904 <__wrap___aeabi_idiv>
10002fd6:	3130      	adds	r1, #48	@ 0x30
10002fd8:	0028      	movs	r0, r5
10002fda:	7031      	strb	r1, [r6, #0]
10002fdc:	210a      	movs	r1, #10
10002fde:	f7fe fc91 	bl	10001904 <__wrap___aeabi_idiv>
10002fe2:	1e05      	subs	r5, r0, #0
10002fe4:	d076      	beq.n	100030d4 <_ftoa+0x2d8>
10002fe6:	2c20      	cmp	r4, #32
10002fe8:	d1eb      	bne.n	10002fc2 <_ftoa+0x1c6>
10002fea:	2303      	movs	r3, #3
10002fec:	9a22      	ldr	r2, [sp, #136]	@ 0x88
10002fee:	4013      	ands	r3, r2
10002ff0:	2b01      	cmp	r3, #1
10002ff2:	d11d      	bne.n	10003030 <_ftoa+0x234>
10002ff4:	9b21      	ldr	r3, [sp, #132]	@ 0x84
10002ff6:	2b00      	cmp	r3, #0
10002ff8:	d01a      	beq.n	10003030 <_ftoa+0x234>
10002ffa:	9b0b      	ldr	r3, [sp, #44]	@ 0x2c
10002ffc:	2b00      	cmp	r3, #0
10002ffe:	d000      	beq.n	10003002 <_ftoa+0x206>
10003000:	e0bb      	b.n	1000317a <_ftoa+0x37e>
10003002:	9a22      	ldr	r2, [sp, #136]	@ 0x88
10003004:	330c      	adds	r3, #12
10003006:	4213      	tst	r3, r2
10003008:	d000      	beq.n	1000300c <_ftoa+0x210>
1000300a:	e0b6      	b.n	1000317a <_ftoa+0x37e>
1000300c:	9b21      	ldr	r3, [sp, #132]	@ 0x84
1000300e:	42a3      	cmp	r3, r4
10003010:	d800      	bhi.n	10003014 <_ftoa+0x218>
10003012:	e087      	b.n	10003124 <_ftoa+0x328>
10003014:	ab06      	add	r3, sp, #24
10003016:	469c      	mov	ip, r3
10003018:	2217      	movs	r2, #23
1000301a:	2330      	movs	r3, #48	@ 0x30
1000301c:	4462      	add	r2, ip
1000301e:	e004      	b.n	1000302a <_ftoa+0x22e>
10003020:	9921      	ldr	r1, [sp, #132]	@ 0x84
10003022:	3401      	adds	r4, #1
10003024:	5513      	strb	r3, [r2, r4]
10003026:	428c      	cmp	r4, r1
10003028:	d059      	beq.n	100030de <_ftoa+0x2e2>
1000302a:	2c20      	cmp	r4, #32
1000302c:	d1f8      	bne.n	10003020 <_ftoa+0x224>
1000302e:	2420      	movs	r4, #32
10003030:	9b22      	ldr	r3, [sp, #136]	@ 0x88
10003032:	9401      	str	r4, [sp, #4]
10003034:	9303      	str	r3, [sp, #12]
10003036:	9b21      	ldr	r3, [sp, #132]	@ 0x84
10003038:	9302      	str	r3, [sp, #8]
1000303a:	4653      	mov	r3, sl
1000303c:	e7b9      	b.n	10002fb2 <_ftoa+0x1b6>
1000303e:	aa06      	add	r2, sp, #24
10003040:	4694      	mov	ip, r2
10003042:	2317      	movs	r3, #23
10003044:	210a      	movs	r1, #10
10003046:	4463      	add	r3, ip
10003048:	0030      	movs	r0, r6
1000304a:	3401      	adds	r4, #1
1000304c:	191d      	adds	r5, r3, r4
1000304e:	f7fe fc81 	bl	10001954 <__wrap___aeabi_uidiv>
10003052:	3130      	adds	r1, #48	@ 0x30
10003054:	7029      	strb	r1, [r5, #0]
10003056:	0030      	movs	r0, r6
10003058:	210a      	movs	r1, #10
1000305a:	3f01      	subs	r7, #1
1000305c:	f7fe fc7a 	bl	10001954 <__wrap___aeabi_uidiv>
10003060:	2e09      	cmp	r6, #9
10003062:	d946      	bls.n	100030f2 <_ftoa+0x2f6>
10003064:	0006      	movs	r6, r0
10003066:	2c20      	cmp	r4, #32
10003068:	d1e9      	bne.n	1000303e <_ftoa+0x242>
1000306a:	4655      	mov	r5, sl
1000306c:	ab0c      	add	r3, sp, #48	@ 0x30
1000306e:	2420      	movs	r4, #32
10003070:	469a      	mov	sl, r3
10003072:	e7b8      	b.n	10002fe6 <_ftoa+0x1ea>
10003074:	2204      	movs	r2, #4
10003076:	4b3b      	ldr	r3, [pc, #236]	@ (10003164 <_ftoa+0x368>)
10003078:	e796      	b.n	10002fa8 <_ftoa+0x1ac>
1000307a:	9a1e      	ldr	r2, [sp, #120]	@ 0x78
1000307c:	9b1f      	ldr	r3, [sp, #124]	@ 0x7c
1000307e:	2000      	movs	r0, #0
10003080:	2100      	movs	r1, #0
10003082:	f7fe fea2 	bl	10001dca <__wrap___aeabi_dsub>
10003086:	2301      	movs	r3, #1
10003088:	930b      	str	r3, [sp, #44]	@ 0x2c
1000308a:	2380      	movs	r3, #128	@ 0x80
1000308c:	9c22      	ldr	r4, [sp, #136]	@ 0x88
1000308e:	9a22      	ldr	r2, [sp, #136]	@ 0x88
10003090:	00db      	lsls	r3, r3, #3
10003092:	901e      	str	r0, [sp, #120]	@ 0x78
10003094:	911f      	str	r1, [sp, #124]	@ 0x7c
10003096:	401c      	ands	r4, r3
10003098:	421a      	tst	r2, r3
1000309a:	d000      	beq.n	1000309e <_ftoa+0x2a2>
1000309c:	e6fc      	b.n	10002e98 <_ftoa+0x9c>
1000309e:	2200      	movs	r2, #0
100030a0:	4b31      	ldr	r3, [pc, #196]	@ (10003168 <_ftoa+0x36c>)
100030a2:	2706      	movs	r7, #6
100030a4:	9206      	str	r2, [sp, #24]
100030a6:	9307      	str	r3, [sp, #28]
100030a8:	e70d      	b.n	10002ec6 <_ftoa+0xca>
100030aa:	9b22      	ldr	r3, [sp, #136]	@ 0x88
100030ac:	9303      	str	r3, [sp, #12]
100030ae:	9b21      	ldr	r3, [sp, #132]	@ 0x84
100030b0:	9302      	str	r3, [sp, #8]
100030b2:	2304      	movs	r3, #4
100030b4:	9301      	str	r3, [sp, #4]
100030b6:	4b2d      	ldr	r3, [pc, #180]	@ (1000316c <_ftoa+0x370>)
100030b8:	e77b      	b.n	10002fb2 <_ftoa+0x1b6>
100030ba:	2200      	movs	r2, #0
100030bc:	9808      	ldr	r0, [sp, #32]
100030be:	9909      	ldr	r1, [sp, #36]	@ 0x24
100030c0:	4b26      	ldr	r3, [pc, #152]	@ (1000315c <_ftoa+0x360>)
100030c2:	f7fe fef5 	bl	10001eb0 <__wrap___aeabi_dcmplt>
100030c6:	2800      	cmp	r0, #0
100030c8:	d000      	beq.n	100030cc <_ftoa+0x2d0>
100030ca:	e72f      	b.n	10002f2c <_ftoa+0x130>
100030cc:	2e00      	cmp	r6, #0
100030ce:	d14f      	bne.n	10003170 <_ftoa+0x374>
100030d0:	3601      	adds	r6, #1
100030d2:	e72b      	b.n	10002f2c <_ftoa+0x130>
100030d4:	2303      	movs	r3, #3
100030d6:	9a22      	ldr	r2, [sp, #136]	@ 0x88
100030d8:	4013      	ands	r3, r2
100030da:	2b01      	cmp	r3, #1
100030dc:	d066      	beq.n	100031ac <_ftoa+0x3b0>
100030de:	2c20      	cmp	r4, #32
100030e0:	d0a6      	beq.n	10003030 <_ftoa+0x234>
100030e2:	9b0b      	ldr	r3, [sp, #44]	@ 0x2c
100030e4:	2b00      	cmp	r3, #0
100030e6:	d01f      	beq.n	10003128 <_ftoa+0x32c>
100030e8:	232d      	movs	r3, #45	@ 0x2d
100030ea:	4652      	mov	r2, sl
100030ec:	5513      	strb	r3, [r2, r4]
100030ee:	3401      	adds	r4, #1
100030f0:	e79e      	b.n	10003030 <_ftoa+0x234>
100030f2:	4655      	mov	r5, sl
100030f4:	2c20      	cmp	r4, #32
100030f6:	d0b9      	beq.n	1000306c <_ftoa+0x270>
100030f8:	2330      	movs	r3, #48	@ 0x30
100030fa:	193a      	adds	r2, r7, r4
100030fc:	2f00      	cmp	r7, #0
100030fe:	d008      	beq.n	10003112 <_ftoa+0x316>
10003100:	2017      	movs	r0, #23
10003102:	a906      	add	r1, sp, #24
10003104:	3401      	adds	r4, #1
10003106:	1809      	adds	r1, r1, r0
10003108:	550b      	strb	r3, [r1, r4]
1000310a:	2c20      	cmp	r4, #32
1000310c:	d0ae      	beq.n	1000306c <_ftoa+0x270>
1000310e:	4294      	cmp	r4, r2
10003110:	d1f6      	bne.n	10003100 <_ftoa+0x304>
10003112:	ab0c      	add	r3, sp, #48	@ 0x30
10003114:	469a      	mov	sl, r3
10003116:	232e      	movs	r3, #46	@ 0x2e
10003118:	4652      	mov	r2, sl
1000311a:	5513      	strb	r3, [r2, r4]
1000311c:	3401      	adds	r4, #1
1000311e:	e762      	b.n	10002fe6 <_ftoa+0x1ea>
10003120:	2420      	movs	r4, #32
10003122:	e6cc      	b.n	10002ebe <_ftoa+0xc2>
10003124:	2c20      	cmp	r4, #32
10003126:	d083      	beq.n	10003030 <_ftoa+0x234>
10003128:	9b22      	ldr	r3, [sp, #136]	@ 0x88
1000312a:	075b      	lsls	r3, r3, #29
1000312c:	d408      	bmi.n	10003140 <_ftoa+0x344>
1000312e:	9b22      	ldr	r3, [sp, #136]	@ 0x88
10003130:	071b      	lsls	r3, r3, #28
10003132:	d400      	bmi.n	10003136 <_ftoa+0x33a>
10003134:	e77c      	b.n	10003030 <_ftoa+0x234>
10003136:	2320      	movs	r3, #32
10003138:	4652      	mov	r2, sl
1000313a:	5513      	strb	r3, [r2, r4]
1000313c:	3401      	adds	r4, #1
1000313e:	e777      	b.n	10003030 <_ftoa+0x234>
10003140:	232b      	movs	r3, #43	@ 0x2b
10003142:	4652      	mov	r2, sl
10003144:	5513      	strb	r3, [r2, r4]
10003146:	3401      	adds	r4, #1
10003148:	e772      	b.n	10003030 <_ftoa+0x234>
1000314a:	46c0      	nop			@ (mov r8, r8)
1000314c:	ffefffff 	.word	0xffefffff
10003150:	7fefffff 	.word	0x7fefffff
10003154:	41cdcd65 	.word	0x41cdcd65
10003158:	c1cdcd65 	.word	0xc1cdcd65
1000315c:	3fe00000 	.word	0x3fe00000
10003160:	10006db4 	.word	0x10006db4
10003164:	10006dac 	.word	0x10006dac
10003168:	412e8480 	.word	0x412e8480
1000316c:	10006dbc 	.word	0x10006dbc
10003170:	07f3      	lsls	r3, r6, #31
10003172:	d400      	bmi.n	10003176 <_ftoa+0x37a>
10003174:	e6da      	b.n	10002f2c <_ftoa+0x130>
10003176:	3601      	adds	r6, #1
10003178:	e6d8      	b.n	10002f2c <_ftoa+0x130>
1000317a:	9b21      	ldr	r3, [sp, #132]	@ 0x84
1000317c:	3b01      	subs	r3, #1
1000317e:	9321      	str	r3, [sp, #132]	@ 0x84
10003180:	42a3      	cmp	r3, r4
10003182:	d900      	bls.n	10003186 <_ftoa+0x38a>
10003184:	e746      	b.n	10003014 <_ftoa+0x218>
10003186:	e7aa      	b.n	100030de <_ftoa+0x2e2>
10003188:	9b22      	ldr	r3, [sp, #136]	@ 0x88
1000318a:	9303      	str	r3, [sp, #12]
1000318c:	9b21      	ldr	r3, [sp, #132]	@ 0x84
1000318e:	9302      	str	r3, [sp, #8]
10003190:	2303      	movs	r3, #3
10003192:	9301      	str	r3, [sp, #4]
10003194:	4b07      	ldr	r3, [pc, #28]	@ (100031b4 <_ftoa+0x3b8>)
10003196:	e70c      	b.n	10002fb2 <_ftoa+0x1b6>
10003198:	4b07      	ldr	r3, [pc, #28]	@ (100031b8 <_ftoa+0x3bc>)
1000319a:	00ea      	lsls	r2, r5, #3
1000319c:	189b      	adds	r3, r3, r2
1000319e:	685c      	ldr	r4, [r3, #4]
100031a0:	681b      	ldr	r3, [r3, #0]
100031a2:	002f      	movs	r7, r5
100031a4:	9306      	str	r3, [sp, #24]
100031a6:	9407      	str	r4, [sp, #28]
100031a8:	2400      	movs	r4, #0
100031aa:	e68c      	b.n	10002ec6 <_ftoa+0xca>
100031ac:	9b21      	ldr	r3, [sp, #132]	@ 0x84
100031ae:	2b00      	cmp	r3, #0
100031b0:	d095      	beq.n	100030de <_ftoa+0x2e2>
100031b2:	e722      	b.n	10002ffa <_ftoa+0x1fe>
100031b4:	10006db8 	.word	0x10006db8
100031b8:	10007050 	.word	0x10007050

100031bc <_vsnprintf>:
100031bc:	b5f0      	push	{r4, r5, r6, r7, lr}
100031be:	4657      	mov	r7, sl
100031c0:	46de      	mov	lr, fp
100031c2:	464e      	mov	r6, r9
100031c4:	4645      	mov	r5, r8
100031c6:	b5e0      	push	{r5, r6, r7, lr}
100031c8:	b0a5      	sub	sp, #148	@ 0x94
100031ca:	001f      	movs	r7, r3
100031cc:	9b2e      	ldr	r3, [sp, #184]	@ 0xb8
100031ce:	4691      	mov	r9, r2
100031d0:	930d      	str	r3, [sp, #52]	@ 0x34
100031d2:	4aca      	ldr	r2, [pc, #808]	@ (100034fc <_vsnprintf+0x340>)
100031d4:	4bca      	ldr	r3, [pc, #808]	@ (10003500 <_vsnprintf+0x344>)
100031d6:	4682      	mov	sl, r0
100031d8:	468b      	mov	fp, r1
100031da:	601a      	str	r2, [r3, #0]
100031dc:	2900      	cmp	r1, #0
100031de:	d100      	bne.n	100031e2 <_vsnprintf+0x26>
100031e0:	e229      	b.n	10003636 <_vsnprintf+0x47a>
100031e2:	2300      	movs	r3, #0
100031e4:	7838      	ldrb	r0, [r7, #0]
100031e6:	4698      	mov	r8, r3
100031e8:	2800      	cmp	r0, #0
100031ea:	d100      	bne.n	100031ee <_vsnprintf+0x32>
100031ec:	e22b      	b.n	10003646 <_vsnprintf+0x48a>
100031ee:	4bc5      	ldr	r3, [pc, #788]	@ (10003504 <_vsnprintf+0x348>)
100031f0:	4644      	mov	r4, r8
100031f2:	930c      	str	r3, [sp, #48]	@ 0x30
100031f4:	4bc4      	ldr	r3, [pc, #784]	@ (10003508 <_vsnprintf+0x34c>)
100031f6:	4655      	mov	r5, sl
100031f8:	464e      	mov	r6, r9
100031fa:	930e      	str	r3, [sp, #56]	@ 0x38
100031fc:	e00a      	b.n	10003214 <_vsnprintf+0x58>
100031fe:	1c63      	adds	r3, r4, #1
10003200:	4698      	mov	r8, r3
10003202:	0022      	movs	r2, r4
10003204:	0033      	movs	r3, r6
10003206:	4659      	mov	r1, fp
10003208:	47a8      	blx	r5
1000320a:	4644      	mov	r4, r8
1000320c:	7838      	ldrb	r0, [r7, #0]
1000320e:	2800      	cmp	r0, #0
10003210:	d100      	bne.n	10003214 <_vsnprintf+0x58>
10003212:	e087      	b.n	10003324 <_vsnprintf+0x168>
10003214:	3701      	adds	r7, #1
10003216:	2825      	cmp	r0, #37	@ 0x25
10003218:	d1f1      	bne.n	100031fe <_vsnprintf+0x42>
1000321a:	2308      	movs	r3, #8
1000321c:	469a      	mov	sl, r3
1000321e:	3b04      	subs	r3, #4
10003220:	4699      	mov	r9, r3
10003222:	3b02      	subs	r3, #2
10003224:	4698      	mov	r8, r3
10003226:	3b01      	subs	r3, #1
10003228:	2200      	movs	r2, #0
1000322a:	469c      	mov	ip, r3
1000322c:	940b      	str	r4, [sp, #44]	@ 0x2c
1000322e:	7838      	ldrb	r0, [r7, #0]
10003230:	1c79      	adds	r1, r7, #1
10003232:	0003      	movs	r3, r0
10003234:	3b20      	subs	r3, #32
10003236:	b2db      	uxtb	r3, r3
10003238:	2b10      	cmp	r3, #16
1000323a:	d803      	bhi.n	10003244 <_vsnprintf+0x88>
1000323c:	9c0c      	ldr	r4, [sp, #48]	@ 0x30
1000323e:	009b      	lsls	r3, r3, #2
10003240:	58e3      	ldr	r3, [r4, r3]
10003242:	469f      	mov	pc, r3
10003244:	0003      	movs	r3, r0
10003246:	3b30      	subs	r3, #48	@ 0x30
10003248:	9c0b      	ldr	r4, [sp, #44]	@ 0x2c
1000324a:	920b      	str	r2, [sp, #44]	@ 0x2c
1000324c:	2b09      	cmp	r3, #9
1000324e:	d93a      	bls.n	100032c6 <_vsnprintf+0x10a>
10003250:	2300      	movs	r3, #0
10003252:	4698      	mov	r8, r3
10003254:	282a      	cmp	r0, #42	@ 0x2a
10003256:	d100      	bne.n	1000325a <_vsnprintf+0x9e>
10003258:	e0dd      	b.n	10003416 <_vsnprintf+0x25a>
1000325a:	2300      	movs	r3, #0
1000325c:	469a      	mov	sl, r3
1000325e:	282e      	cmp	r0, #46	@ 0x2e
10003260:	d04b      	beq.n	100032fa <_vsnprintf+0x13e>
10003262:	0003      	movs	r3, r0
10003264:	3b68      	subs	r3, #104	@ 0x68
10003266:	b2db      	uxtb	r3, r3
10003268:	2b12      	cmp	r3, #18
1000326a:	d81e      	bhi.n	100032aa <_vsnprintf+0xee>
1000326c:	9a0e      	ldr	r2, [sp, #56]	@ 0x38
1000326e:	009b      	lsls	r3, r3, #2
10003270:	58d3      	ldr	r3, [r2, r3]
10003272:	469f      	mov	pc, r3
10003274:	4663      	mov	r3, ip
10003276:	000f      	movs	r7, r1
10003278:	431a      	orrs	r2, r3
1000327a:	e7d8      	b.n	1000322e <_vsnprintf+0x72>
1000327c:	4643      	mov	r3, r8
1000327e:	000f      	movs	r7, r1
10003280:	431a      	orrs	r2, r3
10003282:	e7d4      	b.n	1000322e <_vsnprintf+0x72>
10003284:	464b      	mov	r3, r9
10003286:	000f      	movs	r7, r1
10003288:	431a      	orrs	r2, r3
1000328a:	e7d0      	b.n	1000322e <_vsnprintf+0x72>
1000328c:	2310      	movs	r3, #16
1000328e:	000f      	movs	r7, r1
10003290:	431a      	orrs	r2, r3
10003292:	e7cc      	b.n	1000322e <_vsnprintf+0x72>
10003294:	4653      	mov	r3, sl
10003296:	000f      	movs	r7, r1
10003298:	431a      	orrs	r2, r3
1000329a:	e7c8      	b.n	1000322e <_vsnprintf+0x72>
1000329c:	2380      	movs	r3, #128	@ 0x80
1000329e:	005b      	lsls	r3, r3, #1
100032a0:	9a0b      	ldr	r2, [sp, #44]	@ 0x2c
100032a2:	7878      	ldrb	r0, [r7, #1]
100032a4:	431a      	orrs	r2, r3
100032a6:	920b      	str	r2, [sp, #44]	@ 0x2c
100032a8:	3101      	adds	r1, #1
100032aa:	000f      	movs	r7, r1
100032ac:	2867      	cmp	r0, #103	@ 0x67
100032ae:	d84f      	bhi.n	10003350 <_vsnprintf+0x194>
100032b0:	2824      	cmp	r0, #36	@ 0x24
100032b2:	d9a4      	bls.n	100031fe <_vsnprintf+0x42>
100032b4:	0003      	movs	r3, r0
100032b6:	3b25      	subs	r3, #37	@ 0x25
100032b8:	b2db      	uxtb	r3, r3
100032ba:	2b42      	cmp	r3, #66	@ 0x42
100032bc:	d89f      	bhi.n	100031fe <_vsnprintf+0x42>
100032be:	4993      	ldr	r1, [pc, #588]	@ (1000350c <_vsnprintf+0x350>)
100032c0:	009b      	lsls	r3, r3, #2
100032c2:	58cb      	ldr	r3, [r1, r3]
100032c4:	469f      	mov	pc, r3
100032c6:	2300      	movs	r3, #0
100032c8:	4698      	mov	r8, r3
100032ca:	9b0b      	ldr	r3, [sp, #44]	@ 0x2c
100032cc:	4647      	mov	r7, r8
100032ce:	469c      	mov	ip, r3
100032d0:	e000      	b.n	100032d4 <_vsnprintf+0x118>
100032d2:	3101      	adds	r1, #1
100032d4:	00bb      	lsls	r3, r7, #2
100032d6:	19db      	adds	r3, r3, r7
100032d8:	005b      	lsls	r3, r3, #1
100032da:	181f      	adds	r7, r3, r0
100032dc:	7808      	ldrb	r0, [r1, #0]
100032de:	3f30      	subs	r7, #48	@ 0x30
100032e0:	0003      	movs	r3, r0
100032e2:	3b30      	subs	r3, #48	@ 0x30
100032e4:	2b09      	cmp	r3, #9
100032e6:	d9f4      	bls.n	100032d2 <_vsnprintf+0x116>
100032e8:	4663      	mov	r3, ip
100032ea:	930b      	str	r3, [sp, #44]	@ 0x2c
100032ec:	2300      	movs	r3, #0
100032ee:	46b8      	mov	r8, r7
100032f0:	469a      	mov	sl, r3
100032f2:	000f      	movs	r7, r1
100032f4:	3101      	adds	r1, #1
100032f6:	282e      	cmp	r0, #46	@ 0x2e
100032f8:	d1b3      	bne.n	10003262 <_vsnprintf+0xa6>
100032fa:	2080      	movs	r0, #128	@ 0x80
100032fc:	9a0b      	ldr	r2, [sp, #44]	@ 0x2c
100032fe:	00c0      	lsls	r0, r0, #3
10003300:	4302      	orrs	r2, r0
10003302:	920b      	str	r2, [sp, #44]	@ 0x2c
10003304:	2230      	movs	r2, #48	@ 0x30
10003306:	4252      	negs	r2, r2
10003308:	4694      	mov	ip, r2
1000330a:	7878      	ldrb	r0, [r7, #1]
1000330c:	000b      	movs	r3, r1
1000330e:	4484      	add	ip, r0
10003310:	4662      	mov	r2, ip
10003312:	2a09      	cmp	r2, #9
10003314:	d800      	bhi.n	10003318 <_vsnprintf+0x15c>
10003316:	e1aa      	b.n	1000366e <_vsnprintf+0x4b2>
10003318:	282a      	cmp	r0, #42	@ 0x2a
1000331a:	d100      	bne.n	1000331e <_vsnprintf+0x162>
1000331c:	e1b9      	b.n	10003692 <_vsnprintf+0x4d6>
1000331e:	000f      	movs	r7, r1
10003320:	3101      	adds	r1, #1
10003322:	e79e      	b.n	10003262 <_vsnprintf+0xa6>
10003324:	46a0      	mov	r8, r4
10003326:	46aa      	mov	sl, r5
10003328:	46b1      	mov	r9, r6
1000332a:	45c8      	cmp	r8, r9
1000332c:	d303      	bcc.n	10003336 <_vsnprintf+0x17a>
1000332e:	2301      	movs	r3, #1
10003330:	425b      	negs	r3, r3
10003332:	444b      	add	r3, r9
10003334:	4698      	mov	r8, r3
10003336:	464b      	mov	r3, r9
10003338:	4642      	mov	r2, r8
1000333a:	4659      	mov	r1, fp
1000333c:	2000      	movs	r0, #0
1000333e:	47d0      	blx	sl
10003340:	0020      	movs	r0, r4
10003342:	b025      	add	sp, #148	@ 0x94
10003344:	bcf0      	pop	{r4, r5, r6, r7}
10003346:	46bb      	mov	fp, r7
10003348:	46b2      	mov	sl, r6
1000334a:	46a9      	mov	r9, r5
1000334c:	46a0      	mov	r8, r4
1000334e:	bdf0      	pop	{r4, r5, r6, r7, pc}
10003350:	0001      	movs	r1, r0
10003352:	3969      	subs	r1, #105	@ 0x69
10003354:	b2c9      	uxtb	r1, r1
10003356:	290f      	cmp	r1, #15
10003358:	d900      	bls.n	1000335c <_vsnprintf+0x1a0>
1000335a:	e750      	b.n	100031fe <_vsnprintf+0x42>
1000335c:	2301      	movs	r3, #1
1000335e:	408b      	lsls	r3, r1
10003360:	469c      	mov	ip, r3
10003362:	4b6b      	ldr	r3, [pc, #428]	@ (10003510 <_vsnprintf+0x354>)
10003364:	4699      	mov	r9, r3
10003366:	4663      	mov	r3, ip
10003368:	464a      	mov	r2, r9
1000336a:	4013      	ands	r3, r2
1000336c:	930f      	str	r3, [sp, #60]	@ 0x3c
1000336e:	4662      	mov	r2, ip
10003370:	464b      	mov	r3, r9
10003372:	421a      	tst	r2, r3
10003374:	d000      	beq.n	10003378 <_vsnprintf+0x1bc>
10003376:	e168      	b.n	1000364a <_vsnprintf+0x48e>
10003378:	290a      	cmp	r1, #10
1000337a:	d056      	beq.n	1000342a <_vsnprintf+0x26e>
1000337c:	2907      	cmp	r1, #7
1000337e:	d000      	beq.n	10003382 <_vsnprintf+0x1c6>
10003380:	e73d      	b.n	100031fe <_vsnprintf+0x42>
10003382:	9b0d      	ldr	r3, [sp, #52]	@ 0x34
10003384:	cb02      	ldmia	r3!, {r1}
10003386:	4698      	mov	r8, r3
10003388:	2900      	cmp	r1, #0
1000338a:	d000      	beq.n	1000338e <_vsnprintf+0x1d2>
1000338c:	e192      	b.n	100036b4 <_vsnprintf+0x4f8>
1000338e:	9b0b      	ldr	r3, [sp, #44]	@ 0x2c
10003390:	2110      	movs	r1, #16
10003392:	001a      	movs	r2, r3
10003394:	438a      	bics	r2, r1
10003396:	0010      	movs	r0, r2
10003398:	3111      	adds	r1, #17
1000339a:	4308      	orrs	r0, r1
1000339c:	4681      	mov	r9, r0
1000339e:	2080      	movs	r0, #128	@ 0x80
100033a0:	001a      	movs	r2, r3
100033a2:	00c0      	lsls	r0, r0, #3
100033a4:	4002      	ands	r2, r0
100033a6:	0011      	movs	r1, r2
100033a8:	4203      	tst	r3, r0
100033aa:	d11c      	bne.n	100033e6 <_vsnprintf+0x22a>
100033ac:	ab14      	add	r3, sp, #80	@ 0x50
100033ae:	469c      	mov	ip, r3
100033b0:	221f      	movs	r2, #31
100033b2:	230f      	movs	r3, #15
100033b4:	4462      	add	r2, ip
100033b6:	950d      	str	r5, [sp, #52]	@ 0x34
100033b8:	469c      	mov	ip, r3
100033ba:	0015      	movs	r5, r2
100033bc:	9b0f      	ldr	r3, [sp, #60]	@ 0x3c
100033be:	940b      	str	r4, [sp, #44]	@ 0x2c
100033c0:	e002      	b.n	100033c8 <_vsnprintf+0x20c>
100033c2:	2b20      	cmp	r3, #32
100033c4:	d00c      	beq.n	100033e0 <_vsnprintf+0x224>
100033c6:	0011      	movs	r1, r2
100033c8:	4664      	mov	r4, ip
100033ca:	400c      	ands	r4, r1
100033cc:	0020      	movs	r0, r4
100033ce:	3037      	adds	r0, #55	@ 0x37
100033d0:	2c09      	cmp	r4, #9
100033d2:	d800      	bhi.n	100033d6 <_vsnprintf+0x21a>
100033d4:	3807      	subs	r0, #7
100033d6:	3301      	adds	r3, #1
100033d8:	54e8      	strb	r0, [r5, r3]
100033da:	090a      	lsrs	r2, r1, #4
100033dc:	290f      	cmp	r1, #15
100033de:	d8f0      	bhi.n	100033c2 <_vsnprintf+0x206>
100033e0:	9c0b      	ldr	r4, [sp, #44]	@ 0x2c
100033e2:	9d0d      	ldr	r5, [sp, #52]	@ 0x34
100033e4:	930f      	str	r3, [sp, #60]	@ 0x3c
100033e6:	464b      	mov	r3, r9
100033e8:	2208      	movs	r2, #8
100033ea:	9306      	str	r3, [sp, #24]
100033ec:	4653      	mov	r3, sl
100033ee:	9205      	str	r2, [sp, #20]
100033f0:	3208      	adds	r2, #8
100033f2:	9203      	str	r2, [sp, #12]
100033f4:	2200      	movs	r2, #0
100033f6:	9304      	str	r3, [sp, #16]
100033f8:	9b0f      	ldr	r3, [sp, #60]	@ 0x3c
100033fa:	9202      	str	r2, [sp, #8]
100033fc:	9301      	str	r3, [sp, #4]
100033fe:	ab1c      	add	r3, sp, #112	@ 0x70
10003400:	0022      	movs	r2, r4
10003402:	9300      	str	r3, [sp, #0]
10003404:	4659      	mov	r1, fp
10003406:	0033      	movs	r3, r6
10003408:	0028      	movs	r0, r5
1000340a:	f7ff f98d 	bl	10002728 <_ntoa_format>
1000340e:	4643      	mov	r3, r8
10003410:	0004      	movs	r4, r0
10003412:	930d      	str	r3, [sp, #52]	@ 0x34
10003414:	e6fa      	b.n	1000320c <_vsnprintf+0x50>
10003416:	9b0d      	ldr	r3, [sp, #52]	@ 0x34
10003418:	cb04      	ldmia	r3!, {r2}
1000341a:	4690      	mov	r8, r2
1000341c:	2a00      	cmp	r2, #0
1000341e:	db79      	blt.n	10003514 <_vsnprintf+0x358>
10003420:	7878      	ldrb	r0, [r7, #1]
10003422:	930d      	str	r3, [sp, #52]	@ 0x34
10003424:	000f      	movs	r7, r1
10003426:	3101      	adds	r1, #1
10003428:	e717      	b.n	1000325a <_vsnprintf+0x9e>
1000342a:	9b0d      	ldr	r3, [sp, #52]	@ 0x34
1000342c:	cb02      	ldmia	r3!, {r1}
1000342e:	9314      	str	r3, [sp, #80]	@ 0x50
10003430:	780b      	ldrb	r3, [r1, #0]
10003432:	469c      	mov	ip, r3
10003434:	0018      	movs	r0, r3
10003436:	4653      	mov	r3, sl
10003438:	2b00      	cmp	r3, #0
1000343a:	d100      	bne.n	1000343e <_vsnprintf+0x282>
1000343c:	e134      	b.n	100036a8 <_vsnprintf+0x4ec>
1000343e:	2800      	cmp	r0, #0
10003440:	d015      	beq.n	1000346e <_vsnprintf+0x2b2>
10003442:	4653      	mov	r3, sl
10003444:	3b01      	subs	r3, #1
10003446:	3301      	adds	r3, #1
10003448:	4699      	mov	r9, r3
1000344a:	940d      	str	r4, [sp, #52]	@ 0x34
1000344c:	9c0b      	ldr	r4, [sp, #44]	@ 0x2c
1000344e:	4489      	add	r9, r1
10003450:	464a      	mov	r2, r9
10003452:	000b      	movs	r3, r1
10003454:	46a1      	mov	r9, r4
10003456:	e001      	b.n	1000345c <_vsnprintf+0x2a0>
10003458:	4293      	cmp	r3, r2
1000345a:	d003      	beq.n	10003464 <_vsnprintf+0x2a8>
1000345c:	785c      	ldrb	r4, [r3, #1]
1000345e:	3301      	adds	r3, #1
10003460:	2c00      	cmp	r4, #0
10003462:	d1f9      	bne.n	10003458 <_vsnprintf+0x29c>
10003464:	464a      	mov	r2, r9
10003466:	1a5b      	subs	r3, r3, r1
10003468:	9c0d      	ldr	r4, [sp, #52]	@ 0x34
1000346a:	920b      	str	r2, [sp, #44]	@ 0x2c
1000346c:	930f      	str	r3, [sp, #60]	@ 0x3c
1000346e:	2380      	movs	r3, #128	@ 0x80
10003470:	00db      	lsls	r3, r3, #3
10003472:	4699      	mov	r9, r3
10003474:	9a0b      	ldr	r2, [sp, #44]	@ 0x2c
10003476:	4013      	ands	r3, r2
10003478:	930d      	str	r3, [sp, #52]	@ 0x34
1000347a:	464b      	mov	r3, r9
1000347c:	421a      	tst	r2, r3
1000347e:	d004      	beq.n	1000348a <_vsnprintf+0x2ce>
10003480:	9b0f      	ldr	r3, [sp, #60]	@ 0x3c
10003482:	4553      	cmp	r3, sl
10003484:	d901      	bls.n	1000348a <_vsnprintf+0x2ce>
10003486:	4653      	mov	r3, sl
10003488:	930f      	str	r3, [sp, #60]	@ 0x3c
1000348a:	2302      	movs	r3, #2
1000348c:	4699      	mov	r9, r3
1000348e:	9a0b      	ldr	r2, [sp, #44]	@ 0x2c
10003490:	4013      	ands	r3, r2
10003492:	930b      	str	r3, [sp, #44]	@ 0x2c
10003494:	464b      	mov	r3, r9
10003496:	4213      	tst	r3, r2
10003498:	d100      	bne.n	1000349c <_vsnprintf+0x2e0>
1000349a:	e1f5      	b.n	10003888 <_vsnprintf+0x6cc>
1000349c:	4663      	mov	r3, ip
1000349e:	2b00      	cmp	r3, #0
100034a0:	d100      	bne.n	100034a4 <_vsnprintf+0x2e8>
100034a2:	e1d6      	b.n	10003852 <_vsnprintf+0x696>
100034a4:	9b0d      	ldr	r3, [sp, #52]	@ 0x34
100034a6:	2b00      	cmp	r3, #0
100034a8:	d100      	bne.n	100034ac <_vsnprintf+0x2f0>
100034aa:	e182      	b.n	100037b2 <_vsnprintf+0x5f6>
100034ac:	1b0b      	subs	r3, r1, r4
100034ae:	46d1      	mov	r9, sl
100034b0:	0031      	movs	r1, r6
100034b2:	469a      	mov	sl, r3
100034b4:	003b      	movs	r3, r7
100034b6:	44a1      	add	r9, r4
100034b8:	002e      	movs	r6, r5
100034ba:	465f      	mov	r7, fp
100034bc:	464d      	mov	r5, r9
100034be:	0022      	movs	r2, r4
100034c0:	469b      	mov	fp, r3
100034c2:	4689      	mov	r9, r1
100034c4:	e009      	b.n	100034da <_vsnprintf+0x31e>
100034c6:	464b      	mov	r3, r9
100034c8:	0039      	movs	r1, r7
100034ca:	1c54      	adds	r4, r2, #1
100034cc:	47b0      	blx	r6
100034ce:	4653      	mov	r3, sl
100034d0:	5d18      	ldrb	r0, [r3, r4]
100034d2:	2800      	cmp	r0, #0
100034d4:	d100      	bne.n	100034d8 <_vsnprintf+0x31c>
100034d6:	e192      	b.n	100037fe <_vsnprintf+0x642>
100034d8:	0022      	movs	r2, r4
100034da:	4295      	cmp	r5, r2
100034dc:	d1f3      	bne.n	100034c6 <_vsnprintf+0x30a>
100034de:	464b      	mov	r3, r9
100034e0:	465a      	mov	r2, fp
100034e2:	46a9      	mov	r9, r5
100034e4:	46bb      	mov	fp, r7
100034e6:	0035      	movs	r5, r6
100034e8:	0017      	movs	r7, r2
100034ea:	001e      	movs	r6, r3
100034ec:	464c      	mov	r4, r9
100034ee:	9b0b      	ldr	r3, [sp, #44]	@ 0x2c
100034f0:	2b00      	cmp	r3, #0
100034f2:	d000      	beq.n	100034f6 <_vsnprintf+0x33a>
100034f4:	e1ad      	b.n	10003852 <_vsnprintf+0x696>
100034f6:	9b14      	ldr	r3, [sp, #80]	@ 0x50
100034f8:	930d      	str	r3, [sp, #52]	@ 0x34
100034fa:	e687      	b.n	1000320c <_vsnprintf+0x50>
100034fc:	100031bd 	.word	0x100031bd
10003500:	20002214 	.word	0x20002214
10003504:	10006eb0 	.word	0x10006eb0
10003508:	10006ef4 	.word	0x10006ef4
1000350c:	10006f40 	.word	0x10006f40
10003510:	00009041 	.word	0x00009041
10003514:	9a0b      	ldr	r2, [sp, #44]	@ 0x2c
10003516:	3828      	subs	r0, #40	@ 0x28
10003518:	4302      	orrs	r2, r0
1000351a:	920b      	str	r2, [sp, #44]	@ 0x2c
1000351c:	4642      	mov	r2, r8
1000351e:	4252      	negs	r2, r2
10003520:	7878      	ldrb	r0, [r7, #1]
10003522:	4690      	mov	r8, r2
10003524:	000f      	movs	r7, r1
10003526:	930d      	str	r3, [sp, #52]	@ 0x34
10003528:	3101      	adds	r1, #1
1000352a:	e696      	b.n	1000325a <_vsnprintf+0x9e>
1000352c:	7878      	ldrb	r0, [r7, #1]
1000352e:	286c      	cmp	r0, #108	@ 0x6c
10003530:	d100      	bne.n	10003534 <_vsnprintf+0x378>
10003532:	e15d      	b.n	100037f0 <_vsnprintf+0x634>
10003534:	2380      	movs	r3, #128	@ 0x80
10003536:	9a0b      	ldr	r2, [sp, #44]	@ 0x2c
10003538:	005b      	lsls	r3, r3, #1
1000353a:	431a      	orrs	r2, r3
1000353c:	920b      	str	r2, [sp, #44]	@ 0x2c
1000353e:	3101      	adds	r1, #1
10003540:	e6b3      	b.n	100032aa <_vsnprintf+0xee>
10003542:	2380      	movs	r3, #128	@ 0x80
10003544:	009b      	lsls	r3, r3, #2
10003546:	e6ab      	b.n	100032a0 <_vsnprintf+0xe4>
10003548:	7878      	ldrb	r0, [r7, #1]
1000354a:	2868      	cmp	r0, #104	@ 0x68
1000354c:	d100      	bne.n	10003550 <_vsnprintf+0x394>
1000354e:	e148      	b.n	100037e2 <_vsnprintf+0x626>
10003550:	2380      	movs	r3, #128	@ 0x80
10003552:	9a0b      	ldr	r2, [sp, #44]	@ 0x2c
10003554:	3101      	adds	r1, #1
10003556:	431a      	orrs	r2, r3
10003558:	920b      	str	r2, [sp, #44]	@ 0x2c
1000355a:	e6a6      	b.n	100032aa <_vsnprintf+0xee>
1000355c:	2867      	cmp	r0, #103	@ 0x67
1000355e:	d100      	bne.n	10003562 <_vsnprintf+0x3a6>
10003560:	e0b2      	b.n	100036c8 <_vsnprintf+0x50c>
10003562:	2847      	cmp	r0, #71	@ 0x47
10003564:	d100      	bne.n	10003568 <_vsnprintf+0x3ac>
10003566:	e11a      	b.n	1000379e <_vsnprintf+0x5e2>
10003568:	2845      	cmp	r0, #69	@ 0x45
1000356a:	d100      	bne.n	1000356e <_vsnprintf+0x3b2>
1000356c:	e11c      	b.n	100037a8 <_vsnprintf+0x5ec>
1000356e:	9a0b      	ldr	r2, [sp, #44]	@ 0x2c
10003570:	2107      	movs	r1, #7
10003572:	9204      	str	r2, [sp, #16]
10003574:	4642      	mov	r2, r8
10003576:	9b0d      	ldr	r3, [sp, #52]	@ 0x34
10003578:	9203      	str	r2, [sp, #12]
1000357a:	3307      	adds	r3, #7
1000357c:	4652      	mov	r2, sl
1000357e:	438b      	bics	r3, r1
10003580:	0019      	movs	r1, r3
10003582:	9202      	str	r2, [sp, #8]
10003584:	c90c      	ldmia	r1!, {r2, r3}
10003586:	0028      	movs	r0, r5
10003588:	9200      	str	r2, [sp, #0]
1000358a:	9301      	str	r3, [sp, #4]
1000358c:	910d      	str	r1, [sp, #52]	@ 0x34
1000358e:	0022      	movs	r2, r4
10003590:	0033      	movs	r3, r6
10003592:	4659      	mov	r1, fp
10003594:	f7ff fa00 	bl	10002998 <_etoa>
10003598:	0004      	movs	r4, r0
1000359a:	e637      	b.n	1000320c <_vsnprintf+0x50>
1000359c:	2846      	cmp	r0, #70	@ 0x46
1000359e:	d100      	bne.n	100035a2 <_vsnprintf+0x3e6>
100035a0:	e08d      	b.n	100036be <_vsnprintf+0x502>
100035a2:	9a0b      	ldr	r2, [sp, #44]	@ 0x2c
100035a4:	2107      	movs	r1, #7
100035a6:	9204      	str	r2, [sp, #16]
100035a8:	4642      	mov	r2, r8
100035aa:	9b0d      	ldr	r3, [sp, #52]	@ 0x34
100035ac:	9203      	str	r2, [sp, #12]
100035ae:	3307      	adds	r3, #7
100035b0:	4652      	mov	r2, sl
100035b2:	438b      	bics	r3, r1
100035b4:	0019      	movs	r1, r3
100035b6:	9202      	str	r2, [sp, #8]
100035b8:	c90c      	ldmia	r1!, {r2, r3}
100035ba:	0028      	movs	r0, r5
100035bc:	9200      	str	r2, [sp, #0]
100035be:	9301      	str	r3, [sp, #4]
100035c0:	910d      	str	r1, [sp, #52]	@ 0x34
100035c2:	0022      	movs	r2, r4
100035c4:	0033      	movs	r3, r6
100035c6:	4659      	mov	r1, fp
100035c8:	f7ff fc18 	bl	10002dfc <_ftoa>
100035cc:	0004      	movs	r4, r0
100035ce:	e61d      	b.n	1000320c <_vsnprintf+0x50>
100035d0:	1c63      	adds	r3, r4, #1
100035d2:	4698      	mov	r8, r3
100035d4:	0022      	movs	r2, r4
100035d6:	0033      	movs	r3, r6
100035d8:	4659      	mov	r1, fp
100035da:	2025      	movs	r0, #37	@ 0x25
100035dc:	47a8      	blx	r5
100035de:	4644      	mov	r4, r8
100035e0:	e614      	b.n	1000320c <_vsnprintf+0x50>
100035e2:	9b0d      	ldr	r3, [sp, #52]	@ 0x34
100035e4:	3304      	adds	r3, #4
100035e6:	930f      	str	r3, [sp, #60]	@ 0x3c
100035e8:	1c63      	adds	r3, r4, #1
100035ea:	4699      	mov	r9, r3
100035ec:	9b0b      	ldr	r3, [sp, #44]	@ 0x2c
100035ee:	079a      	lsls	r2, r3, #30
100035f0:	d400      	bmi.n	100035f4 <_vsnprintf+0x438>
100035f2:	e10a      	b.n	1000380a <_vsnprintf+0x64e>
100035f4:	9b0d      	ldr	r3, [sp, #52]	@ 0x34
100035f6:	0022      	movs	r2, r4
100035f8:	7818      	ldrb	r0, [r3, #0]
100035fa:	4659      	mov	r1, fp
100035fc:	0033      	movs	r3, r6
100035fe:	47a8      	blx	r5
10003600:	4643      	mov	r3, r8
10003602:	4444      	add	r4, r8
10003604:	2b01      	cmp	r3, #1
10003606:	d800      	bhi.n	1000360a <_vsnprintf+0x44e>
10003608:	e16f      	b.n	100038ea <_vsnprintf+0x72e>
1000360a:	46b0      	mov	r8, r6
1000360c:	002e      	movs	r6, r5
1000360e:	0025      	movs	r5, r4
10003610:	464c      	mov	r4, r9
10003612:	46b9      	mov	r9, r7
10003614:	465f      	mov	r7, fp
10003616:	0022      	movs	r2, r4
10003618:	4643      	mov	r3, r8
1000361a:	3401      	adds	r4, #1
1000361c:	0039      	movs	r1, r7
1000361e:	2020      	movs	r0, #32
10003620:	47b0      	blx	r6
10003622:	42ac      	cmp	r4, r5
10003624:	d1f7      	bne.n	10003616 <_vsnprintf+0x45a>
10003626:	002c      	movs	r4, r5
10003628:	46bb      	mov	fp, r7
1000362a:	0035      	movs	r5, r6
1000362c:	464f      	mov	r7, r9
1000362e:	4646      	mov	r6, r8
10003630:	9b0f      	ldr	r3, [sp, #60]	@ 0x3c
10003632:	930d      	str	r3, [sp, #52]	@ 0x34
10003634:	e5ea      	b.n	1000320c <_vsnprintf+0x50>
10003636:	4bd6      	ldr	r3, [pc, #856]	@ (10003990 <_vsnprintf+0x7d4>)
10003638:	7838      	ldrb	r0, [r7, #0]
1000363a:	469a      	mov	sl, r3
1000363c:	2300      	movs	r3, #0
1000363e:	4698      	mov	r8, r3
10003640:	2800      	cmp	r0, #0
10003642:	d000      	beq.n	10003646 <_vsnprintf+0x48a>
10003644:	e5d3      	b.n	100031ee <_vsnprintf+0x32>
10003646:	2400      	movs	r4, #0
10003648:	e66f      	b.n	1000332a <_vsnprintf+0x16e>
1000364a:	286f      	cmp	r0, #111	@ 0x6f
1000364c:	d042      	beq.n	100036d4 <_vsnprintf+0x518>
1000364e:	d800      	bhi.n	10003652 <_vsnprintf+0x496>
10003650:	e1fd      	b.n	10003a4e <_vsnprintf+0x892>
10003652:	2310      	movs	r3, #16
10003654:	2878      	cmp	r0, #120	@ 0x78
10003656:	d100      	bne.n	1000365a <_vsnprintf+0x49e>
10003658:	e09b      	b.n	10003792 <_vsnprintf+0x5d6>
1000365a:	9a0b      	ldr	r2, [sp, #44]	@ 0x2c
1000365c:	439a      	bics	r2, r3
1000365e:	920b      	str	r2, [sp, #44]	@ 0x2c
10003660:	230a      	movs	r3, #10
10003662:	469c      	mov	ip, r3
10003664:	2300      	movs	r3, #0
10003666:	9314      	str	r3, [sp, #80]	@ 0x50
10003668:	330a      	adds	r3, #10
1000366a:	930f      	str	r3, [sp, #60]	@ 0x3c
1000366c:	e038      	b.n	100036e0 <_vsnprintf+0x524>
1000366e:	4657      	mov	r7, sl
10003670:	9a0b      	ldr	r2, [sp, #44]	@ 0x2c
10003672:	00b9      	lsls	r1, r7, #2
10003674:	19c9      	adds	r1, r1, r7
10003676:	0049      	lsls	r1, r1, #1
10003678:	3301      	adds	r3, #1
1000367a:	180f      	adds	r7, r1, r0
1000367c:	7818      	ldrb	r0, [r3, #0]
1000367e:	3f30      	subs	r7, #48	@ 0x30
10003680:	0001      	movs	r1, r0
10003682:	3930      	subs	r1, #48	@ 0x30
10003684:	2909      	cmp	r1, #9
10003686:	d9f4      	bls.n	10003672 <_vsnprintf+0x4b6>
10003688:	46ba      	mov	sl, r7
1000368a:	920b      	str	r2, [sp, #44]	@ 0x2c
1000368c:	001f      	movs	r7, r3
1000368e:	1c59      	adds	r1, r3, #1
10003690:	e5e7      	b.n	10003262 <_vsnprintf+0xa6>
10003692:	9b0d      	ldr	r3, [sp, #52]	@ 0x34
10003694:	78b8      	ldrb	r0, [r7, #2]
10003696:	cb04      	ldmia	r3!, {r2}
10003698:	3702      	adds	r7, #2
1000369a:	43d1      	mvns	r1, r2
1000369c:	17c9      	asrs	r1, r1, #31
1000369e:	400a      	ands	r2, r1
100036a0:	4692      	mov	sl, r2
100036a2:	930d      	str	r3, [sp, #52]	@ 0x34
100036a4:	1c79      	adds	r1, r7, #1
100036a6:	e5dc      	b.n	10003262 <_vsnprintf+0xa6>
100036a8:	2800      	cmp	r0, #0
100036aa:	d100      	bne.n	100036ae <_vsnprintf+0x4f2>
100036ac:	e6df      	b.n	1000346e <_vsnprintf+0x2b2>
100036ae:	2302      	movs	r3, #2
100036b0:	425b      	negs	r3, r3
100036b2:	e6c8      	b.n	10003446 <_vsnprintf+0x28a>
100036b4:	2021      	movs	r0, #33	@ 0x21
100036b6:	9a0b      	ldr	r2, [sp, #44]	@ 0x2c
100036b8:	4302      	orrs	r2, r0
100036ba:	4691      	mov	r9, r2
100036bc:	e676      	b.n	100033ac <_vsnprintf+0x1f0>
100036be:	2320      	movs	r3, #32
100036c0:	9a0b      	ldr	r2, [sp, #44]	@ 0x2c
100036c2:	431a      	orrs	r2, r3
100036c4:	920b      	str	r2, [sp, #44]	@ 0x2c
100036c6:	e76c      	b.n	100035a2 <_vsnprintf+0x3e6>
100036c8:	2380      	movs	r3, #128	@ 0x80
100036ca:	9a0b      	ldr	r2, [sp, #44]	@ 0x2c
100036cc:	011b      	lsls	r3, r3, #4
100036ce:	431a      	orrs	r2, r3
100036d0:	920b      	str	r2, [sp, #44]	@ 0x2c
100036d2:	e74c      	b.n	1000356e <_vsnprintf+0x3b2>
100036d4:	2308      	movs	r3, #8
100036d6:	469c      	mov	ip, r3
100036d8:	2300      	movs	r3, #0
100036da:	9314      	str	r3, [sp, #80]	@ 0x50
100036dc:	3308      	adds	r3, #8
100036de:	930f      	str	r3, [sp, #60]	@ 0x3c
100036e0:	980b      	ldr	r0, [sp, #44]	@ 0x2c
100036e2:	2380      	movs	r3, #128	@ 0x80
100036e4:	0002      	movs	r2, r0
100036e6:	00db      	lsls	r3, r3, #3
100036e8:	401a      	ands	r2, r3
100036ea:	0011      	movs	r1, r2
100036ec:	0002      	movs	r2, r0
100036ee:	4218      	tst	r0, r3
100036f0:	d000      	beq.n	100036f4 <_vsnprintf+0x538>
100036f2:	e080      	b.n	100037f6 <_vsnprintf+0x63a>
100036f4:	230c      	movs	r3, #12
100036f6:	439a      	bics	r2, r3
100036f8:	0010      	movs	r0, r2
100036fa:	2380      	movs	r3, #128	@ 0x80
100036fc:	0002      	movs	r2, r0
100036fe:	009b      	lsls	r3, r3, #2
10003700:	401a      	ands	r2, r3
10003702:	920b      	str	r2, [sp, #44]	@ 0x2c
10003704:	4218      	tst	r0, r3
10003706:	d000      	beq.n	1000370a <_vsnprintf+0x54e>
10003708:	e0f1      	b.n	100038ee <_vsnprintf+0x732>
1000370a:	2380      	movs	r3, #128	@ 0x80
1000370c:	0002      	movs	r2, r0
1000370e:	005b      	lsls	r3, r3, #1
10003710:	401a      	ands	r2, r3
10003712:	4691      	mov	r9, r2
10003714:	9a0d      	ldr	r2, [sp, #52]	@ 0x34
10003716:	3204      	adds	r2, #4
10003718:	9214      	str	r2, [sp, #80]	@ 0x50
1000371a:	4218      	tst	r0, r3
1000371c:	d000      	beq.n	10003720 <_vsnprintf+0x564>
1000371e:	e2c3      	b.n	10003ca8 <_vsnprintf+0xaec>
10003720:	0643      	lsls	r3, r0, #25
10003722:	d500      	bpl.n	10003726 <_vsnprintf+0x56a>
10003724:	e0d7      	b.n	100038d6 <_vsnprintf+0x71a>
10003726:	0603      	lsls	r3, r0, #24
10003728:	d400      	bmi.n	1000372c <_vsnprintf+0x570>
1000372a:	e321      	b.n	10003d70 <_vsnprintf+0xbb4>
1000372c:	9b0d      	ldr	r3, [sp, #52]	@ 0x34
1000372e:	881b      	ldrh	r3, [r3, #0]
10003730:	9309      	str	r3, [sp, #36]	@ 0x24
10003732:	2b00      	cmp	r3, #0
10003734:	d000      	beq.n	10003738 <_vsnprintf+0x57c>
10003736:	e12d      	b.n	10003994 <_vsnprintf+0x7d8>
10003738:	3310      	adds	r3, #16
1000373a:	4398      	bics	r0, r3
1000373c:	2900      	cmp	r1, #0
1000373e:	d100      	bne.n	10003742 <_vsnprintf+0x586>
10003740:	e128      	b.n	10003994 <_vsnprintf+0x7d8>
10003742:	2300      	movs	r3, #0
10003744:	4699      	mov	r9, r3
10003746:	4643      	mov	r3, r8
10003748:	9305      	str	r3, [sp, #20]
1000374a:	4653      	mov	r3, sl
1000374c:	9304      	str	r3, [sp, #16]
1000374e:	9b0f      	ldr	r3, [sp, #60]	@ 0x3c
10003750:	9006      	str	r0, [sp, #24]
10003752:	9303      	str	r3, [sp, #12]
10003754:	2300      	movs	r3, #0
10003756:	9302      	str	r3, [sp, #8]
10003758:	464b      	mov	r3, r9
1000375a:	9301      	str	r3, [sp, #4]
1000375c:	ab1c      	add	r3, sp, #112	@ 0x70
1000375e:	0022      	movs	r2, r4
10003760:	9300      	str	r3, [sp, #0]
10003762:	4659      	mov	r1, fp
10003764:	0033      	movs	r3, r6
10003766:	0028      	movs	r0, r5
10003768:	f7fe ffde 	bl	10002728 <_ntoa_format>
1000376c:	0004      	movs	r4, r0
1000376e:	e6c2      	b.n	100034f6 <_vsnprintf+0x33a>
10003770:	2858      	cmp	r0, #88	@ 0x58
10003772:	d009      	beq.n	10003788 <_vsnprintf+0x5cc>
10003774:	2862      	cmp	r0, #98	@ 0x62
10003776:	d000      	beq.n	1000377a <_vsnprintf+0x5be>
10003778:	e2e3      	b.n	10003d42 <_vsnprintf+0xb86>
1000377a:	2302      	movs	r3, #2
1000377c:	469c      	mov	ip, r3
1000377e:	2300      	movs	r3, #0
10003780:	9314      	str	r3, [sp, #80]	@ 0x50
10003782:	3302      	adds	r3, #2
10003784:	930f      	str	r3, [sp, #60]	@ 0x3c
10003786:	e7ab      	b.n	100036e0 <_vsnprintf+0x524>
10003788:	2320      	movs	r3, #32
1000378a:	9a0b      	ldr	r2, [sp, #44]	@ 0x2c
1000378c:	431a      	orrs	r2, r3
1000378e:	920b      	str	r2, [sp, #44]	@ 0x2c
10003790:	3b10      	subs	r3, #16
10003792:	469c      	mov	ip, r3
10003794:	2300      	movs	r3, #0
10003796:	9314      	str	r3, [sp, #80]	@ 0x50
10003798:	3310      	adds	r3, #16
1000379a:	930f      	str	r3, [sp, #60]	@ 0x3c
1000379c:	e7a0      	b.n	100036e0 <_vsnprintf+0x524>
1000379e:	2380      	movs	r3, #128	@ 0x80
100037a0:	9a0b      	ldr	r2, [sp, #44]	@ 0x2c
100037a2:	011b      	lsls	r3, r3, #4
100037a4:	431a      	orrs	r2, r3
100037a6:	920b      	str	r2, [sp, #44]	@ 0x2c
100037a8:	2320      	movs	r3, #32
100037aa:	9a0b      	ldr	r2, [sp, #44]	@ 0x2c
100037ac:	431a      	orrs	r2, r3
100037ae:	920b      	str	r2, [sp, #44]	@ 0x2c
100037b0:	e6dd      	b.n	1000356e <_vsnprintf+0x3b2>
100037b2:	1b0b      	subs	r3, r1, r4
100037b4:	469a      	mov	sl, r3
100037b6:	9b0f      	ldr	r3, [sp, #60]	@ 0x3c
100037b8:	4699      	mov	r9, r3
100037ba:	003b      	movs	r3, r7
100037bc:	0037      	movs	r7, r6
100037be:	465e      	mov	r6, fp
100037c0:	469b      	mov	fp, r3
100037c2:	0022      	movs	r2, r4
100037c4:	003b      	movs	r3, r7
100037c6:	0031      	movs	r1, r6
100037c8:	47a8      	blx	r5
100037ca:	4653      	mov	r3, sl
100037cc:	3401      	adds	r4, #1
100037ce:	5d18      	ldrb	r0, [r3, r4]
100037d0:	2800      	cmp	r0, #0
100037d2:	d1f6      	bne.n	100037c2 <_vsnprintf+0x606>
100037d4:	464b      	mov	r3, r9
100037d6:	930f      	str	r3, [sp, #60]	@ 0x3c
100037d8:	465b      	mov	r3, fp
100037da:	46b3      	mov	fp, r6
100037dc:	003e      	movs	r6, r7
100037de:	001f      	movs	r7, r3
100037e0:	e685      	b.n	100034ee <_vsnprintf+0x332>
100037e2:	23c0      	movs	r3, #192	@ 0xc0
100037e4:	9a0b      	ldr	r2, [sp, #44]	@ 0x2c
100037e6:	78b8      	ldrb	r0, [r7, #2]
100037e8:	431a      	orrs	r2, r3
100037ea:	920b      	str	r2, [sp, #44]	@ 0x2c
100037ec:	1cf9      	adds	r1, r7, #3
100037ee:	e55c      	b.n	100032aa <_vsnprintf+0xee>
100037f0:	23c0      	movs	r3, #192	@ 0xc0
100037f2:	009b      	lsls	r3, r3, #2
100037f4:	e7f6      	b.n	100037e4 <_vsnprintf+0x628>
100037f6:	230d      	movs	r3, #13
100037f8:	439a      	bics	r2, r3
100037fa:	0010      	movs	r0, r2
100037fc:	e77d      	b.n	100036fa <_vsnprintf+0x53e>
100037fe:	465b      	mov	r3, fp
10003800:	0035      	movs	r5, r6
10003802:	46bb      	mov	fp, r7
10003804:	464e      	mov	r6, r9
10003806:	001f      	movs	r7, r3
10003808:	e671      	b.n	100034ee <_vsnprintf+0x332>
1000380a:	4643      	mov	r3, r8
1000380c:	2b01      	cmp	r3, #1
1000380e:	d966      	bls.n	100038de <_vsnprintf+0x722>
10003810:	1e63      	subs	r3, r4, #1
10003812:	4443      	add	r3, r8
10003814:	0032      	movs	r2, r6
10003816:	002e      	movs	r6, r5
10003818:	001d      	movs	r5, r3
1000381a:	003b      	movs	r3, r7
1000381c:	46a2      	mov	sl, r4
1000381e:	465f      	mov	r7, fp
10003820:	4691      	mov	r9, r2
10003822:	469b      	mov	fp, r3
10003824:	0022      	movs	r2, r4
10003826:	464b      	mov	r3, r9
10003828:	3401      	adds	r4, #1
1000382a:	0039      	movs	r1, r7
1000382c:	2020      	movs	r0, #32
1000382e:	47b0      	blx	r6
10003830:	42ac      	cmp	r4, r5
10003832:	d1f7      	bne.n	10003824 <_vsnprintf+0x668>
10003834:	465b      	mov	r3, fp
10003836:	0035      	movs	r5, r6
10003838:	46bb      	mov	fp, r7
1000383a:	464e      	mov	r6, r9
1000383c:	46a1      	mov	r9, r4
1000383e:	4654      	mov	r4, sl
10003840:	001f      	movs	r7, r3
10003842:	9b0d      	ldr	r3, [sp, #52]	@ 0x34
10003844:	464a      	mov	r2, r9
10003846:	7818      	ldrb	r0, [r3, #0]
10003848:	4659      	mov	r1, fp
1000384a:	0033      	movs	r3, r6
1000384c:	4444      	add	r4, r8
1000384e:	47a8      	blx	r5
10003850:	e6ee      	b.n	10003630 <_vsnprintf+0x474>
10003852:	9b0f      	ldr	r3, [sp, #60]	@ 0x3c
10003854:	46a1      	mov	r9, r4
10003856:	4598      	cmp	r8, r3
10003858:	d800      	bhi.n	1000385c <_vsnprintf+0x6a0>
1000385a:	e64c      	b.n	100034f6 <_vsnprintf+0x33a>
1000385c:	4444      	add	r4, r8
1000385e:	1ae4      	subs	r4, r4, r3
10003860:	46b0      	mov	r8, r6
10003862:	002e      	movs	r6, r5
10003864:	0025      	movs	r5, r4
10003866:	464c      	mov	r4, r9
10003868:	46b9      	mov	r9, r7
1000386a:	465f      	mov	r7, fp
1000386c:	0022      	movs	r2, r4
1000386e:	4643      	mov	r3, r8
10003870:	3401      	adds	r4, #1
10003872:	0039      	movs	r1, r7
10003874:	2020      	movs	r0, #32
10003876:	47b0      	blx	r6
10003878:	42ac      	cmp	r4, r5
1000387a:	d1f7      	bne.n	1000386c <_vsnprintf+0x6b0>
1000387c:	002c      	movs	r4, r5
1000387e:	46bb      	mov	fp, r7
10003880:	0035      	movs	r5, r6
10003882:	464f      	mov	r7, r9
10003884:	4646      	mov	r6, r8
10003886:	e636      	b.n	100034f6 <_vsnprintf+0x33a>
10003888:	980f      	ldr	r0, [sp, #60]	@ 0x3c
1000388a:	4580      	cmp	r8, r0
1000388c:	d800      	bhi.n	10003890 <_vsnprintf+0x6d4>
1000388e:	e273      	b.n	10003d78 <_vsnprintf+0xbbc>
10003890:	4643      	mov	r3, r8
10003892:	18e2      	adds	r2, r4, r3
10003894:	1a13      	subs	r3, r2, r0
10003896:	0032      	movs	r2, r6
10003898:	002e      	movs	r6, r5
1000389a:	001d      	movs	r5, r3
1000389c:	003b      	movs	r3, r7
1000389e:	4691      	mov	r9, r2
100038a0:	465f      	mov	r7, fp
100038a2:	469b      	mov	fp, r3
100038a4:	910f      	str	r1, [sp, #60]	@ 0x3c
100038a6:	0022      	movs	r2, r4
100038a8:	464b      	mov	r3, r9
100038aa:	3401      	adds	r4, #1
100038ac:	0039      	movs	r1, r7
100038ae:	2020      	movs	r0, #32
100038b0:	47b0      	blx	r6
100038b2:	42ac      	cmp	r4, r5
100038b4:	d1f7      	bne.n	100038a6 <_vsnprintf+0x6ea>
100038b6:	465b      	mov	r3, fp
100038b8:	46bb      	mov	fp, r7
100038ba:	001f      	movs	r7, r3
100038bc:	4643      	mov	r3, r8
100038be:	990f      	ldr	r1, [sp, #60]	@ 0x3c
100038c0:	3301      	adds	r3, #1
100038c2:	930f      	str	r3, [sp, #60]	@ 0x3c
100038c4:	780b      	ldrb	r3, [r1, #0]
100038c6:	0035      	movs	r5, r6
100038c8:	469c      	mov	ip, r3
100038ca:	464e      	mov	r6, r9
100038cc:	4660      	mov	r0, ip
100038ce:	2800      	cmp	r0, #0
100038d0:	d000      	beq.n	100038d4 <_vsnprintf+0x718>
100038d2:	e5e7      	b.n	100034a4 <_vsnprintf+0x2e8>
100038d4:	e60f      	b.n	100034f6 <_vsnprintf+0x33a>
100038d6:	9b0d      	ldr	r3, [sp, #52]	@ 0x34
100038d8:	781b      	ldrb	r3, [r3, #0]
100038da:	9309      	str	r3, [sp, #36]	@ 0x24
100038dc:	e729      	b.n	10003732 <_vsnprintf+0x576>
100038de:	9b0d      	ldr	r3, [sp, #52]	@ 0x34
100038e0:	0022      	movs	r2, r4
100038e2:	7818      	ldrb	r0, [r3, #0]
100038e4:	4659      	mov	r1, fp
100038e6:	0033      	movs	r3, r6
100038e8:	47a8      	blx	r5
100038ea:	464c      	mov	r4, r9
100038ec:	e6a0      	b.n	10003630 <_vsnprintf+0x474>
100038ee:	9a0d      	ldr	r2, [sp, #52]	@ 0x34
100038f0:	3bfa      	subs	r3, #250	@ 0xfa
100038f2:	3bff      	subs	r3, #255	@ 0xff
100038f4:	3207      	adds	r2, #7
100038f6:	439a      	bics	r2, r3
100038f8:	3301      	adds	r3, #1
100038fa:	4699      	mov	r9, r3
100038fc:	4491      	add	r9, r2
100038fe:	464b      	mov	r3, r9
10003900:	930d      	str	r3, [sp, #52]	@ 0x34
10003902:	6813      	ldr	r3, [r2, #0]
10003904:	6852      	ldr	r2, [r2, #4]
10003906:	9215      	str	r2, [sp, #84]	@ 0x54
10003908:	431a      	orrs	r2, r3
1000390a:	d106      	bne.n	1000391a <_vsnprintf+0x75e>
1000390c:	3210      	adds	r2, #16
1000390e:	4390      	bics	r0, r2
10003910:	2200      	movs	r2, #0
10003912:	9209      	str	r2, [sp, #36]	@ 0x24
10003914:	2900      	cmp	r1, #0
10003916:	d000      	beq.n	1000391a <_vsnprintf+0x75e>
10003918:	e083      	b.n	10003a22 <_vsnprintf+0x866>
1000391a:	2261      	movs	r2, #97	@ 0x61
1000391c:	0681      	lsls	r1, r0, #26
1000391e:	d500      	bpl.n	10003922 <_vsnprintf+0x766>
10003920:	2241      	movs	r2, #65	@ 0x41
10003922:	b2d2      	uxtb	r2, r2
10003924:	920a      	str	r2, [sp, #40]	@ 0x28
10003926:	aa14      	add	r2, sp, #80	@ 0x50
10003928:	4691      	mov	r9, r2
1000392a:	9a0a      	ldr	r2, [sp, #40]	@ 0x28
1000392c:	2100      	movs	r1, #0
1000392e:	3a0a      	subs	r2, #10
10003930:	920b      	str	r2, [sp, #44]	@ 0x2c
10003932:	4642      	mov	r2, r8
10003934:	9217      	str	r2, [sp, #92]	@ 0x5c
10003936:	4652      	mov	r2, sl
10003938:	9218      	str	r2, [sp, #96]	@ 0x60
1000393a:	465a      	mov	r2, fp
1000393c:	46b2      	mov	sl, r6
1000393e:	9109      	str	r1, [sp, #36]	@ 0x24
10003940:	001e      	movs	r6, r3
10003942:	311f      	adds	r1, #31
10003944:	9b14      	ldr	r3, [sp, #80]	@ 0x50
10003946:	4449      	add	r1, r9
10003948:	46bb      	mov	fp, r7
1000394a:	9416      	str	r4, [sp, #88]	@ 0x58
1000394c:	951a      	str	r5, [sp, #104]	@ 0x68
1000394e:	2400      	movs	r4, #0
10003950:	4667      	mov	r7, ip
10003952:	4698      	mov	r8, r3
10003954:	4689      	mov	r9, r1
10003956:	9d15      	ldr	r5, [sp, #84]	@ 0x54
10003958:	9019      	str	r0, [sp, #100]	@ 0x64
1000395a:	921b      	str	r2, [sp, #108]	@ 0x6c
1000395c:	e00a      	b.n	10003974 <_vsnprintf+0x7b8>
1000395e:	3230      	adds	r2, #48	@ 0x30
10003960:	b2d2      	uxtb	r2, r2
10003962:	464b      	mov	r3, r9
10003964:	3401      	adds	r4, #1
10003966:	551a      	strb	r2, [r3, r4]
10003968:	45a8      	cmp	r8, r5
1000396a:	d04c      	beq.n	10003a06 <_vsnprintf+0x84a>
1000396c:	2c20      	cmp	r4, #32
1000396e:	d04c      	beq.n	10003a0a <_vsnprintf+0x84e>
10003970:	0006      	movs	r6, r0
10003972:	000d      	movs	r5, r1
10003974:	003a      	movs	r2, r7
10003976:	2300      	movs	r3, #0
10003978:	0030      	movs	r0, r6
1000397a:	0029      	movs	r1, r5
1000397c:	f7fe f828 	bl	100019d0 <__wrap___aeabi_uldivmod>
10003980:	b2d2      	uxtb	r2, r2
10003982:	2a09      	cmp	r2, #9
10003984:	d9eb      	bls.n	1000395e <_vsnprintf+0x7a2>
10003986:	9b0b      	ldr	r3, [sp, #44]	@ 0x2c
10003988:	469c      	mov	ip, r3
1000398a:	4462      	add	r2, ip
1000398c:	b2d2      	uxtb	r2, r2
1000398e:	e7e8      	b.n	10003962 <_vsnprintf+0x7a6>
10003990:	10002679 	.word	0x10002679
10003994:	2361      	movs	r3, #97	@ 0x61
10003996:	0682      	lsls	r2, r0, #26
10003998:	d500      	bpl.n	1000399c <_vsnprintf+0x7e0>
1000399a:	2341      	movs	r3, #65	@ 0x41
1000399c:	b2db      	uxtb	r3, r3
1000399e:	3b0a      	subs	r3, #10
100039a0:	930b      	str	r3, [sp, #44]	@ 0x2c
100039a2:	4643      	mov	r3, r8
100039a4:	a914      	add	r1, sp, #80	@ 0x50
100039a6:	221f      	movs	r2, #31
100039a8:	468c      	mov	ip, r1
100039aa:	9315      	str	r3, [sp, #84]	@ 0x54
100039ac:	4653      	mov	r3, sl
100039ae:	4462      	add	r2, ip
100039b0:	46b2      	mov	sl, r6
100039b2:	940d      	str	r4, [sp, #52]	@ 0x34
100039b4:	9717      	str	r7, [sp, #92]	@ 0x5c
100039b6:	464c      	mov	r4, r9
100039b8:	4680      	mov	r8, r0
100039ba:	46a9      	mov	r9, r5
100039bc:	0017      	movs	r7, r2
100039be:	9d09      	ldr	r5, [sp, #36]	@ 0x24
100039c0:	9e0f      	ldr	r6, [sp, #60]	@ 0x3c
100039c2:	9316      	str	r3, [sp, #88]	@ 0x58
100039c4:	e008      	b.n	100039d8 <_vsnprintf+0x81c>
100039c6:	3330      	adds	r3, #48	@ 0x30
100039c8:	b2db      	uxtb	r3, r3
100039ca:	3401      	adds	r4, #1
100039cc:	553b      	strb	r3, [r7, r4]
100039ce:	42b5      	cmp	r5, r6
100039d0:	d30e      	bcc.n	100039f0 <_vsnprintf+0x834>
100039d2:	2c20      	cmp	r4, #32
100039d4:	d00c      	beq.n	100039f0 <_vsnprintf+0x834>
100039d6:	0005      	movs	r5, r0
100039d8:	0031      	movs	r1, r6
100039da:	0028      	movs	r0, r5
100039dc:	f7fd ffba 	bl	10001954 <__wrap___aeabi_uidiv>
100039e0:	b2cb      	uxtb	r3, r1
100039e2:	2909      	cmp	r1, #9
100039e4:	d9ef      	bls.n	100039c6 <_vsnprintf+0x80a>
100039e6:	9a0b      	ldr	r2, [sp, #44]	@ 0x2c
100039e8:	4694      	mov	ip, r2
100039ea:	4463      	add	r3, ip
100039ec:	b2db      	uxtb	r3, r3
100039ee:	e7ec      	b.n	100039ca <_vsnprintf+0x80e>
100039f0:	9b15      	ldr	r3, [sp, #84]	@ 0x54
100039f2:	4640      	mov	r0, r8
100039f4:	4698      	mov	r8, r3
100039f6:	9b16      	ldr	r3, [sp, #88]	@ 0x58
100039f8:	464d      	mov	r5, r9
100039fa:	4656      	mov	r6, sl
100039fc:	46a1      	mov	r9, r4
100039fe:	469a      	mov	sl, r3
10003a00:	9c0d      	ldr	r4, [sp, #52]	@ 0x34
10003a02:	9f17      	ldr	r7, [sp, #92]	@ 0x5c
10003a04:	e69f      	b.n	10003746 <_vsnprintf+0x58a>
10003a06:	42b7      	cmp	r7, r6
10003a08:	d9b0      	bls.n	1000396c <_vsnprintf+0x7b0>
10003a0a:	9b17      	ldr	r3, [sp, #92]	@ 0x5c
10003a0c:	4656      	mov	r6, sl
10003a0e:	4698      	mov	r8, r3
10003a10:	9b18      	ldr	r3, [sp, #96]	@ 0x60
10003a12:	465f      	mov	r7, fp
10003a14:	469a      	mov	sl, r3
10003a16:	9b1b      	ldr	r3, [sp, #108]	@ 0x6c
10003a18:	9409      	str	r4, [sp, #36]	@ 0x24
10003a1a:	469b      	mov	fp, r3
10003a1c:	9c16      	ldr	r4, [sp, #88]	@ 0x58
10003a1e:	9819      	ldr	r0, [sp, #100]	@ 0x64
10003a20:	9d1a      	ldr	r5, [sp, #104]	@ 0x68
10003a22:	4643      	mov	r3, r8
10003a24:	9305      	str	r3, [sp, #20]
10003a26:	4653      	mov	r3, sl
10003a28:	9304      	str	r3, [sp, #16]
10003a2a:	9b0f      	ldr	r3, [sp, #60]	@ 0x3c
10003a2c:	9006      	str	r0, [sp, #24]
10003a2e:	9303      	str	r3, [sp, #12]
10003a30:	2300      	movs	r3, #0
10003a32:	9302      	str	r3, [sp, #8]
10003a34:	9b09      	ldr	r3, [sp, #36]	@ 0x24
10003a36:	9301      	str	r3, [sp, #4]
10003a38:	ab1c      	add	r3, sp, #112	@ 0x70
10003a3a:	0022      	movs	r2, r4
10003a3c:	9300      	str	r3, [sp, #0]
10003a3e:	4659      	mov	r1, fp
10003a40:	0033      	movs	r3, r6
10003a42:	0028      	movs	r0, r5
10003a44:	f7fe fe70 	bl	10002728 <_ntoa_format>
10003a48:	0004      	movs	r4, r0
10003a4a:	f7ff fbdf 	bl	1000320c <_vsnprintf+0x50>
10003a4e:	2310      	movs	r3, #16
10003a50:	9a0b      	ldr	r2, [sp, #44]	@ 0x2c
10003a52:	439a      	bics	r2, r3
10003a54:	920f      	str	r2, [sp, #60]	@ 0x3c
10003a56:	2869      	cmp	r0, #105	@ 0x69
10003a58:	d000      	beq.n	10003a5c <_vsnprintf+0x8a0>
10003a5a:	e191      	b.n	10003d80 <_vsnprintf+0xbc4>
10003a5c:	990b      	ldr	r1, [sp, #44]	@ 0x2c
10003a5e:	2380      	movs	r3, #128	@ 0x80
10003a60:	000a      	movs	r2, r1
10003a62:	00db      	lsls	r3, r3, #3
10003a64:	401a      	ands	r2, r3
10003a66:	0010      	movs	r0, r2
10003a68:	000a      	movs	r2, r1
10003a6a:	4219      	tst	r1, r3
10003a6c:	d003      	beq.n	10003a76 <_vsnprintf+0x8ba>
10003a6e:	2111      	movs	r1, #17
10003a70:	0018      	movs	r0, r3
10003a72:	438a      	bics	r2, r1
10003a74:	920f      	str	r2, [sp, #60]	@ 0x3c
10003a76:	9a0f      	ldr	r2, [sp, #60]	@ 0x3c
10003a78:	2380      	movs	r3, #128	@ 0x80
10003a7a:	0011      	movs	r1, r2
10003a7c:	009b      	lsls	r3, r3, #2
10003a7e:	4019      	ands	r1, r3
10003a80:	468c      	mov	ip, r1
10003a82:	421a      	tst	r2, r3
10003a84:	d15b      	bne.n	10003b3e <_vsnprintf+0x982>
10003a86:	2380      	movs	r3, #128	@ 0x80
10003a88:	0011      	movs	r1, r2
10003a8a:	005b      	lsls	r3, r3, #1
10003a8c:	4019      	ands	r1, r3
10003a8e:	4689      	mov	r9, r1
10003a90:	990d      	ldr	r1, [sp, #52]	@ 0x34
10003a92:	3104      	adds	r1, #4
10003a94:	910b      	str	r1, [sp, #44]	@ 0x2c
10003a96:	421a      	tst	r2, r3
10003a98:	d000      	beq.n	10003a9c <_vsnprintf+0x8e0>
10003a9a:	e0b2      	b.n	10003c02 <_vsnprintf+0xa46>
10003a9c:	0013      	movs	r3, r2
10003a9e:	065b      	lsls	r3, r3, #25
10003aa0:	d400      	bmi.n	10003aa4 <_vsnprintf+0x8e8>
10003aa2:	e0ed      	b.n	10003c80 <_vsnprintf+0xac4>
10003aa4:	9b0d      	ldr	r3, [sp, #52]	@ 0x34
10003aa6:	781b      	ldrb	r3, [r3, #0]
10003aa8:	001a      	movs	r2, r3
10003aaa:	0fd9      	lsrs	r1, r3, #31
10003aac:	910d      	str	r1, [sp, #52]	@ 0x34
10003aae:	2b00      	cmp	r3, #0
10003ab0:	d100      	bne.n	10003ab4 <_vsnprintf+0x8f8>
10003ab2:	e0a3      	b.n	10003bfc <_vsnprintf+0xa40>
10003ab4:	0010      	movs	r0, r2
10003ab6:	aa14      	add	r2, sp, #80	@ 0x50
10003ab8:	4694      	mov	ip, r2
10003aba:	4642      	mov	r2, r8
10003abc:	231f      	movs	r3, #31
10003abe:	9215      	str	r2, [sp, #84]	@ 0x54
10003ac0:	4652      	mov	r2, sl
10003ac2:	4463      	add	r3, ip
10003ac4:	46a8      	mov	r8, r5
10003ac6:	46ba      	mov	sl, r7
10003ac8:	464d      	mov	r5, r9
10003aca:	9414      	str	r4, [sp, #80]	@ 0x50
10003acc:	46b1      	mov	r9, r6
10003ace:	0004      	movs	r4, r0
10003ad0:	001f      	movs	r7, r3
10003ad2:	9216      	str	r2, [sp, #88]	@ 0x58
10003ad4:	e001      	b.n	10003ada <_vsnprintf+0x91e>
10003ad6:	2d20      	cmp	r5, #32
10003ad8:	d00f      	beq.n	10003afa <_vsnprintf+0x93e>
10003ada:	0020      	movs	r0, r4
10003adc:	210a      	movs	r1, #10
10003ade:	f7fd ff39 	bl	10001954 <__wrap___aeabi_uidiv>
10003ae2:	3501      	adds	r5, #1
10003ae4:	197e      	adds	r6, r7, r5
10003ae6:	3130      	adds	r1, #48	@ 0x30
10003ae8:	7031      	strb	r1, [r6, #0]
10003aea:	0020      	movs	r0, r4
10003aec:	210a      	movs	r1, #10
10003aee:	f7fd ff31 	bl	10001954 <__wrap___aeabi_uidiv>
10003af2:	0026      	movs	r6, r4
10003af4:	0004      	movs	r4, r0
10003af6:	2e09      	cmp	r6, #9
10003af8:	d8ed      	bhi.n	10003ad6 <_vsnprintf+0x91a>
10003afa:	9b15      	ldr	r3, [sp, #84]	@ 0x54
10003afc:	464e      	mov	r6, r9
10003afe:	46a9      	mov	r9, r5
10003b00:	4645      	mov	r5, r8
10003b02:	4698      	mov	r8, r3
10003b04:	9b16      	ldr	r3, [sp, #88]	@ 0x58
10003b06:	4657      	mov	r7, sl
10003b08:	469a      	mov	sl, r3
10003b0a:	9c14      	ldr	r4, [sp, #80]	@ 0x50
10003b0c:	9b0f      	ldr	r3, [sp, #60]	@ 0x3c
10003b0e:	9306      	str	r3, [sp, #24]
10003b10:	4643      	mov	r3, r8
10003b12:	9305      	str	r3, [sp, #20]
10003b14:	4653      	mov	r3, sl
10003b16:	9304      	str	r3, [sp, #16]
10003b18:	230a      	movs	r3, #10
10003b1a:	9303      	str	r3, [sp, #12]
10003b1c:	9b0d      	ldr	r3, [sp, #52]	@ 0x34
10003b1e:	9302      	str	r3, [sp, #8]
10003b20:	464b      	mov	r3, r9
10003b22:	9301      	str	r3, [sp, #4]
10003b24:	ab1c      	add	r3, sp, #112	@ 0x70
10003b26:	0022      	movs	r2, r4
10003b28:	9300      	str	r3, [sp, #0]
10003b2a:	4659      	mov	r1, fp
10003b2c:	0033      	movs	r3, r6
10003b2e:	0028      	movs	r0, r5
10003b30:	f7fe fdfa 	bl	10002728 <_ntoa_format>
10003b34:	9b0b      	ldr	r3, [sp, #44]	@ 0x2c
10003b36:	0004      	movs	r4, r0
10003b38:	930d      	str	r3, [sp, #52]	@ 0x34
10003b3a:	f7ff fb67 	bl	1000320c <_vsnprintf+0x50>
10003b3e:	2207      	movs	r2, #7
10003b40:	9b0d      	ldr	r3, [sp, #52]	@ 0x34
10003b42:	3307      	adds	r3, #7
10003b44:	4393      	bics	r3, r2
10003b46:	3201      	adds	r2, #1
10003b48:	4694      	mov	ip, r2
10003b4a:	449c      	add	ip, r3
10003b4c:	4662      	mov	r2, ip
10003b4e:	920d      	str	r2, [sp, #52]	@ 0x34
10003b50:	cb0c      	ldmia	r3, {r2, r3}
10003b52:	0fd9      	lsrs	r1, r3, #31
10003b54:	910b      	str	r1, [sp, #44]	@ 0x2c
10003b56:	0011      	movs	r1, r2
10003b58:	4319      	orrs	r1, r3
10003b5a:	d100      	bne.n	10003b5e <_vsnprintf+0x9a2>
10003b5c:	e09b      	b.n	10003c96 <_vsnprintf+0xada>
10003b5e:	17d9      	asrs	r1, r3, #31
10003b60:	9113      	str	r1, [sp, #76]	@ 0x4c
10003b62:	9112      	str	r1, [sp, #72]	@ 0x48
10003b64:	4051      	eors	r1, r2
10003b66:	9110      	str	r1, [sp, #64]	@ 0x40
10003b68:	9913      	ldr	r1, [sp, #76]	@ 0x4c
10003b6a:	4059      	eors	r1, r3
10003b6c:	9111      	str	r1, [sp, #68]	@ 0x44
10003b6e:	9810      	ldr	r0, [sp, #64]	@ 0x40
10003b70:	9911      	ldr	r1, [sp, #68]	@ 0x44
10003b72:	9a12      	ldr	r2, [sp, #72]	@ 0x48
10003b74:	9b13      	ldr	r3, [sp, #76]	@ 0x4c
10003b76:	1a80      	subs	r0, r0, r2
10003b78:	4199      	sbcs	r1, r3
10003b7a:	9010      	str	r0, [sp, #64]	@ 0x40
10003b7c:	9111      	str	r1, [sp, #68]	@ 0x44
10003b7e:	aa14      	add	r2, sp, #80	@ 0x50
10003b80:	4694      	mov	ip, r2
10003b82:	4642      	mov	r2, r8
10003b84:	2300      	movs	r3, #0
10003b86:	9215      	str	r2, [sp, #84]	@ 0x54
10003b88:	4652      	mov	r2, sl
10003b8a:	4699      	mov	r9, r3
10003b8c:	9216      	str	r2, [sp, #88]	@ 0x58
10003b8e:	0032      	movs	r2, r6
10003b90:	331f      	adds	r3, #31
10003b92:	4463      	add	r3, ip
10003b94:	46a8      	mov	r8, r5
10003b96:	464e      	mov	r6, r9
10003b98:	46ba      	mov	sl, r7
10003b9a:	9414      	str	r4, [sp, #80]	@ 0x50
10003b9c:	001f      	movs	r7, r3
10003b9e:	9c10      	ldr	r4, [sp, #64]	@ 0x40
10003ba0:	9d11      	ldr	r5, [sp, #68]	@ 0x44
10003ba2:	4691      	mov	r9, r2
10003ba4:	e001      	b.n	10003baa <_vsnprintf+0x9ee>
10003ba6:	2e20      	cmp	r6, #32
10003ba8:	d010      	beq.n	10003bcc <_vsnprintf+0xa10>
10003baa:	0020      	movs	r0, r4
10003bac:	0029      	movs	r1, r5
10003bae:	220a      	movs	r2, #10
10003bb0:	2300      	movs	r3, #0
10003bb2:	f7fd ff0d 	bl	100019d0 <__wrap___aeabi_uldivmod>
10003bb6:	3601      	adds	r6, #1
10003bb8:	3230      	adds	r2, #48	@ 0x30
10003bba:	002b      	movs	r3, r5
10003bbc:	55ba      	strb	r2, [r7, r6]
10003bbe:	000d      	movs	r5, r1
10003bc0:	0022      	movs	r2, r4
10003bc2:	0004      	movs	r4, r0
10003bc4:	2b00      	cmp	r3, #0
10003bc6:	d1ee      	bne.n	10003ba6 <_vsnprintf+0x9ea>
10003bc8:	2a09      	cmp	r2, #9
10003bca:	d8ec      	bhi.n	10003ba6 <_vsnprintf+0x9ea>
10003bcc:	9b15      	ldr	r3, [sp, #84]	@ 0x54
10003bce:	9410      	str	r4, [sp, #64]	@ 0x40
10003bd0:	9511      	str	r5, [sp, #68]	@ 0x44
10003bd2:	4645      	mov	r5, r8
10003bd4:	4698      	mov	r8, r3
10003bd6:	464b      	mov	r3, r9
10003bd8:	9a16      	ldr	r2, [sp, #88]	@ 0x58
10003bda:	46b1      	mov	r9, r6
10003bdc:	4657      	mov	r7, sl
10003bde:	001e      	movs	r6, r3
10003be0:	4692      	mov	sl, r2
10003be2:	9c14      	ldr	r4, [sp, #80]	@ 0x50
10003be4:	9b0f      	ldr	r3, [sp, #60]	@ 0x3c
10003be6:	9306      	str	r3, [sp, #24]
10003be8:	4643      	mov	r3, r8
10003bea:	9305      	str	r3, [sp, #20]
10003bec:	4653      	mov	r3, sl
10003bee:	9304      	str	r3, [sp, #16]
10003bf0:	230a      	movs	r3, #10
10003bf2:	9303      	str	r3, [sp, #12]
10003bf4:	9b0b      	ldr	r3, [sp, #44]	@ 0x2c
10003bf6:	9302      	str	r3, [sp, #8]
10003bf8:	464b      	mov	r3, r9
10003bfa:	e71c      	b.n	10003a36 <_vsnprintf+0x87a>
10003bfc:	2800      	cmp	r0, #0
10003bfe:	d185      	bne.n	10003b0c <_vsnprintf+0x950>
10003c00:	e759      	b.n	10003ab6 <_vsnprintf+0x8fa>
10003c02:	9b0d      	ldr	r3, [sp, #52]	@ 0x34
10003c04:	681b      	ldr	r3, [r3, #0]
10003c06:	0fda      	lsrs	r2, r3, #31
10003c08:	0011      	movs	r1, r2
10003c0a:	2b00      	cmp	r3, #0
10003c0c:	d100      	bne.n	10003c10 <_vsnprintf+0xa54>
10003c0e:	e0a6      	b.n	10003d5e <_vsnprintf+0xba2>
10003c10:	17da      	asrs	r2, r3, #31
10003c12:	1898      	adds	r0, r3, r2
10003c14:	4050      	eors	r0, r2
10003c16:	aa14      	add	r2, sp, #80	@ 0x50
10003c18:	4691      	mov	r9, r2
10003c1a:	231f      	movs	r3, #31
10003c1c:	4642      	mov	r2, r8
10003c1e:	444b      	add	r3, r9
10003c20:	46a8      	mov	r8, r5
10003c22:	940d      	str	r4, [sp, #52]	@ 0x34
10003c24:	9716      	str	r7, [sp, #88]	@ 0x58
10003c26:	0004      	movs	r4, r0
10003c28:	4665      	mov	r5, ip
10003c2a:	46b1      	mov	r9, r6
10003c2c:	001f      	movs	r7, r3
10003c2e:	9114      	str	r1, [sp, #80]	@ 0x50
10003c30:	9215      	str	r2, [sp, #84]	@ 0x54
10003c32:	e001      	b.n	10003c38 <_vsnprintf+0xa7c>
10003c34:	2d20      	cmp	r5, #32
10003c36:	d00f      	beq.n	10003c58 <_vsnprintf+0xa9c>
10003c38:	0020      	movs	r0, r4
10003c3a:	210a      	movs	r1, #10
10003c3c:	f7fd fe8a 	bl	10001954 <__wrap___aeabi_uidiv>
10003c40:	3501      	adds	r5, #1
10003c42:	197e      	adds	r6, r7, r5
10003c44:	3130      	adds	r1, #48	@ 0x30
10003c46:	7031      	strb	r1, [r6, #0]
10003c48:	0020      	movs	r0, r4
10003c4a:	210a      	movs	r1, #10
10003c4c:	f7fd fe82 	bl	10001954 <__wrap___aeabi_uidiv>
10003c50:	0026      	movs	r6, r4
10003c52:	0004      	movs	r4, r0
10003c54:	2e09      	cmp	r6, #9
10003c56:	d8ed      	bhi.n	10003c34 <_vsnprintf+0xa78>
10003c58:	9b15      	ldr	r3, [sp, #84]	@ 0x54
10003c5a:	46ac      	mov	ip, r5
10003c5c:	4645      	mov	r5, r8
10003c5e:	4698      	mov	r8, r3
10003c60:	9b14      	ldr	r3, [sp, #80]	@ 0x50
10003c62:	464e      	mov	r6, r9
10003c64:	0019      	movs	r1, r3
10003c66:	9c0d      	ldr	r4, [sp, #52]	@ 0x34
10003c68:	9f16      	ldr	r7, [sp, #88]	@ 0x58
10003c6a:	9b0f      	ldr	r3, [sp, #60]	@ 0x3c
10003c6c:	9102      	str	r1, [sp, #8]
10003c6e:	9306      	str	r3, [sp, #24]
10003c70:	4643      	mov	r3, r8
10003c72:	9305      	str	r3, [sp, #20]
10003c74:	4653      	mov	r3, sl
10003c76:	9304      	str	r3, [sp, #16]
10003c78:	230a      	movs	r3, #10
10003c7a:	9303      	str	r3, [sp, #12]
10003c7c:	4663      	mov	r3, ip
10003c7e:	e750      	b.n	10003b22 <_vsnprintf+0x966>
10003c80:	0013      	movs	r3, r2
10003c82:	061b      	lsls	r3, r3, #24
10003c84:	d56e      	bpl.n	10003d64 <_vsnprintf+0xba8>
10003c86:	9b0d      	ldr	r3, [sp, #52]	@ 0x34
10003c88:	2200      	movs	r2, #0
10003c8a:	5e9b      	ldrsh	r3, [r3, r2]
10003c8c:	17d9      	asrs	r1, r3, #31
10003c8e:	185a      	adds	r2, r3, r1
10003c90:	404a      	eors	r2, r1
10003c92:	b292      	uxth	r2, r2
10003c94:	e709      	b.n	10003aaa <_vsnprintf+0x8ee>
10003c96:	2300      	movs	r3, #0
10003c98:	4699      	mov	r9, r3
10003c9a:	2800      	cmp	r0, #0
10003c9c:	d1a2      	bne.n	10003be4 <_vsnprintf+0xa28>
10003c9e:	2200      	movs	r2, #0
10003ca0:	2300      	movs	r3, #0
10003ca2:	9210      	str	r2, [sp, #64]	@ 0x40
10003ca4:	9311      	str	r3, [sp, #68]	@ 0x44
10003ca6:	e76a      	b.n	10003b7e <_vsnprintf+0x9c2>
10003ca8:	9b0d      	ldr	r3, [sp, #52]	@ 0x34
10003caa:	681b      	ldr	r3, [r3, #0]
10003cac:	4699      	mov	r9, r3
10003cae:	2b00      	cmp	r3, #0
10003cb0:	d103      	bne.n	10003cba <_vsnprintf+0xafe>
10003cb2:	3310      	adds	r3, #16
10003cb4:	4398      	bics	r0, r3
10003cb6:	2900      	cmp	r1, #0
10003cb8:	d138      	bne.n	10003d2c <_vsnprintf+0xb70>
10003cba:	2361      	movs	r3, #97	@ 0x61
10003cbc:	0682      	lsls	r2, r0, #26
10003cbe:	d500      	bpl.n	10003cc2 <_vsnprintf+0xb06>
10003cc0:	2341      	movs	r3, #65	@ 0x41
10003cc2:	b2db      	uxtb	r3, r3
10003cc4:	3b0a      	subs	r3, #10
10003cc6:	930d      	str	r3, [sp, #52]	@ 0x34
10003cc8:	4643      	mov	r3, r8
10003cca:	9316      	str	r3, [sp, #88]	@ 0x58
10003ccc:	4653      	mov	r3, sl
10003cce:	a914      	add	r1, sp, #80	@ 0x50
10003cd0:	221f      	movs	r2, #31
10003cd2:	468c      	mov	ip, r1
10003cd4:	9317      	str	r3, [sp, #92]	@ 0x5c
10003cd6:	002b      	movs	r3, r5
10003cd8:	4462      	add	r2, ip
10003cda:	464d      	mov	r5, r9
10003cdc:	46b2      	mov	sl, r6
10003cde:	9415      	str	r4, [sp, #84]	@ 0x54
10003ce0:	9718      	str	r7, [sp, #96]	@ 0x60
10003ce2:	4680      	mov	r8, r0
10003ce4:	0017      	movs	r7, r2
10003ce6:	4699      	mov	r9, r3
10003ce8:	9c0b      	ldr	r4, [sp, #44]	@ 0x2c
10003cea:	9e0f      	ldr	r6, [sp, #60]	@ 0x3c
10003cec:	e008      	b.n	10003d00 <_vsnprintf+0xb44>
10003cee:	3330      	adds	r3, #48	@ 0x30
10003cf0:	b2db      	uxtb	r3, r3
10003cf2:	3401      	adds	r4, #1
10003cf4:	553b      	strb	r3, [r7, r4]
10003cf6:	42b5      	cmp	r5, r6
10003cf8:	d30e      	bcc.n	10003d18 <_vsnprintf+0xb5c>
10003cfa:	2c20      	cmp	r4, #32
10003cfc:	d00c      	beq.n	10003d18 <_vsnprintf+0xb5c>
10003cfe:	0005      	movs	r5, r0
10003d00:	0031      	movs	r1, r6
10003d02:	0028      	movs	r0, r5
10003d04:	f7fd fe26 	bl	10001954 <__wrap___aeabi_uidiv>
10003d08:	b2cb      	uxtb	r3, r1
10003d0a:	2909      	cmp	r1, #9
10003d0c:	d9ef      	bls.n	10003cee <_vsnprintf+0xb32>
10003d0e:	9a0d      	ldr	r2, [sp, #52]	@ 0x34
10003d10:	4694      	mov	ip, r2
10003d12:	4463      	add	r3, ip
10003d14:	b2db      	uxtb	r3, r3
10003d16:	e7ec      	b.n	10003cf2 <_vsnprintf+0xb36>
10003d18:	9b16      	ldr	r3, [sp, #88]	@ 0x58
10003d1a:	4640      	mov	r0, r8
10003d1c:	4698      	mov	r8, r3
10003d1e:	9b17      	ldr	r3, [sp, #92]	@ 0x5c
10003d20:	4656      	mov	r6, sl
10003d22:	464d      	mov	r5, r9
10003d24:	469a      	mov	sl, r3
10003d26:	940b      	str	r4, [sp, #44]	@ 0x2c
10003d28:	9f18      	ldr	r7, [sp, #96]	@ 0x60
10003d2a:	9c15      	ldr	r4, [sp, #84]	@ 0x54
10003d2c:	4643      	mov	r3, r8
10003d2e:	9305      	str	r3, [sp, #20]
10003d30:	4653      	mov	r3, sl
10003d32:	9304      	str	r3, [sp, #16]
10003d34:	9b0f      	ldr	r3, [sp, #60]	@ 0x3c
10003d36:	9006      	str	r0, [sp, #24]
10003d38:	9303      	str	r3, [sp, #12]
10003d3a:	2300      	movs	r3, #0
10003d3c:	9302      	str	r3, [sp, #8]
10003d3e:	9b0b      	ldr	r3, [sp, #44]	@ 0x2c
10003d40:	e50b      	b.n	1000375a <_vsnprintf+0x59e>
10003d42:	990b      	ldr	r1, [sp, #44]	@ 0x2c
10003d44:	2380      	movs	r3, #128	@ 0x80
10003d46:	000a      	movs	r2, r1
10003d48:	00db      	lsls	r3, r3, #3
10003d4a:	401a      	ands	r2, r3
10003d4c:	0010      	movs	r0, r2
10003d4e:	000a      	movs	r2, r1
10003d50:	4219      	tst	r1, r3
10003d52:	d000      	beq.n	10003d56 <_vsnprintf+0xb9a>
10003d54:	e68b      	b.n	10003a6e <_vsnprintf+0x8b2>
10003d56:	2310      	movs	r3, #16
10003d58:	439a      	bics	r2, r3
10003d5a:	920f      	str	r2, [sp, #60]	@ 0x3c
10003d5c:	e68b      	b.n	10003a76 <_vsnprintf+0x8ba>
10003d5e:	2800      	cmp	r0, #0
10003d60:	d183      	bne.n	10003c6a <_vsnprintf+0xaae>
10003d62:	e758      	b.n	10003c16 <_vsnprintf+0xa5a>
10003d64:	9b0d      	ldr	r3, [sp, #52]	@ 0x34
10003d66:	681b      	ldr	r3, [r3, #0]
10003d68:	17d9      	asrs	r1, r3, #31
10003d6a:	185a      	adds	r2, r3, r1
10003d6c:	404a      	eors	r2, r1
10003d6e:	e69c      	b.n	10003aaa <_vsnprintf+0x8ee>
10003d70:	9b0d      	ldr	r3, [sp, #52]	@ 0x34
10003d72:	681b      	ldr	r3, [r3, #0]
10003d74:	9309      	str	r3, [sp, #36]	@ 0x24
10003d76:	e4dc      	b.n	10003732 <_vsnprintf+0x576>
10003d78:	0003      	movs	r3, r0
10003d7a:	3301      	adds	r3, #1
10003d7c:	930f      	str	r3, [sp, #60]	@ 0x3c
10003d7e:	e5a5      	b.n	100038cc <_vsnprintf+0x710>
10003d80:	920b      	str	r2, [sp, #44]	@ 0x2c
10003d82:	e46d      	b.n	10003660 <_vsnprintf+0x4a4>

10003d84 <vfctprintf>:
10003d84:	b500      	push	{lr}
10003d86:	b085      	sub	sp, #20
10003d88:	9103      	str	r1, [sp, #12]
10003d8a:	2101      	movs	r1, #1
10003d8c:	9002      	str	r0, [sp, #8]
10003d8e:	9300      	str	r3, [sp, #0]
10003d90:	4803      	ldr	r0, [pc, #12]	@ (10003da0 <vfctprintf+0x1c>)
10003d92:	0013      	movs	r3, r2
10003d94:	424a      	negs	r2, r1
10003d96:	a902      	add	r1, sp, #8
10003d98:	f7ff fa10 	bl	100031bc <_vsnprintf>
10003d9c:	b005      	add	sp, #20
10003d9e:	bd00      	pop	{pc}
10003da0:	10002989 	.word	0x10002989

10003da4 <weak_raw_vprintf>:
10003da4:	b510      	push	{r4, lr}
10003da6:	4a09      	ldr	r2, [pc, #36]	@ (10003dcc <weak_raw_vprintf+0x28>)
10003da8:	0003      	movs	r3, r0
10003daa:	6814      	ldr	r4, [r2, #0]
10003dac:	b084      	sub	sp, #16
10003dae:	2c00      	cmp	r4, #0
10003db0:	d008      	beq.n	10003dc4 <weak_raw_vprintf+0x20>
10003db2:	2201      	movs	r2, #1
10003db4:	9100      	str	r1, [sp, #0]
10003db6:	4806      	ldr	r0, [pc, #24]	@ (10003dd0 <weak_raw_vprintf+0x2c>)
10003db8:	4252      	negs	r2, r2
10003dba:	a903      	add	r1, sp, #12
10003dbc:	47a0      	blx	r4
10003dbe:	2001      	movs	r0, #1
10003dc0:	b004      	add	sp, #16
10003dc2:	bd10      	pop	{r4, pc}
10003dc4:	f000 f98e 	bl	100040e4 <__wrap_puts>
10003dc8:	2000      	movs	r0, #0
10003dca:	e7f9      	b.n	10003dc0 <weak_raw_vprintf+0x1c>
10003dcc:	20002214 	.word	0x20002214
10003dd0:	10002979 	.word	0x10002979

10003dd4 <_exit>:
10003dd4:	be00      	bkpt	0x0000
10003dd6:	e7fd      	b.n	10003dd4 <_exit>

10003dd8 <exit>:
10003dd8:	b510      	push	{r4, lr}
10003dda:	f7ff fffb 	bl	10003dd4 <_exit>
10003dde:	46c0      	nop			@ (mov r8, r8)

10003de0 <runtime_init>:
10003de0:	b570      	push	{r4, r5, r6, lr}
10003de2:	f7fd fc75 	bl	100016d0 <runtime_run_initializers>
10003de6:	4d07      	ldr	r5, [pc, #28]	@ (10003e04 <runtime_init+0x24>)
10003de8:	4e07      	ldr	r6, [pc, #28]	@ (10003e08 <runtime_init+0x28>)
10003dea:	42b5      	cmp	r5, r6
10003dec:	d209      	bcs.n	10003e02 <runtime_init+0x22>
10003dee:	2400      	movs	r4, #0
10003df0:	3e01      	subs	r6, #1
10003df2:	1b76      	subs	r6, r6, r5
10003df4:	08b6      	lsrs	r6, r6, #2
10003df6:	cd08      	ldmia	r5!, {r3}
10003df8:	4798      	blx	r3
10003dfa:	0023      	movs	r3, r4
10003dfc:	3401      	adds	r4, #1
10003dfe:	42b3      	cmp	r3, r6
10003e00:	d1f9      	bne.n	10003df6 <runtime_init+0x16>
10003e02:	bd70      	pop	{r4, r5, r6, pc}
10003e04:	10006c74 	.word	0x10006c74
10003e08:	10006c80 	.word	0x10006c80

10003e0c <stdio_out_chars_no_crlf>:
10003e0c:	0003      	movs	r3, r0
10003e0e:	b510      	push	{r4, lr}
10003e10:	0008      	movs	r0, r1
10003e12:	0011      	movs	r1, r2
10003e14:	681b      	ldr	r3, [r3, #0]
10003e16:	4798      	blx	r3
10003e18:	bd10      	pop	{r4, pc}
10003e1a:	46c0      	nop			@ (mov r8, r8)

10003e1c <stdio_out_chars_crlf>:
10003e1c:	b5f0      	push	{r4, r5, r6, r7, lr}
10003e1e:	46c6      	mov	lr, r8
10003e20:	b500      	push	{lr}
10003e22:	7d43      	ldrb	r3, [r0, #21]
10003e24:	0007      	movs	r7, r0
10003e26:	000d      	movs	r5, r1
10003e28:	0016      	movs	r6, r2
10003e2a:	2b00      	cmp	r3, #0
10003e2c:	d038      	beq.n	10003ea0 <stdio_out_chars_crlf+0x84>
10003e2e:	2a00      	cmp	r2, #0
10003e30:	dd2e      	ble.n	10003e90 <stdio_out_chars_crlf+0x74>
10003e32:	2100      	movs	r1, #0
10003e34:	1e6a      	subs	r2, r5, #1
10003e36:	4690      	mov	r8, r2
10003e38:	5c6a      	ldrb	r2, [r5, r1]
10003e3a:	7d03      	ldrb	r3, [r0, #20]
10003e3c:	1c4c      	adds	r4, r1, #1
10003e3e:	2000      	movs	r0, #0
10003e40:	2a0a      	cmp	r2, #10
10003e42:	d00c      	beq.n	10003e5e <stdio_out_chars_crlf+0x42>
10003e44:	42a6      	cmp	r6, r4
10003e46:	d016      	beq.n	10003e76 <stdio_out_chars_crlf+0x5a>
10003e48:	4643      	mov	r3, r8
10003e4a:	5d1b      	ldrb	r3, [r3, r4]
10003e4c:	0021      	movs	r1, r4
10003e4e:	3b0d      	subs	r3, #13
10003e50:	425a      	negs	r2, r3
10003e52:	4153      	adcs	r3, r2
10003e54:	5c6a      	ldrb	r2, [r5, r1]
10003e56:	b2db      	uxtb	r3, r3
10003e58:	1c4c      	adds	r4, r1, #1
10003e5a:	2a0a      	cmp	r2, #10
10003e5c:	d1f2      	bne.n	10003e44 <stdio_out_chars_crlf+0x28>
10003e5e:	2b00      	cmp	r3, #0
10003e60:	d1f0      	bne.n	10003e44 <stdio_out_chars_crlf+0x28>
10003e62:	4288      	cmp	r0, r1
10003e64:	db17      	blt.n	10003e96 <stdio_out_chars_crlf+0x7a>
10003e66:	2102      	movs	r1, #2
10003e68:	4810      	ldr	r0, [pc, #64]	@ (10003eac <stdio_out_chars_crlf+0x90>)
10003e6a:	683b      	ldr	r3, [r7, #0]
10003e6c:	4798      	blx	r3
10003e6e:	42a6      	cmp	r6, r4
10003e70:	d007      	beq.n	10003e82 <stdio_out_chars_crlf+0x66>
10003e72:	0020      	movs	r0, r4
10003e74:	e7e8      	b.n	10003e48 <stdio_out_chars_crlf+0x2c>
10003e76:	4286      	cmp	r6, r0
10003e78:	dd03      	ble.n	10003e82 <stdio_out_chars_crlf+0x66>
10003e7a:	1a31      	subs	r1, r6, r0
10003e7c:	683b      	ldr	r3, [r7, #0]
10003e7e:	1828      	adds	r0, r5, r0
10003e80:	4798      	blx	r3
10003e82:	19ad      	adds	r5, r5, r6
10003e84:	3d01      	subs	r5, #1
10003e86:	782b      	ldrb	r3, [r5, #0]
10003e88:	3b0d      	subs	r3, #13
10003e8a:	425a      	negs	r2, r3
10003e8c:	4153      	adcs	r3, r2
10003e8e:	753b      	strb	r3, [r7, #20]
10003e90:	bc80      	pop	{r7}
10003e92:	46b8      	mov	r8, r7
10003e94:	bdf0      	pop	{r4, r5, r6, r7, pc}
10003e96:	1a09      	subs	r1, r1, r0
10003e98:	683b      	ldr	r3, [r7, #0]
10003e9a:	1828      	adds	r0, r5, r0
10003e9c:	4798      	blx	r3
10003e9e:	e7e2      	b.n	10003e66 <stdio_out_chars_crlf+0x4a>
10003ea0:	6803      	ldr	r3, [r0, #0]
10003ea2:	0011      	movs	r1, r2
10003ea4:	0028      	movs	r0, r5
10003ea6:	4798      	blx	r3
10003ea8:	e7f2      	b.n	10003e90 <stdio_out_chars_crlf+0x74>
10003eaa:	46c0      	nop			@ (mov r8, r8)
10003eac:	100070a0 	.word	0x100070a0

10003eb0 <stdio_buffered_printer>:
10003eb0:	b5f0      	push	{r4, r5, r6, r7, lr}
10003eb2:	46c6      	mov	lr, r8
10003eb4:	680b      	ldr	r3, [r1, #0]
10003eb6:	0006      	movs	r6, r0
10003eb8:	000c      	movs	r4, r1
10003eba:	b500      	push	{lr}
10003ebc:	2b80      	cmp	r3, #128	@ 0x80
10003ebe:	d006      	beq.n	10003ece <stdio_buffered_printer+0x1e>
10003ec0:	1c5a      	adds	r2, r3, #1
10003ec2:	6022      	str	r2, [r4, #0]
10003ec4:	18e4      	adds	r4, r4, r3
10003ec6:	7126      	strb	r6, [r4, #4]
10003ec8:	bc80      	pop	{r7}
10003eca:	46b8      	mov	r8, r7
10003ecc:	bdf0      	pop	{r4, r5, r6, r7, pc}
10003ece:	4b0f      	ldr	r3, [pc, #60]	@ (10003f0c <stdio_buffered_printer+0x5c>)
10003ed0:	681d      	ldr	r5, [r3, #0]
10003ed2:	2d00      	cmp	r5, #0
10003ed4:	d016      	beq.n	10003f04 <stdio_buffered_printer+0x54>
10003ed6:	1d0b      	adds	r3, r1, #4
10003ed8:	4698      	mov	r8, r3
10003eda:	4f0d      	ldr	r7, [pc, #52]	@ (10003f10 <stdio_buffered_printer+0x60>)
10003edc:	e002      	b.n	10003ee4 <stdio_buffered_printer+0x34>
10003ede:	692d      	ldr	r5, [r5, #16]
10003ee0:	2d00      	cmp	r5, #0
10003ee2:	d00f      	beq.n	10003f04 <stdio_buffered_printer+0x54>
10003ee4:	682b      	ldr	r3, [r5, #0]
10003ee6:	2b00      	cmp	r3, #0
10003ee8:	d0f9      	beq.n	10003ede <stdio_buffered_printer+0x2e>
10003eea:	683b      	ldr	r3, [r7, #0]
10003eec:	2b00      	cmp	r3, #0
10003eee:	d001      	beq.n	10003ef4 <stdio_buffered_printer+0x44>
10003ef0:	42ab      	cmp	r3, r5
10003ef2:	d1f4      	bne.n	10003ede <stdio_buffered_printer+0x2e>
10003ef4:	0028      	movs	r0, r5
10003ef6:	4641      	mov	r1, r8
10003ef8:	6822      	ldr	r2, [r4, #0]
10003efa:	f7ff ff8f 	bl	10003e1c <stdio_out_chars_crlf>
10003efe:	692d      	ldr	r5, [r5, #16]
10003f00:	2d00      	cmp	r5, #0
10003f02:	d1ef      	bne.n	10003ee4 <stdio_buffered_printer+0x34>
10003f04:	2201      	movs	r2, #1
10003f06:	2300      	movs	r3, #0
10003f08:	e7db      	b.n	10003ec2 <stdio_buffered_printer+0x12>
10003f0a:	46c0      	nop			@ (mov r8, r8)
10003f0c:	20001e08 	.word	0x20001e08
10003f10:	20001e10 	.word	0x20001e10

10003f14 <stdio_put_string>:
10003f14:	b5f0      	push	{r4, r5, r6, r7, lr}
10003f16:	46de      	mov	lr, fp
10003f18:	4657      	mov	r7, sl
10003f1a:	464e      	mov	r6, r9
10003f1c:	4645      	mov	r5, r8
10003f1e:	b5e0      	push	{r5, r6, r7, lr}
10003f20:	b085      	sub	sp, #20
10003f22:	0017      	movs	r7, r2
10003f24:	001c      	movs	r4, r3
10003f26:	0006      	movs	r6, r0
10003f28:	000d      	movs	r5, r1
10003f2a:	f7fd f9ff 	bl	1000132c <time_us_64>
10003f2e:	2300      	movs	r3, #0
10003f30:	4a31      	ldr	r2, [pc, #196]	@ (10003ff8 <stdio_put_string+0xe4>)
10003f32:	1812      	adds	r2, r2, r0
10003f34:	414b      	adcs	r3, r1
10003f36:	2180      	movs	r1, #128	@ 0x80
10003f38:	0609      	lsls	r1, r1, #24
10003f3a:	428b      	cmp	r3, r1
10003f3c:	d302      	bcc.n	10003f44 <stdio_put_string+0x30>
10003f3e:	2201      	movs	r2, #1
10003f40:	4b2e      	ldr	r3, [pc, #184]	@ (10003ffc <stdio_put_string+0xe8>)
10003f42:	4252      	negs	r2, r2
10003f44:	492e      	ldr	r1, [pc, #184]	@ (10004000 <stdio_put_string+0xec>)
10003f46:	0008      	movs	r0, r1
10003f48:	468a      	mov	sl, r1
10003f4a:	f002 fe4d 	bl	10006be8 <__mutex_try_enter_block_until_veneer>
10003f4e:	9001      	str	r0, [sp, #4]
10003f50:	1c6b      	adds	r3, r5, #1
10003f52:	d103      	bne.n	10003f5c <stdio_put_string+0x48>
10003f54:	0030      	movs	r0, r6
10003f56:	f002 fd83 	bl	10006a60 <strlen>
10003f5a:	0005      	movs	r5, r0
10003f5c:	2c00      	cmp	r4, #0
10003f5e:	d026      	beq.n	10003fae <stdio_put_string+0x9a>
10003f60:	4b28      	ldr	r3, [pc, #160]	@ (10004004 <stdio_put_string+0xf0>)
10003f62:	4698      	mov	r8, r3
10003f64:	4b28      	ldr	r3, [pc, #160]	@ (10004008 <stdio_put_string+0xf4>)
10003f66:	681c      	ldr	r4, [r3, #0]
10003f68:	2c00      	cmp	r4, #0
10003f6a:	d015      	beq.n	10003f98 <stdio_put_string+0x84>
10003f6c:	2f00      	cmp	r7, #0
10003f6e:	d121      	bne.n	10003fb4 <stdio_put_string+0xa0>
10003f70:	4f26      	ldr	r7, [pc, #152]	@ (1000400c <stdio_put_string+0xf8>)
10003f72:	e002      	b.n	10003f7a <stdio_put_string+0x66>
10003f74:	6924      	ldr	r4, [r4, #16]
10003f76:	2c00      	cmp	r4, #0
10003f78:	d00e      	beq.n	10003f98 <stdio_put_string+0x84>
10003f7a:	6823      	ldr	r3, [r4, #0]
10003f7c:	2b00      	cmp	r3, #0
10003f7e:	d0f9      	beq.n	10003f74 <stdio_put_string+0x60>
10003f80:	683b      	ldr	r3, [r7, #0]
10003f82:	2b00      	cmp	r3, #0
10003f84:	d001      	beq.n	10003f8a <stdio_put_string+0x76>
10003f86:	429c      	cmp	r4, r3
10003f88:	d1f4      	bne.n	10003f74 <stdio_put_string+0x60>
10003f8a:	0020      	movs	r0, r4
10003f8c:	002a      	movs	r2, r5
10003f8e:	0031      	movs	r1, r6
10003f90:	47c0      	blx	r8
10003f92:	6924      	ldr	r4, [r4, #16]
10003f94:	2c00      	cmp	r4, #0
10003f96:	d1f0      	bne.n	10003f7a <stdio_put_string+0x66>
10003f98:	9b01      	ldr	r3, [sp, #4]
10003f9a:	2b00      	cmp	r3, #0
10003f9c:	d128      	bne.n	10003ff0 <stdio_put_string+0xdc>
10003f9e:	0028      	movs	r0, r5
10003fa0:	b005      	add	sp, #20
10003fa2:	bcf0      	pop	{r4, r5, r6, r7}
10003fa4:	46bb      	mov	fp, r7
10003fa6:	46b2      	mov	sl, r6
10003fa8:	46a9      	mov	r9, r5
10003faa:	46a0      	mov	r8, r4
10003fac:	bdf0      	pop	{r4, r5, r6, r7, pc}
10003fae:	4b18      	ldr	r3, [pc, #96]	@ (10004010 <stdio_put_string+0xfc>)
10003fb0:	4698      	mov	r8, r3
10003fb2:	e7d7      	b.n	10003f64 <stdio_put_string+0x50>
10003fb4:	4b15      	ldr	r3, [pc, #84]	@ (1000400c <stdio_put_string+0xf8>)
10003fb6:	4699      	mov	r9, r3
10003fb8:	ab02      	add	r3, sp, #8
10003fba:	1ddf      	adds	r7, r3, #7
10003fbc:	230a      	movs	r3, #10
10003fbe:	469b      	mov	fp, r3
10003fc0:	e002      	b.n	10003fc8 <stdio_put_string+0xb4>
10003fc2:	6924      	ldr	r4, [r4, #16]
10003fc4:	2c00      	cmp	r4, #0
10003fc6:	d0e7      	beq.n	10003f98 <stdio_put_string+0x84>
10003fc8:	6823      	ldr	r3, [r4, #0]
10003fca:	2b00      	cmp	r3, #0
10003fcc:	d0f9      	beq.n	10003fc2 <stdio_put_string+0xae>
10003fce:	464b      	mov	r3, r9
10003fd0:	681b      	ldr	r3, [r3, #0]
10003fd2:	2b00      	cmp	r3, #0
10003fd4:	d001      	beq.n	10003fda <stdio_put_string+0xc6>
10003fd6:	42a3      	cmp	r3, r4
10003fd8:	d1f3      	bne.n	10003fc2 <stdio_put_string+0xae>
10003fda:	002a      	movs	r2, r5
10003fdc:	0031      	movs	r1, r6
10003fde:	0020      	movs	r0, r4
10003fe0:	47c0      	blx	r8
10003fe2:	465b      	mov	r3, fp
10003fe4:	2201      	movs	r2, #1
10003fe6:	0039      	movs	r1, r7
10003fe8:	0020      	movs	r0, r4
10003fea:	703b      	strb	r3, [r7, #0]
10003fec:	47c0      	blx	r8
10003fee:	e7e8      	b.n	10003fc2 <stdio_put_string+0xae>
10003ff0:	4650      	mov	r0, sl
10003ff2:	f002 fdc9 	bl	10006b88 <__mutex_exit_veneer>
10003ff6:	e7d2      	b.n	10003f9e <stdio_put_string+0x8a>
10003ff8:	000f4240 	.word	0x000f4240
10003ffc:	7fffffff 	.word	0x7fffffff
10004000:	20001060 	.word	0x20001060
10004004:	10003e1d 	.word	0x10003e1d
10004008:	20001e08 	.word	0x20001e08
1000400c:	20001e10 	.word	0x20001e10
10004010:	10003e0d 	.word	0x10003e0d

10004014 <stdio_set_driver_enabled>:
10004014:	4a0a      	ldr	r2, [pc, #40]	@ (10004040 <stdio_set_driver_enabled+0x2c>)
10004016:	6813      	ldr	r3, [r2, #0]
10004018:	2b00      	cmp	r3, #0
1000401a:	d105      	bne.n	10004028 <stdio_set_driver_enabled+0x14>
1000401c:	e00c      	b.n	10004038 <stdio_set_driver_enabled+0x24>
1000401e:	001a      	movs	r2, r3
10004020:	691b      	ldr	r3, [r3, #16]
10004022:	3210      	adds	r2, #16
10004024:	2b00      	cmp	r3, #0
10004026:	d007      	beq.n	10004038 <stdio_set_driver_enabled+0x24>
10004028:	4298      	cmp	r0, r3
1000402a:	d1f8      	bne.n	1000401e <stdio_set_driver_enabled+0xa>
1000402c:	2900      	cmp	r1, #0
1000402e:	d102      	bne.n	10004036 <stdio_set_driver_enabled+0x22>
10004030:	6903      	ldr	r3, [r0, #16]
10004032:	6013      	str	r3, [r2, #0]
10004034:	6101      	str	r1, [r0, #16]
10004036:	4770      	bx	lr
10004038:	2900      	cmp	r1, #0
1000403a:	d0fc      	beq.n	10004036 <stdio_set_driver_enabled+0x22>
1000403c:	6010      	str	r0, [r2, #0]
1000403e:	e7fa      	b.n	10004036 <stdio_set_driver_enabled+0x22>
10004040:	20001e08 	.word	0x20001e08

10004044 <stdio_init_all>:
10004044:	b510      	push	{r4, lr}
10004046:	f000 fafd 	bl	10004644 <stdio_usb_init>
1000404a:	bd10      	pop	{r4, pc}

1000404c <__wrap_putchar>:
1000404c:	b5f0      	push	{r4, r5, r6, r7, lr}
1000404e:	46ce      	mov	lr, r9
10004050:	4647      	mov	r7, r8
10004052:	b580      	push	{r7, lr}
10004054:	b083      	sub	sp, #12
10004056:	466b      	mov	r3, sp
10004058:	0006      	movs	r6, r0
1000405a:	1ddd      	adds	r5, r3, #7
1000405c:	7028      	strb	r0, [r5, #0]
1000405e:	f7fd f965 	bl	1000132c <time_us_64>
10004062:	2300      	movs	r3, #0
10004064:	4a1a      	ldr	r2, [pc, #104]	@ (100040d0 <__wrap_putchar+0x84>)
10004066:	1812      	adds	r2, r2, r0
10004068:	414b      	adcs	r3, r1
1000406a:	2180      	movs	r1, #128	@ 0x80
1000406c:	0609      	lsls	r1, r1, #24
1000406e:	428b      	cmp	r3, r1
10004070:	d302      	bcc.n	10004078 <__wrap_putchar+0x2c>
10004072:	2201      	movs	r2, #1
10004074:	4b17      	ldr	r3, [pc, #92]	@ (100040d4 <__wrap_putchar+0x88>)
10004076:	4252      	negs	r2, r2
10004078:	4917      	ldr	r1, [pc, #92]	@ (100040d8 <__wrap_putchar+0x8c>)
1000407a:	0008      	movs	r0, r1
1000407c:	4688      	mov	r8, r1
1000407e:	f002 fdb3 	bl	10006be8 <__mutex_try_enter_block_until_veneer>
10004082:	4b16      	ldr	r3, [pc, #88]	@ (100040dc <__wrap_putchar+0x90>)
10004084:	4681      	mov	r9, r0
10004086:	681c      	ldr	r4, [r3, #0]
10004088:	2c00      	cmp	r4, #0
1000408a:	d014      	beq.n	100040b6 <__wrap_putchar+0x6a>
1000408c:	4f14      	ldr	r7, [pc, #80]	@ (100040e0 <__wrap_putchar+0x94>)
1000408e:	e002      	b.n	10004096 <__wrap_putchar+0x4a>
10004090:	6924      	ldr	r4, [r4, #16]
10004092:	2c00      	cmp	r4, #0
10004094:	d00f      	beq.n	100040b6 <__wrap_putchar+0x6a>
10004096:	6823      	ldr	r3, [r4, #0]
10004098:	2b00      	cmp	r3, #0
1000409a:	d0f9      	beq.n	10004090 <__wrap_putchar+0x44>
1000409c:	683b      	ldr	r3, [r7, #0]
1000409e:	2b00      	cmp	r3, #0
100040a0:	d001      	beq.n	100040a6 <__wrap_putchar+0x5a>
100040a2:	429c      	cmp	r4, r3
100040a4:	d1f4      	bne.n	10004090 <__wrap_putchar+0x44>
100040a6:	0020      	movs	r0, r4
100040a8:	2201      	movs	r2, #1
100040aa:	0029      	movs	r1, r5
100040ac:	f7ff feb6 	bl	10003e1c <stdio_out_chars_crlf>
100040b0:	6924      	ldr	r4, [r4, #16]
100040b2:	2c00      	cmp	r4, #0
100040b4:	d1ef      	bne.n	10004096 <__wrap_putchar+0x4a>
100040b6:	464b      	mov	r3, r9
100040b8:	2b00      	cmp	r3, #0
100040ba:	d105      	bne.n	100040c8 <__wrap_putchar+0x7c>
100040bc:	0030      	movs	r0, r6
100040be:	b003      	add	sp, #12
100040c0:	bcc0      	pop	{r6, r7}
100040c2:	46b9      	mov	r9, r7
100040c4:	46b0      	mov	r8, r6
100040c6:	bdf0      	pop	{r4, r5, r6, r7, pc}
100040c8:	4640      	mov	r0, r8
100040ca:	f002 fd5d 	bl	10006b88 <__mutex_exit_veneer>
100040ce:	e7f5      	b.n	100040bc <__wrap_putchar+0x70>
100040d0:	000f4240 	.word	0x000f4240
100040d4:	7fffffff 	.word	0x7fffffff
100040d8:	20001060 	.word	0x20001060
100040dc:	20001e08 	.word	0x20001e08
100040e0:	20001e10 	.word	0x20001e10

100040e4 <__wrap_puts>:
100040e4:	b570      	push	{r4, r5, r6, lr}
100040e6:	0004      	movs	r4, r0
100040e8:	f002 fcba 	bl	10006a60 <strlen>
100040ec:	2301      	movs	r3, #1
100040ee:	0001      	movs	r1, r0
100040f0:	0005      	movs	r5, r0
100040f2:	2201      	movs	r2, #1
100040f4:	0020      	movs	r0, r4
100040f6:	f7ff ff0d 	bl	10003f14 <stdio_put_string>
100040fa:	4b08      	ldr	r3, [pc, #32]	@ (1000411c <__wrap_puts+0x38>)
100040fc:	681c      	ldr	r4, [r3, #0]
100040fe:	2c00      	cmp	r4, #0
10004100:	d006      	beq.n	10004110 <__wrap_puts+0x2c>
10004102:	6863      	ldr	r3, [r4, #4]
10004104:	2b00      	cmp	r3, #0
10004106:	d005      	beq.n	10004114 <__wrap_puts+0x30>
10004108:	4798      	blx	r3
1000410a:	6924      	ldr	r4, [r4, #16]
1000410c:	2c00      	cmp	r4, #0
1000410e:	d1f8      	bne.n	10004102 <__wrap_puts+0x1e>
10004110:	0028      	movs	r0, r5
10004112:	bd70      	pop	{r4, r5, r6, pc}
10004114:	6924      	ldr	r4, [r4, #16]
10004116:	2c00      	cmp	r4, #0
10004118:	d1f3      	bne.n	10004102 <__wrap_puts+0x1e>
1000411a:	e7f9      	b.n	10004110 <__wrap_puts+0x2c>
1000411c:	20001e08 	.word	0x20001e08

10004120 <__wrap_vprintf>:
10004120:	b5f0      	push	{r4, r5, r6, r7, lr}
10004122:	46ce      	mov	lr, r9
10004124:	4647      	mov	r7, r8
10004126:	b580      	push	{r7, lr}
10004128:	b0a3      	sub	sp, #140	@ 0x8c
1000412a:	0004      	movs	r4, r0
1000412c:	000d      	movs	r5, r1
1000412e:	f7fd f8fd 	bl	1000132c <time_us_64>
10004132:	2300      	movs	r3, #0
10004134:	4a29      	ldr	r2, [pc, #164]	@ (100041dc <__wrap_vprintf+0xbc>)
10004136:	1812      	adds	r2, r2, r0
10004138:	414b      	adcs	r3, r1
1000413a:	2180      	movs	r1, #128	@ 0x80
1000413c:	0609      	lsls	r1, r1, #24
1000413e:	428b      	cmp	r3, r1
10004140:	d302      	bcc.n	10004148 <__wrap_vprintf+0x28>
10004142:	2201      	movs	r2, #1
10004144:	4b26      	ldr	r3, [pc, #152]	@ (100041e0 <__wrap_vprintf+0xc0>)
10004146:	4252      	negs	r2, r2
10004148:	4f26      	ldr	r7, [pc, #152]	@ (100041e4 <__wrap_vprintf+0xc4>)
1000414a:	0038      	movs	r0, r7
1000414c:	f002 fd4c 	bl	10006be8 <__mutex_try_enter_block_until_veneer>
10004150:	2300      	movs	r3, #0
10004152:	0006      	movs	r6, r0
10004154:	9301      	str	r3, [sp, #4]
10004156:	0022      	movs	r2, r4
10004158:	002b      	movs	r3, r5
1000415a:	4823      	ldr	r0, [pc, #140]	@ (100041e8 <__wrap_vprintf+0xc8>)
1000415c:	a901      	add	r1, sp, #4
1000415e:	f7ff fe11 	bl	10003d84 <vfctprintf>
10004162:	9b01      	ldr	r3, [sp, #4]
10004164:	4680      	mov	r8, r0
10004166:	2b00      	cmp	r3, #0
10004168:	d114      	bne.n	10004194 <__wrap_vprintf+0x74>
1000416a:	4b20      	ldr	r3, [pc, #128]	@ (100041ec <__wrap_vprintf+0xcc>)
1000416c:	681c      	ldr	r4, [r3, #0]
1000416e:	2c00      	cmp	r4, #0
10004170:	d006      	beq.n	10004180 <__wrap_vprintf+0x60>
10004172:	6863      	ldr	r3, [r4, #4]
10004174:	2b00      	cmp	r3, #0
10004176:	d00b      	beq.n	10004190 <__wrap_vprintf+0x70>
10004178:	4798      	blx	r3
1000417a:	6924      	ldr	r4, [r4, #16]
1000417c:	2c00      	cmp	r4, #0
1000417e:	d1f8      	bne.n	10004172 <__wrap_vprintf+0x52>
10004180:	2e00      	cmp	r6, #0
10004182:	d125      	bne.n	100041d0 <__wrap_vprintf+0xb0>
10004184:	4640      	mov	r0, r8
10004186:	b023      	add	sp, #140	@ 0x8c
10004188:	bcc0      	pop	{r6, r7}
1000418a:	46b9      	mov	r9, r7
1000418c:	46b0      	mov	r8, r6
1000418e:	bdf0      	pop	{r4, r5, r6, r7, pc}
10004190:	6924      	ldr	r4, [r4, #16]
10004192:	e7ec      	b.n	1000416e <__wrap_vprintf+0x4e>
10004194:	4b15      	ldr	r3, [pc, #84]	@ (100041ec <__wrap_vprintf+0xcc>)
10004196:	681d      	ldr	r5, [r3, #0]
10004198:	4699      	mov	r9, r3
1000419a:	2d00      	cmp	r5, #0
1000419c:	d01c      	beq.n	100041d8 <__wrap_vprintf+0xb8>
1000419e:	4c14      	ldr	r4, [pc, #80]	@ (100041f0 <__wrap_vprintf+0xd0>)
100041a0:	e002      	b.n	100041a8 <__wrap_vprintf+0x88>
100041a2:	692d      	ldr	r5, [r5, #16]
100041a4:	2d00      	cmp	r5, #0
100041a6:	d00f      	beq.n	100041c8 <__wrap_vprintf+0xa8>
100041a8:	682b      	ldr	r3, [r5, #0]
100041aa:	2b00      	cmp	r3, #0
100041ac:	d0f9      	beq.n	100041a2 <__wrap_vprintf+0x82>
100041ae:	6823      	ldr	r3, [r4, #0]
100041b0:	2b00      	cmp	r3, #0
100041b2:	d001      	beq.n	100041b8 <__wrap_vprintf+0x98>
100041b4:	42ab      	cmp	r3, r5
100041b6:	d1f4      	bne.n	100041a2 <__wrap_vprintf+0x82>
100041b8:	0028      	movs	r0, r5
100041ba:	9a01      	ldr	r2, [sp, #4]
100041bc:	a902      	add	r1, sp, #8
100041be:	f7ff fe2d 	bl	10003e1c <stdio_out_chars_crlf>
100041c2:	692d      	ldr	r5, [r5, #16]
100041c4:	2d00      	cmp	r5, #0
100041c6:	d1ef      	bne.n	100041a8 <__wrap_vprintf+0x88>
100041c8:	464b      	mov	r3, r9
100041ca:	9501      	str	r5, [sp, #4]
100041cc:	681c      	ldr	r4, [r3, #0]
100041ce:	e7ce      	b.n	1000416e <__wrap_vprintf+0x4e>
100041d0:	0038      	movs	r0, r7
100041d2:	f002 fcd9 	bl	10006b88 <__mutex_exit_veneer>
100041d6:	e7d5      	b.n	10004184 <__wrap_vprintf+0x64>
100041d8:	9501      	str	r5, [sp, #4]
100041da:	e7d1      	b.n	10004180 <__wrap_vprintf+0x60>
100041dc:	000f4240 	.word	0x000f4240
100041e0:	7fffffff 	.word	0x7fffffff
100041e4:	20001060 	.word	0x20001060
100041e8:	10003eb1 	.word	0x10003eb1
100041ec:	20001e08 	.word	0x20001e08
100041f0:	20001e10 	.word	0x20001e10

100041f4 <__wrap_printf>:
100041f4:	b40f      	push	{r0, r1, r2, r3}
100041f6:	b500      	push	{lr}
100041f8:	b083      	sub	sp, #12
100041fa:	a904      	add	r1, sp, #16
100041fc:	c901      	ldmia	r1!, {r0}
100041fe:	9101      	str	r1, [sp, #4]
10004200:	f7ff ff8e 	bl	10004120 <__wrap_vprintf>
10004204:	b003      	add	sp, #12
10004206:	bc08      	pop	{r3}
10004208:	b004      	add	sp, #16
1000420a:	4718      	bx	r3

1000420c <resetd_init>:
1000420c:	4770      	bx	lr
1000420e:	46c0      	nop			@ (mov r8, r8)

10004210 <resetd_reset>:
10004210:	2200      	movs	r2, #0
10004212:	4b01      	ldr	r3, [pc, #4]	@ (10004218 <resetd_reset+0x8>)
10004214:	701a      	strb	r2, [r3, #0]
10004216:	4770      	bx	lr
10004218:	20002266 	.word	0x20002266

1000421c <resetd_open>:
1000421c:	794b      	ldrb	r3, [r1, #5]
1000421e:	2000      	movs	r0, #0
10004220:	2bff      	cmp	r3, #255	@ 0xff
10004222:	d10b      	bne.n	1000423c <resetd_open+0x20>
10004224:	798b      	ldrb	r3, [r1, #6]
10004226:	2b00      	cmp	r3, #0
10004228:	d108      	bne.n	1000423c <resetd_open+0x20>
1000422a:	79cb      	ldrb	r3, [r1, #7]
1000422c:	2b01      	cmp	r3, #1
1000422e:	d105      	bne.n	1000423c <resetd_open+0x20>
10004230:	2a08      	cmp	r2, #8
10004232:	d903      	bls.n	1000423c <resetd_open+0x20>
10004234:	4b02      	ldr	r3, [pc, #8]	@ (10004240 <resetd_open+0x24>)
10004236:	788a      	ldrb	r2, [r1, #2]
10004238:	3009      	adds	r0, #9
1000423a:	701a      	strb	r2, [r3, #0]
1000423c:	4770      	bx	lr
1000423e:	46c0      	nop			@ (mov r8, r8)
10004240:	20002266 	.word	0x20002266

10004244 <resetd_xfer_cb>:
10004244:	2001      	movs	r0, #1
10004246:	4770      	bx	lr

10004248 <resetd_control_xfer_cb>:
10004248:	b510      	push	{r4, lr}
1000424a:	2901      	cmp	r1, #1
1000424c:	d001      	beq.n	10004252 <resetd_control_xfer_cb+0xa>
1000424e:	2001      	movs	r0, #1
10004250:	bd10      	pop	{r4, pc}
10004252:	4911      	ldr	r1, [pc, #68]	@ (10004298 <resetd_control_xfer_cb+0x50>)
10004254:	7953      	ldrb	r3, [r2, #5]
10004256:	7910      	ldrb	r0, [r2, #4]
10004258:	7809      	ldrb	r1, [r1, #0]
1000425a:	021b      	lsls	r3, r3, #8
1000425c:	4303      	orrs	r3, r0
1000425e:	2000      	movs	r0, #0
10004260:	4299      	cmp	r1, r3
10004262:	d1f5      	bne.n	10004250 <resetd_control_xfer_cb+0x8>
10004264:	7853      	ldrb	r3, [r2, #1]
10004266:	2b01      	cmp	r3, #1
10004268:	d008      	beq.n	1000427c <resetd_control_xfer_cb+0x34>
1000426a:	2b02      	cmp	r3, #2
1000426c:	d1f0      	bne.n	10004250 <resetd_control_xfer_cb+0x8>
1000426e:	2000      	movs	r0, #0
10004270:	2264      	movs	r2, #100	@ 0x64
10004272:	2100      	movs	r1, #0
10004274:	f7fd f9ba 	bl	100015ec <watchdog_reboot>
10004278:	2001      	movs	r0, #1
1000427a:	e7e9      	b.n	10004250 <resetd_control_xfer_cb+0x8>
1000427c:	7891      	ldrb	r1, [r2, #2]
1000427e:	78d2      	ldrb	r2, [r2, #3]
10004280:	0212      	lsls	r2, r2, #8
10004282:	4311      	orrs	r1, r2
10004284:	05d2      	lsls	r2, r2, #23
10004286:	d502      	bpl.n	1000428e <resetd_control_xfer_cb+0x46>
10004288:	0a4a      	lsrs	r2, r1, #9
1000428a:	4093      	lsls	r3, r2
1000428c:	0018      	movs	r0, r3
1000428e:	237f      	movs	r3, #127	@ 0x7f
10004290:	4019      	ands	r1, r3
10004292:	f7fd fb27 	bl	100018e4 <rom_reset_usb_boot>
10004296:	46c0      	nop			@ (mov r8, r8)
10004298:	20002266 	.word	0x20002266

1000429c <tud_descriptor_bos_cb>:
1000429c:	4800      	ldr	r0, [pc, #0]	@ (100042a0 <tud_descriptor_bos_cb+0x4>)
1000429e:	4770      	bx	lr
100042a0:	1000716c 	.word	0x1000716c

100042a4 <tud_vendor_control_xfer_cb>:
100042a4:	b570      	push	{r4, r5, r6, lr}
100042a6:	0005      	movs	r5, r0
100042a8:	0014      	movs	r4, r2
100042aa:	2001      	movs	r0, #1
100042ac:	2901      	cmp	r1, #1
100042ae:	d109      	bne.n	100042c4 <tud_vendor_control_xfer_cb+0x20>
100042b0:	7853      	ldrb	r3, [r2, #1]
100042b2:	2000      	movs	r0, #0
100042b4:	2b01      	cmp	r3, #1
100042b6:	d105      	bne.n	100042c4 <tud_vendor_control_xfer_cb+0x20>
100042b8:	7963      	ldrb	r3, [r4, #5]
100042ba:	7912      	ldrb	r2, [r2, #4]
100042bc:	021b      	lsls	r3, r3, #8
100042be:	4313      	orrs	r3, r2
100042c0:	2b07      	cmp	r3, #7
100042c2:	d000      	beq.n	100042c6 <tud_vendor_control_xfer_cb+0x22>
100042c4:	bd70      	pop	{r4, r5, r6, pc}
100042c6:	0021      	movs	r1, r4
100042c8:	0028      	movs	r0, r5
100042ca:	4a02      	ldr	r2, [pc, #8]	@ (100042d4 <tud_vendor_control_xfer_cb+0x30>)
100042cc:	339f      	adds	r3, #159	@ 0x9f
100042ce:	f001 fa47 	bl	10005760 <tud_control_xfer>
100042d2:	e7f7      	b.n	100042c4 <tud_vendor_control_xfer_cb+0x20>
100042d4:	100070c4 	.word	0x100070c4

100042d8 <usbd_app_driver_get_cb>:
100042d8:	2301      	movs	r3, #1
100042da:	7003      	strb	r3, [r0, #0]
100042dc:	4800      	ldr	r0, [pc, #0]	@ (100042e0 <usbd_app_driver_get_cb+0x8>)
100042de:	4770      	bx	lr
100042e0:	100070a4 	.word	0x100070a4

100042e4 <tud_cdc_line_coding_cb>:
100042e4:	784b      	ldrb	r3, [r1, #1]
100042e6:	780a      	ldrb	r2, [r1, #0]
100042e8:	021b      	lsls	r3, r3, #8
100042ea:	4313      	orrs	r3, r2
100042ec:	788a      	ldrb	r2, [r1, #2]
100042ee:	b510      	push	{r4, lr}
100042f0:	0412      	lsls	r2, r2, #16
100042f2:	431a      	orrs	r2, r3
100042f4:	78cb      	ldrb	r3, [r1, #3]
100042f6:	061b      	lsls	r3, r3, #24
100042f8:	4313      	orrs	r3, r2
100042fa:	2296      	movs	r2, #150	@ 0x96
100042fc:	00d2      	lsls	r2, r2, #3
100042fe:	4293      	cmp	r3, r2
10004300:	d000      	beq.n	10004304 <tud_cdc_line_coding_cb+0x20>
10004302:	bd10      	pop	{r4, pc}
10004304:	2100      	movs	r1, #0
10004306:	0008      	movs	r0, r1
10004308:	f7fd faec 	bl	100018e4 <rom_reset_usb_boot>

1000430c <stdio_usb_set_chars_available_callback>:
1000430c:	4b02      	ldr	r3, [pc, #8]	@ (10004318 <stdio_usb_set_chars_available_callback+0xc>)
1000430e:	6018      	str	r0, [r3, #0]
10004310:	4b02      	ldr	r3, [pc, #8]	@ (1000431c <stdio_usb_set_chars_available_callback+0x10>)
10004312:	6019      	str	r1, [r3, #0]
10004314:	4770      	bx	lr
10004316:	46c0      	nop			@ (mov r8, r8)
10004318:	20001da8 	.word	0x20001da8
1000431c:	20001dac 	.word	0x20001dac

10004320 <usb_irq>:
10004320:	b510      	push	{r4, lr}
10004322:	4b02      	ldr	r3, [pc, #8]	@ (1000432c <usb_irq+0xc>)
10004324:	7818      	ldrb	r0, [r3, #0]
10004326:	f7fc f9cb 	bl	100006c0 <irq_set_pending>
1000432a:	bd10      	pop	{r4, pc}
1000432c:	20002267 	.word	0x20002267

10004330 <timer_task>:
10004330:	4b15      	ldr	r3, [pc, #84]	@ (10004388 <timer_task+0x58>)
10004332:	b570      	push	{r4, r5, r6, lr}
10004334:	681a      	ldr	r2, [r3, #0]
10004336:	2a00      	cmp	r2, #0
10004338:	d022      	beq.n	10004380 <timer_task+0x50>
1000433a:	f3ef 8110 	mrs	r1, PRIMASK
1000433e:	b672      	cpsid	i
10004340:	6810      	ldr	r0, [r2, #0]
10004342:	2800      	cmp	r0, #0
10004344:	d0fc      	beq.n	10004340 <timer_task+0x10>
10004346:	f3bf 8f5f 	dmb	sy
1000434a:	2000      	movs	r0, #0
1000434c:	4a0f      	ldr	r2, [pc, #60]	@ (1000438c <timer_task+0x5c>)
1000434e:	6059      	str	r1, [r3, #4]
10004350:	7010      	strb	r0, [r2, #0]
10004352:	681b      	ldr	r3, [r3, #0]
10004354:	f3bf 8f5f 	dmb	sy
10004358:	6018      	str	r0, [r3, #0]
1000435a:	f381 8810 	msr	PRIMASK, r1
1000435e:	2400      	movs	r4, #0
10004360:	2500      	movs	r5, #0
10004362:	4e0b      	ldr	r6, [pc, #44]	@ (10004390 <timer_task+0x60>)
10004364:	7830      	ldrb	r0, [r6, #0]
10004366:	f7fc f99f 	bl	100006a8 <irq_is_enabled>
1000436a:	2800      	cmp	r0, #0
1000436c:	d104      	bne.n	10004378 <timer_task+0x48>
1000436e:	2400      	movs	r4, #0
10004370:	2500      	movs	r5, #0
10004372:	0029      	movs	r1, r5
10004374:	0020      	movs	r0, r4
10004376:	bd70      	pop	{r4, r5, r6, pc}
10004378:	7830      	ldrb	r0, [r6, #0]
1000437a:	f7fc f9a1 	bl	100006c0 <irq_set_pending>
1000437e:	e7f8      	b.n	10004372 <timer_task+0x42>
10004380:	24fa      	movs	r4, #250	@ 0xfa
10004382:	2500      	movs	r5, #0
10004384:	00a4      	lsls	r4, r4, #2
10004386:	e7ec      	b.n	10004362 <timer_task+0x32>
10004388:	20002220 	.word	0x20002220
1000438c:	20002268 	.word	0x20002268
10004390:	20002267 	.word	0x20002267

10004394 <stdio_usb_in_chars>:
10004394:	b570      	push	{r4, r5, r6, lr}
10004396:	0004      	movs	r4, r0
10004398:	2000      	movs	r0, #0
1000439a:	000e      	movs	r6, r1
1000439c:	f001 faf8 	bl	10005990 <tud_cdc_n_connected>
100043a0:	2800      	cmp	r0, #0
100043a2:	d036      	beq.n	10004412 <stdio_usb_in_chars+0x7e>
100043a4:	2000      	movs	r0, #0
100043a6:	f001 fb0b 	bl	100059c0 <tud_cdc_n_available>
100043aa:	2800      	cmp	r0, #0
100043ac:	d031      	beq.n	10004412 <stdio_usb_in_chars+0x7e>
100043ae:	f7fc ffbd 	bl	1000132c <time_us_64>
100043b2:	2300      	movs	r3, #0
100043b4:	4a18      	ldr	r2, [pc, #96]	@ (10004418 <stdio_usb_in_chars+0x84>)
100043b6:	1812      	adds	r2, r2, r0
100043b8:	414b      	adcs	r3, r1
100043ba:	2180      	movs	r1, #128	@ 0x80
100043bc:	0609      	lsls	r1, r1, #24
100043be:	428b      	cmp	r3, r1
100043c0:	d216      	bcs.n	100043f0 <stdio_usb_in_chars+0x5c>
100043c2:	4d16      	ldr	r5, [pc, #88]	@ (1000441c <stdio_usb_in_chars+0x88>)
100043c4:	0028      	movs	r0, r5
100043c6:	f002 fc0f 	bl	10006be8 <__mutex_try_enter_block_until_veneer>
100043ca:	2800      	cmp	r0, #0
100043cc:	d021      	beq.n	10004412 <stdio_usb_in_chars+0x7e>
100043ce:	2000      	movs	r0, #0
100043d0:	f001 fade 	bl	10005990 <tud_cdc_n_connected>
100043d4:	2800      	cmp	r0, #0
100043d6:	d10f      	bne.n	100043f8 <stdio_usb_in_chars+0x64>
100043d8:	2001      	movs	r0, #1
100043da:	2100      	movs	r1, #0
100043dc:	4240      	negs	r0, r0
100043de:	f000 fcf3 	bl	10004dc8 <tud_task_ext>
100043e2:	2403      	movs	r4, #3
100043e4:	4264      	negs	r4, r4
100043e6:	0028      	movs	r0, r5
100043e8:	f002 fbce 	bl	10006b88 <__mutex_exit_veneer>
100043ec:	0020      	movs	r0, r4
100043ee:	bd70      	pop	{r4, r5, r6, pc}
100043f0:	2201      	movs	r2, #1
100043f2:	4b0b      	ldr	r3, [pc, #44]	@ (10004420 <stdio_usb_in_chars+0x8c>)
100043f4:	4252      	negs	r2, r2
100043f6:	e7e4      	b.n	100043c2 <stdio_usb_in_chars+0x2e>
100043f8:	2000      	movs	r0, #0
100043fa:	f001 fae1 	bl	100059c0 <tud_cdc_n_available>
100043fe:	2800      	cmp	r0, #0
10004400:	d0ea      	beq.n	100043d8 <stdio_usb_in_chars+0x44>
10004402:	0021      	movs	r1, r4
10004404:	0032      	movs	r2, r6
10004406:	2000      	movs	r0, #0
10004408:	f001 fae6 	bl	100059d8 <tud_cdc_n_read>
1000440c:	1e04      	subs	r4, r0, #0
1000440e:	d1ea      	bne.n	100043e6 <stdio_usb_in_chars+0x52>
10004410:	e7e7      	b.n	100043e2 <stdio_usb_in_chars+0x4e>
10004412:	2403      	movs	r4, #3
10004414:	4264      	negs	r4, r4
10004416:	e7e9      	b.n	100043ec <stdio_usb_in_chars+0x58>
10004418:	000f4240 	.word	0x000f4240
1000441c:	20002248 	.word	0x20002248
10004420:	7fffffff 	.word	0x7fffffff

10004424 <stdio_usb_out_flush>:
10004424:	b510      	push	{r4, lr}
10004426:	f7fc ff81 	bl	1000132c <time_us_64>
1000442a:	2300      	movs	r3, #0
1000442c:	4a0e      	ldr	r2, [pc, #56]	@ (10004468 <stdio_usb_out_flush+0x44>)
1000442e:	1812      	adds	r2, r2, r0
10004430:	414b      	adcs	r3, r1
10004432:	2180      	movs	r1, #128	@ 0x80
10004434:	0609      	lsls	r1, r1, #24
10004436:	428b      	cmp	r3, r1
10004438:	d302      	bcc.n	10004440 <stdio_usb_out_flush+0x1c>
1000443a:	2201      	movs	r2, #1
1000443c:	4b0b      	ldr	r3, [pc, #44]	@ (1000446c <stdio_usb_out_flush+0x48>)
1000443e:	4252      	negs	r2, r2
10004440:	4c0b      	ldr	r4, [pc, #44]	@ (10004470 <stdio_usb_out_flush+0x4c>)
10004442:	0020      	movs	r0, r4
10004444:	f002 fbd0 	bl	10006be8 <__mutex_try_enter_block_until_veneer>
10004448:	2800      	cmp	r0, #0
1000444a:	d00c      	beq.n	10004466 <stdio_usb_out_flush+0x42>
1000444c:	2001      	movs	r0, #1
1000444e:	2100      	movs	r1, #0
10004450:	4240      	negs	r0, r0
10004452:	f000 fcb9 	bl	10004dc8 <tud_task_ext>
10004456:	2000      	movs	r0, #0
10004458:	f001 fb0a 	bl	10005a70 <tud_cdc_n_write_flush>
1000445c:	2800      	cmp	r0, #0
1000445e:	d1f5      	bne.n	1000444c <stdio_usb_out_flush+0x28>
10004460:	0020      	movs	r0, r4
10004462:	f002 fb91 	bl	10006b88 <__mutex_exit_veneer>
10004466:	bd10      	pop	{r4, pc}
10004468:	000f4240 	.word	0x000f4240
1000446c:	7fffffff 	.word	0x7fffffff
10004470:	20002248 	.word	0x20002248

10004474 <stdio_usb_out_chars>:
10004474:	b5f8      	push	{r3, r4, r5, r6, r7, lr}
10004476:	46de      	mov	lr, fp
10004478:	4657      	mov	r7, sl
1000447a:	b580      	push	{r7, lr}
1000447c:	0005      	movs	r5, r0
1000447e:	000c      	movs	r4, r1
10004480:	f7fc ff54 	bl	1000132c <time_us_64>
10004484:	2300      	movs	r3, #0
10004486:	4a37      	ldr	r2, [pc, #220]	@ (10004564 <stdio_usb_out_chars+0xf0>)
10004488:	1812      	adds	r2, r2, r0
1000448a:	414b      	adcs	r3, r1
1000448c:	2180      	movs	r1, #128	@ 0x80
1000448e:	0609      	lsls	r1, r1, #24
10004490:	428b      	cmp	r3, r1
10004492:	d302      	bcc.n	1000449a <stdio_usb_out_chars+0x26>
10004494:	2201      	movs	r2, #1
10004496:	4b34      	ldr	r3, [pc, #208]	@ (10004568 <stdio_usb_out_chars+0xf4>)
10004498:	4252      	negs	r2, r2
1000449a:	4934      	ldr	r1, [pc, #208]	@ (1000456c <stdio_usb_out_chars+0xf8>)
1000449c:	0008      	movs	r0, r1
1000449e:	468a      	mov	sl, r1
100044a0:	f002 fba2 	bl	10006be8 <__mutex_try_enter_block_until_veneer>
100044a4:	2800      	cmp	r0, #0
100044a6:	d103      	bne.n	100044b0 <stdio_usb_out_chars+0x3c>
100044a8:	bcc0      	pop	{r6, r7}
100044aa:	46bb      	mov	fp, r7
100044ac:	46b2      	mov	sl, r6
100044ae:	bdf8      	pop	{r3, r4, r5, r6, r7, pc}
100044b0:	2000      	movs	r0, #0
100044b2:	f001 fa6d 	bl	10005990 <tud_cdc_n_connected>
100044b6:	2800      	cmp	r0, #0
100044b8:	d04a      	beq.n	10004550 <stdio_usb_out_chars+0xdc>
100044ba:	2600      	movs	r6, #0
100044bc:	2c00      	cmp	r4, #0
100044be:	dd43      	ble.n	10004548 <stdio_usb_out_chars+0xd4>
100044c0:	4b2b      	ldr	r3, [pc, #172]	@ (10004570 <stdio_usb_out_chars+0xfc>)
100044c2:	469b      	mov	fp, r3
100044c4:	e014      	b.n	100044f0 <stdio_usb_out_chars+0x7c>
100044c6:	19a9      	adds	r1, r5, r6
100044c8:	2000      	movs	r0, #0
100044ca:	f001 fb0d 	bl	10005ae8 <tud_cdc_n_write>
100044ce:	0007      	movs	r7, r0
100044d0:	2001      	movs	r0, #1
100044d2:	2100      	movs	r1, #0
100044d4:	4240      	negs	r0, r0
100044d6:	f000 fc77 	bl	10004dc8 <tud_task_ext>
100044da:	2000      	movs	r0, #0
100044dc:	f001 fac8 	bl	10005a70 <tud_cdc_n_write_flush>
100044e0:	f7fc ff24 	bl	1000132c <time_us_64>
100044e4:	4b22      	ldr	r3, [pc, #136]	@ (10004570 <stdio_usb_out_chars+0xfc>)
100044e6:	19f6      	adds	r6, r6, r7
100044e8:	6018      	str	r0, [r3, #0]
100044ea:	6059      	str	r1, [r3, #4]
100044ec:	42b4      	cmp	r4, r6
100044ee:	dd2b      	ble.n	10004548 <stdio_usb_out_chars+0xd4>
100044f0:	2000      	movs	r0, #0
100044f2:	f001 fb19 	bl	10005b28 <tud_cdc_n_write_available>
100044f6:	1ba7      	subs	r7, r4, r6
100044f8:	0002      	movs	r2, r0
100044fa:	42b8      	cmp	r0, r7
100044fc:	dd00      	ble.n	10004500 <stdio_usb_out_chars+0x8c>
100044fe:	003a      	movs	r2, r7
10004500:	2a00      	cmp	r2, #0
10004502:	d1e0      	bne.n	100044c6 <stdio_usb_out_chars+0x52>
10004504:	2001      	movs	r0, #1
10004506:	2100      	movs	r1, #0
10004508:	4240      	negs	r0, r0
1000450a:	f000 fc5d 	bl	10004dc8 <tud_task_ext>
1000450e:	2000      	movs	r0, #0
10004510:	f001 faae 	bl	10005a70 <tud_cdc_n_write_flush>
10004514:	2000      	movs	r0, #0
10004516:	f001 fa3b 	bl	10005990 <tud_cdc_n_connected>
1000451a:	2800      	cmp	r0, #0
1000451c:	d014      	beq.n	10004548 <stdio_usb_out_chars+0xd4>
1000451e:	2000      	movs	r0, #0
10004520:	f001 fb02 	bl	10005b28 <tud_cdc_n_write_available>
10004524:	2800      	cmp	r0, #0
10004526:	d1e1      	bne.n	100044ec <stdio_usb_out_chars+0x78>
10004528:	f7fc ff00 	bl	1000132c <time_us_64>
1000452c:	465b      	mov	r3, fp
1000452e:	000f      	movs	r7, r1
10004530:	681a      	ldr	r2, [r3, #0]
10004532:	685b      	ldr	r3, [r3, #4]
10004534:	2100      	movs	r1, #0
10004536:	4684      	mov	ip, r0
10004538:	480e      	ldr	r0, [pc, #56]	@ (10004574 <stdio_usb_out_chars+0x100>)
1000453a:	1812      	adds	r2, r2, r0
1000453c:	414b      	adcs	r3, r1
1000453e:	429f      	cmp	r7, r3
10004540:	d802      	bhi.n	10004548 <stdio_usb_out_chars+0xd4>
10004542:	d1d3      	bne.n	100044ec <stdio_usb_out_chars+0x78>
10004544:	4594      	cmp	ip, r2
10004546:	d9d1      	bls.n	100044ec <stdio_usb_out_chars+0x78>
10004548:	4650      	mov	r0, sl
1000454a:	f002 fb1d 	bl	10006b88 <__mutex_exit_veneer>
1000454e:	e7ab      	b.n	100044a8 <stdio_usb_out_chars+0x34>
10004550:	2000      	movs	r0, #0
10004552:	2100      	movs	r1, #0
10004554:	4b06      	ldr	r3, [pc, #24]	@ (10004570 <stdio_usb_out_chars+0xfc>)
10004556:	6018      	str	r0, [r3, #0]
10004558:	6059      	str	r1, [r3, #4]
1000455a:	4650      	mov	r0, sl
1000455c:	f002 fb14 	bl	10006b88 <__mutex_exit_veneer>
10004560:	e7a2      	b.n	100044a8 <stdio_usb_out_chars+0x34>
10004562:	46c0      	nop			@ (mov r8, r8)
10004564:	000f4240 	.word	0x000f4240
10004568:	7fffffff 	.word	0x7fffffff
1000456c:	20002248 	.word	0x20002248
10004570:	200014a8 	.word	0x200014a8
10004574:	0007a120 	.word	0x0007a120

10004578 <low_priority_worker_irq>:
10004578:	b530      	push	{r4, r5, lr}
1000457a:	4c2b      	ldr	r4, [pc, #172]	@ (10004628 <low_priority_worker_irq+0xb0>)
1000457c:	b085      	sub	sp, #20
1000457e:	2100      	movs	r1, #0
10004580:	0020      	movs	r0, r4
10004582:	f002 fb21 	bl	10006bc8 <__mutex_try_enter_veneer>
10004586:	2800      	cmp	r0, #0
10004588:	d11c      	bne.n	100045c4 <low_priority_worker_irq+0x4c>
1000458a:	4b28      	ldr	r3, [pc, #160]	@ (1000462c <low_priority_worker_irq+0xb4>)
1000458c:	681a      	ldr	r2, [r3, #0]
1000458e:	2a00      	cmp	r2, #0
10004590:	d016      	beq.n	100045c0 <low_priority_worker_irq+0x48>
10004592:	f3ef 8110 	mrs	r1, PRIMASK
10004596:	b672      	cpsid	i
10004598:	6810      	ldr	r0, [r2, #0]
1000459a:	2800      	cmp	r0, #0
1000459c:	d0fc      	beq.n	10004598 <low_priority_worker_irq+0x20>
1000459e:	f3bf 8f5f 	dmb	sy
100045a2:	2401      	movs	r4, #1
100045a4:	4822      	ldr	r0, [pc, #136]	@ (10004630 <low_priority_worker_irq+0xb8>)
100045a6:	6059      	str	r1, [r3, #4]
100045a8:	7802      	ldrb	r2, [r0, #0]
100045aa:	681b      	ldr	r3, [r3, #0]
100045ac:	b2d2      	uxtb	r2, r2
100045ae:	7004      	strb	r4, [r0, #0]
100045b0:	f3bf 8f5f 	dmb	sy
100045b4:	2000      	movs	r0, #0
100045b6:	6018      	str	r0, [r3, #0]
100045b8:	f381 8810 	msr	PRIMASK, r1
100045bc:	2a00      	cmp	r2, #0
100045be:	d017      	beq.n	100045f0 <low_priority_worker_irq+0x78>
100045c0:	b005      	add	sp, #20
100045c2:	bd30      	pop	{r4, r5, pc}
100045c4:	2001      	movs	r0, #1
100045c6:	2100      	movs	r1, #0
100045c8:	4240      	negs	r0, r0
100045ca:	f000 fbfd 	bl	10004dc8 <tud_task_ext>
100045ce:	2000      	movs	r0, #0
100045d0:	f001 f9f6 	bl	100059c0 <tud_cdc_n_available>
100045d4:	0005      	movs	r5, r0
100045d6:	0020      	movs	r0, r4
100045d8:	f002 fad6 	bl	10006b88 <__mutex_exit_veneer>
100045dc:	2d00      	cmp	r5, #0
100045de:	d0ef      	beq.n	100045c0 <low_priority_worker_irq+0x48>
100045e0:	4b14      	ldr	r3, [pc, #80]	@ (10004634 <low_priority_worker_irq+0xbc>)
100045e2:	681b      	ldr	r3, [r3, #0]
100045e4:	2b00      	cmp	r3, #0
100045e6:	d0eb      	beq.n	100045c0 <low_priority_worker_irq+0x48>
100045e8:	4a13      	ldr	r2, [pc, #76]	@ (10004638 <low_priority_worker_irq+0xc0>)
100045ea:	6810      	ldr	r0, [r2, #0]
100045ec:	4798      	blx	r3
100045ee:	e7e7      	b.n	100045c0 <low_priority_worker_irq+0x48>
100045f0:	f7fc fc66 	bl	10000ec0 <alarm_pool_get_default>
100045f4:	0004      	movs	r4, r0
100045f6:	f7fc fe99 	bl	1000132c <time_us_64>
100045fa:	22fa      	movs	r2, #250	@ 0xfa
100045fc:	2300      	movs	r3, #0
100045fe:	0092      	lsls	r2, r2, #2
10004600:	1812      	adds	r2, r2, r0
10004602:	414b      	adcs	r3, r1
10004604:	2180      	movs	r1, #128	@ 0x80
10004606:	0609      	lsls	r1, r1, #24
10004608:	428b      	cmp	r3, r1
1000460a:	d302      	bcc.n	10004612 <low_priority_worker_irq+0x9a>
1000460c:	2201      	movs	r2, #1
1000460e:	4b0b      	ldr	r3, [pc, #44]	@ (1000463c <low_priority_worker_irq+0xc4>)
10004610:	4252      	negs	r2, r2
10004612:	2101      	movs	r1, #1
10004614:	9102      	str	r1, [sp, #8]
10004616:	2100      	movs	r1, #0
10004618:	9101      	str	r1, [sp, #4]
1000461a:	4909      	ldr	r1, [pc, #36]	@ (10004640 <low_priority_worker_irq+0xc8>)
1000461c:	0020      	movs	r0, r4
1000461e:	9100      	str	r1, [sp, #0]
10004620:	f7fc fc52 	bl	10000ec8 <alarm_pool_add_alarm_at>
10004624:	e7cc      	b.n	100045c0 <low_priority_worker_irq+0x48>
10004626:	46c0      	nop			@ (mov r8, r8)
10004628:	20002248 	.word	0x20002248
1000462c:	20002220 	.word	0x20002220
10004630:	20002268 	.word	0x20002268
10004634:	20001da8 	.word	0x20001da8
10004638:	20001dac 	.word	0x20001dac
1000463c:	7fffffff 	.word	0x7fffffff
10004640:	10004331 	.word	0x10004331

10004644 <stdio_usb_init>:
10004644:	23d0      	movs	r3, #208	@ 0xd0
10004646:	b510      	push	{r4, lr}
10004648:	061b      	lsls	r3, r3, #24
1000464a:	b084      	sub	sp, #16
1000464c:	681c      	ldr	r4, [r3, #0]
1000464e:	f7fc fc37 	bl	10000ec0 <alarm_pool_get_default>
10004652:	f7fc fd35 	bl	100010c0 <alarm_pool_core_num>
10004656:	42a0      	cmp	r0, r4
10004658:	d002      	beq.n	10004660 <stdio_usb_init+0x1c>
1000465a:	2000      	movs	r0, #0
1000465c:	b004      	add	sp, #16
1000465e:	bd10      	pop	{r4, pc}
10004660:	4b29      	ldr	r3, [pc, #164]	@ (10004708 <stdio_usb_init+0xc4>)
10004662:	781b      	ldrb	r3, [r3, #0]
10004664:	f001 fd9a 	bl	1000619c <tusb_init>
10004668:	4828      	ldr	r0, [pc, #160]	@ (1000470c <stdio_usb_init+0xc8>)
1000466a:	6803      	ldr	r3, [r0, #0]
1000466c:	2b00      	cmp	r3, #0
1000466e:	d047      	beq.n	10004700 <stdio_usb_init+0xbc>
10004670:	2001      	movs	r0, #1
10004672:	f7fc f9c1 	bl	100009f8 <user_irq_claim_unused>
10004676:	23ff      	movs	r3, #255	@ 0xff
10004678:	4c25      	ldr	r4, [pc, #148]	@ (10004710 <stdio_usb_init+0xcc>)
1000467a:	4926      	ldr	r1, [pc, #152]	@ (10004714 <stdio_usb_init+0xd0>)
1000467c:	7020      	strb	r0, [r4, #0]
1000467e:	4018      	ands	r0, r3
10004680:	f7fc f83c 	bl	100006fc <irq_set_exclusive_handler>
10004684:	7820      	ldrb	r0, [r4, #0]
10004686:	2101      	movs	r1, #1
10004688:	f7fb fffc 	bl	10000684 <irq_set_enabled>
1000468c:	2005      	movs	r0, #5
1000468e:	f7fc f81f 	bl	100006d0 <irq_has_shared_handler>
10004692:	2800      	cmp	r0, #0
10004694:	d126      	bne.n	100046e4 <stdio_usb_init+0xa0>
10004696:	2208      	movs	r2, #8
10004698:	2100      	movs	r1, #0
1000469a:	481f      	ldr	r0, [pc, #124]	@ (10004718 <stdio_usb_init+0xd4>)
1000469c:	f7fd ffe0 	bl	10002660 <__wrap_memset>
100046a0:	f7fc fc0e 	bl	10000ec0 <alarm_pool_get_default>
100046a4:	0004      	movs	r4, r0
100046a6:	f7fc fe41 	bl	1000132c <time_us_64>
100046aa:	22fa      	movs	r2, #250	@ 0xfa
100046ac:	2300      	movs	r3, #0
100046ae:	0092      	lsls	r2, r2, #2
100046b0:	1812      	adds	r2, r2, r0
100046b2:	414b      	adcs	r3, r1
100046b4:	2180      	movs	r1, #128	@ 0x80
100046b6:	0609      	lsls	r1, r1, #24
100046b8:	428b      	cmp	r3, r1
100046ba:	d302      	bcc.n	100046c2 <stdio_usb_init+0x7e>
100046bc:	2201      	movs	r2, #1
100046be:	4b17      	ldr	r3, [pc, #92]	@ (1000471c <stdio_usb_init+0xd8>)
100046c0:	4252      	negs	r2, r2
100046c2:	2101      	movs	r1, #1
100046c4:	9102      	str	r1, [sp, #8]
100046c6:	2100      	movs	r1, #0
100046c8:	9101      	str	r1, [sp, #4]
100046ca:	4915      	ldr	r1, [pc, #84]	@ (10004720 <stdio_usb_init+0xdc>)
100046cc:	0020      	movs	r0, r4
100046ce:	9100      	str	r1, [sp, #0]
100046d0:	f7fc fbfa 	bl	10000ec8 <alarm_pool_add_alarm_at>
100046d4:	2800      	cmp	r0, #0
100046d6:	dbc0      	blt.n	1000465a <stdio_usb_init+0x16>
100046d8:	4812      	ldr	r0, [pc, #72]	@ (10004724 <stdio_usb_init+0xe0>)
100046da:	2101      	movs	r1, #1
100046dc:	f7ff fc9a 	bl	10004014 <stdio_set_driver_enabled>
100046e0:	2001      	movs	r0, #1
100046e2:	e7bb      	b.n	1000465c <stdio_usb_init+0x18>
100046e4:	2001      	movs	r0, #1
100046e6:	f7fb ff9b 	bl	10000620 <spin_lock_claim_unused>
100046ea:	4b0b      	ldr	r3, [pc, #44]	@ (10004718 <stdio_usb_init+0xd4>)
100046ec:	0001      	movs	r1, r0
100046ee:	0018      	movs	r0, r3
100046f0:	f7fc f9e4 	bl	10000abc <critical_section_init_with_lock_num>
100046f4:	2200      	movs	r2, #0
100046f6:	2005      	movs	r0, #5
100046f8:	490b      	ldr	r1, [pc, #44]	@ (10004728 <stdio_usb_init+0xe4>)
100046fa:	f7fc f829 	bl	10000750 <irq_add_shared_handler>
100046fe:	e7eb      	b.n	100046d8 <stdio_usb_init+0x94>
10004700:	f7fc f9c0 	bl	10000a84 <mutex_init>
10004704:	e7b4      	b.n	10004670 <stdio_usb_init+0x2c>
10004706:	46c0      	nop			@ (mov r8, r8)
10004708:	10007320 	.word	0x10007320
1000470c:	20002248 	.word	0x20002248
10004710:	20002267 	.word	0x20002267
10004714:	10004579 	.word	0x10004579
10004718:	20002220 	.word	0x20002220
1000471c:	7fffffff 	.word	0x7fffffff
10004720:	10004331 	.word	0x10004331
10004724:	20001020 	.word	0x20001020
10004728:	10004321 	.word	0x10004321

1000472c <tud_descriptor_device_cb>:
1000472c:	4800      	ldr	r0, [pc, #0]	@ (10004730 <tud_descriptor_device_cb+0x4>)
1000472e:	4770      	bx	lr
10004730:	10007208 	.word	0x10007208

10004734 <tud_descriptor_configuration_cb>:
10004734:	4800      	ldr	r0, [pc, #0]	@ (10004738 <tud_descriptor_configuration_cb+0x4>)
10004736:	4770      	bx	lr
10004738:	100071b4 	.word	0x100071b4

1000473c <tud_descriptor_string_cb>:
1000473c:	b510      	push	{r4, lr}
1000473e:	0004      	movs	r4, r0
10004740:	4817      	ldr	r0, [pc, #92]	@ (100047a0 <tud_descriptor_string_cb+0x64>)
10004742:	7803      	ldrb	r3, [r0, #0]
10004744:	2b00      	cmp	r3, #0
10004746:	d020      	beq.n	1000478a <tud_descriptor_string_cb+0x4e>
10004748:	2c00      	cmp	r4, #0
1000474a:	d106      	bne.n	1000475a <tud_descriptor_string_cb+0x1e>
1000474c:	4b15      	ldr	r3, [pc, #84]	@ (100047a4 <tud_descriptor_string_cb+0x68>)
1000474e:	4816      	ldr	r0, [pc, #88]	@ (100047a8 <tud_descriptor_string_cb+0x6c>)
10004750:	8043      	strh	r3, [r0, #2]
10004752:	3b06      	subs	r3, #6
10004754:	3bff      	subs	r3, #255	@ 0xff
10004756:	8003      	strh	r3, [r0, #0]
10004758:	bd10      	pop	{r4, pc}
1000475a:	2c05      	cmp	r4, #5
1000475c:	d819      	bhi.n	10004792 <tud_descriptor_string_cb+0x56>
1000475e:	4b13      	ldr	r3, [pc, #76]	@ (100047ac <tud_descriptor_string_cb+0x70>)
10004760:	00a4      	lsls	r4, r4, #2
10004762:	58e0      	ldr	r0, [r4, r3]
10004764:	4912      	ldr	r1, [pc, #72]	@ (100047b0 <tud_descriptor_string_cb+0x74>)
10004766:	2301      	movs	r3, #1
10004768:	3801      	subs	r0, #1
1000476a:	e004      	b.n	10004776 <tud_descriptor_string_cb+0x3a>
1000476c:	3301      	adds	r3, #1
1000476e:	800a      	strh	r2, [r1, #0]
10004770:	3102      	adds	r1, #2
10004772:	2b14      	cmp	r3, #20
10004774:	d00f      	beq.n	10004796 <tud_descriptor_string_cb+0x5a>
10004776:	5cc2      	ldrb	r2, [r0, r3]
10004778:	2a00      	cmp	r2, #0
1000477a:	d1f7      	bne.n	1000476c <tud_descriptor_string_cb+0x30>
1000477c:	22c0      	movs	r2, #192	@ 0xc0
1000477e:	b2db      	uxtb	r3, r3
10004780:	005b      	lsls	r3, r3, #1
10004782:	0092      	lsls	r2, r2, #2
10004784:	4808      	ldr	r0, [pc, #32]	@ (100047a8 <tud_descriptor_string_cb+0x6c>)
10004786:	4313      	orrs	r3, r2
10004788:	e7e5      	b.n	10004756 <tud_descriptor_string_cb+0x1a>
1000478a:	2111      	movs	r1, #17
1000478c:	f000 f81a 	bl	100047c4 <pico_get_unique_board_id_string>
10004790:	e7da      	b.n	10004748 <tud_descriptor_string_cb+0xc>
10004792:	2000      	movs	r0, #0
10004794:	e7e0      	b.n	10004758 <tud_descriptor_string_cb+0x1c>
10004796:	23ca      	movs	r3, #202	@ 0xca
10004798:	4803      	ldr	r0, [pc, #12]	@ (100047a8 <tud_descriptor_string_cb+0x6c>)
1000479a:	009b      	lsls	r3, r3, #2
1000479c:	e7db      	b.n	10004756 <tud_descriptor_string_cb+0x1a>
1000479e:	46c0      	nop			@ (mov r8, r8)
100047a0:	20002250 	.word	0x20002250
100047a4:	00000409 	.word	0x00000409
100047a8:	20001de0 	.word	0x20001de0
100047ac:	1000719c 	.word	0x1000719c
100047b0:	20001de2 	.word	0x20001de2

100047b4 <_retrieve_unique_id_on_boot>:
100047b4:	b510      	push	{r4, lr}
100047b6:	4802      	ldr	r0, [pc, #8]	@ (100047c0 <_retrieve_unique_id_on_boot+0xc>)
100047b8:	f000 f8d8 	bl	1000496c <flash_get_unique_id>
100047bc:	bd10      	pop	{r4, pc}
100047be:	46c0      	nop			@ (mov r8, r8)
100047c0:	20002238 	.word	0x20002238

100047c4 <pico_get_unique_board_id_string>:
100047c4:	b530      	push	{r4, r5, lr}
100047c6:	1e4b      	subs	r3, r1, #1
100047c8:	2901      	cmp	r1, #1
100047ca:	d100      	bne.n	100047ce <pico_get_unique_board_id_string+0xa>
100047cc:	e0a7      	b.n	1000491e <pico_get_unique_board_id_string+0x15a>
100047ce:	4a66      	ldr	r2, [pc, #408]	@ (10004968 <pico_get_unique_board_id_string+0x1a4>)
100047d0:	7811      	ldrb	r1, [r2, #0]
100047d2:	090d      	lsrs	r5, r1, #4
100047d4:	002c      	movs	r4, r5
100047d6:	3430      	adds	r4, #48	@ 0x30
100047d8:	299f      	cmp	r1, #159	@ 0x9f
100047da:	d900      	bls.n	100047de <pico_get_unique_board_id_string+0x1a>
100047dc:	e0a2      	b.n	10004924 <pico_get_unique_board_id_string+0x160>
100047de:	7004      	strb	r4, [r0, #0]
100047e0:	2b01      	cmp	r3, #1
100047e2:	d100      	bne.n	100047e6 <pico_get_unique_board_id_string+0x22>
100047e4:	e0be      	b.n	10004964 <pico_get_unique_board_id_string+0x1a0>
100047e6:	210f      	movs	r1, #15
100047e8:	7814      	ldrb	r4, [r2, #0]
100047ea:	4021      	ands	r1, r4
100047ec:	000c      	movs	r4, r1
100047ee:	3430      	adds	r4, #48	@ 0x30
100047f0:	2909      	cmp	r1, #9
100047f2:	d900      	bls.n	100047f6 <pico_get_unique_board_id_string+0x32>
100047f4:	e098      	b.n	10004928 <pico_get_unique_board_id_string+0x164>
100047f6:	7044      	strb	r4, [r0, #1]
100047f8:	2b02      	cmp	r3, #2
100047fa:	d100      	bne.n	100047fe <pico_get_unique_board_id_string+0x3a>
100047fc:	e0b2      	b.n	10004964 <pico_get_unique_board_id_string+0x1a0>
100047fe:	7854      	ldrb	r4, [r2, #1]
10004800:	0925      	lsrs	r5, r4, #4
10004802:	0029      	movs	r1, r5
10004804:	3130      	adds	r1, #48	@ 0x30
10004806:	2c9f      	cmp	r4, #159	@ 0x9f
10004808:	d900      	bls.n	1000480c <pico_get_unique_board_id_string+0x48>
1000480a:	e090      	b.n	1000492e <pico_get_unique_board_id_string+0x16a>
1000480c:	7081      	strb	r1, [r0, #2]
1000480e:	2b03      	cmp	r3, #3
10004810:	d100      	bne.n	10004814 <pico_get_unique_board_id_string+0x50>
10004812:	e0a7      	b.n	10004964 <pico_get_unique_board_id_string+0x1a0>
10004814:	210f      	movs	r1, #15
10004816:	4021      	ands	r1, r4
10004818:	000c      	movs	r4, r1
1000481a:	3430      	adds	r4, #48	@ 0x30
1000481c:	2909      	cmp	r1, #9
1000481e:	d900      	bls.n	10004822 <pico_get_unique_board_id_string+0x5e>
10004820:	e087      	b.n	10004932 <pico_get_unique_board_id_string+0x16e>
10004822:	70c4      	strb	r4, [r0, #3]
10004824:	2b04      	cmp	r3, #4
10004826:	d100      	bne.n	1000482a <pico_get_unique_board_id_string+0x66>
10004828:	e09c      	b.n	10004964 <pico_get_unique_board_id_string+0x1a0>
1000482a:	7894      	ldrb	r4, [r2, #2]
1000482c:	0925      	lsrs	r5, r4, #4
1000482e:	0029      	movs	r1, r5
10004830:	3130      	adds	r1, #48	@ 0x30
10004832:	2c9f      	cmp	r4, #159	@ 0x9f
10004834:	d900      	bls.n	10004838 <pico_get_unique_board_id_string+0x74>
10004836:	e07f      	b.n	10004938 <pico_get_unique_board_id_string+0x174>
10004838:	7101      	strb	r1, [r0, #4]
1000483a:	2b05      	cmp	r3, #5
1000483c:	d100      	bne.n	10004840 <pico_get_unique_board_id_string+0x7c>
1000483e:	e091      	b.n	10004964 <pico_get_unique_board_id_string+0x1a0>
10004840:	210f      	movs	r1, #15
10004842:	4021      	ands	r1, r4
10004844:	000c      	movs	r4, r1
10004846:	3430      	adds	r4, #48	@ 0x30
10004848:	2909      	cmp	r1, #9
1000484a:	d900      	bls.n	1000484e <pico_get_unique_board_id_string+0x8a>
1000484c:	e076      	b.n	1000493c <pico_get_unique_board_id_string+0x178>
1000484e:	7144      	strb	r4, [r0, #5]
10004850:	2b06      	cmp	r3, #6
10004852:	d100      	bne.n	10004856 <pico_get_unique_board_id_string+0x92>
10004854:	e086      	b.n	10004964 <pico_get_unique_board_id_string+0x1a0>
10004856:	78d4      	ldrb	r4, [r2, #3]
10004858:	0925      	lsrs	r5, r4, #4
1000485a:	0029      	movs	r1, r5
1000485c:	3130      	adds	r1, #48	@ 0x30
1000485e:	2c9f      	cmp	r4, #159	@ 0x9f
10004860:	d900      	bls.n	10004864 <pico_get_unique_board_id_string+0xa0>
10004862:	e06e      	b.n	10004942 <pico_get_unique_board_id_string+0x17e>
10004864:	7181      	strb	r1, [r0, #6]
10004866:	2b07      	cmp	r3, #7
10004868:	d100      	bne.n	1000486c <pico_get_unique_board_id_string+0xa8>
1000486a:	e07b      	b.n	10004964 <pico_get_unique_board_id_string+0x1a0>
1000486c:	210f      	movs	r1, #15
1000486e:	4021      	ands	r1, r4
10004870:	000c      	movs	r4, r1
10004872:	3430      	adds	r4, #48	@ 0x30
10004874:	2909      	cmp	r1, #9
10004876:	d866      	bhi.n	10004946 <pico_get_unique_board_id_string+0x182>
10004878:	71c4      	strb	r4, [r0, #7]
1000487a:	2b08      	cmp	r3, #8
1000487c:	d100      	bne.n	10004880 <pico_get_unique_board_id_string+0xbc>
1000487e:	e071      	b.n	10004964 <pico_get_unique_board_id_string+0x1a0>
10004880:	7914      	ldrb	r4, [r2, #4]
10004882:	0925      	lsrs	r5, r4, #4
10004884:	0029      	movs	r1, r5
10004886:	3130      	adds	r1, #48	@ 0x30
10004888:	2c9f      	cmp	r4, #159	@ 0x9f
1000488a:	d85f      	bhi.n	1000494c <pico_get_unique_board_id_string+0x188>
1000488c:	7201      	strb	r1, [r0, #8]
1000488e:	2b09      	cmp	r3, #9
10004890:	d068      	beq.n	10004964 <pico_get_unique_board_id_string+0x1a0>
10004892:	210f      	movs	r1, #15
10004894:	4021      	ands	r1, r4
10004896:	000c      	movs	r4, r1
10004898:	3430      	adds	r4, #48	@ 0x30
1000489a:	2909      	cmp	r1, #9
1000489c:	d858      	bhi.n	10004950 <pico_get_unique_board_id_string+0x18c>
1000489e:	7244      	strb	r4, [r0, #9]
100048a0:	2b0a      	cmp	r3, #10
100048a2:	d05f      	beq.n	10004964 <pico_get_unique_board_id_string+0x1a0>
100048a4:	7954      	ldrb	r4, [r2, #5]
100048a6:	0925      	lsrs	r5, r4, #4
100048a8:	0029      	movs	r1, r5
100048aa:	3130      	adds	r1, #48	@ 0x30
100048ac:	2c9f      	cmp	r4, #159	@ 0x9f
100048ae:	d852      	bhi.n	10004956 <pico_get_unique_board_id_string+0x192>
100048b0:	7281      	strb	r1, [r0, #10]
100048b2:	2b0b      	cmp	r3, #11
100048b4:	d056      	beq.n	10004964 <pico_get_unique_board_id_string+0x1a0>
100048b6:	210f      	movs	r1, #15
100048b8:	4021      	ands	r1, r4
100048ba:	000c      	movs	r4, r1
100048bc:	3430      	adds	r4, #48	@ 0x30
100048be:	2909      	cmp	r1, #9
100048c0:	d84b      	bhi.n	1000495a <pico_get_unique_board_id_string+0x196>
100048c2:	72c4      	strb	r4, [r0, #11]
100048c4:	2b0c      	cmp	r3, #12
100048c6:	d04d      	beq.n	10004964 <pico_get_unique_board_id_string+0x1a0>
100048c8:	7994      	ldrb	r4, [r2, #6]
100048ca:	0925      	lsrs	r5, r4, #4
100048cc:	0029      	movs	r1, r5
100048ce:	3130      	adds	r1, #48	@ 0x30
100048d0:	2c9f      	cmp	r4, #159	@ 0x9f
100048d2:	d900      	bls.n	100048d6 <pico_get_unique_board_id_string+0x112>
100048d4:	3107      	adds	r1, #7
100048d6:	7301      	strb	r1, [r0, #12]
100048d8:	2b0d      	cmp	r3, #13
100048da:	d043      	beq.n	10004964 <pico_get_unique_board_id_string+0x1a0>
100048dc:	210f      	movs	r1, #15
100048de:	4021      	ands	r1, r4
100048e0:	000c      	movs	r4, r1
100048e2:	3430      	adds	r4, #48	@ 0x30
100048e4:	2909      	cmp	r1, #9
100048e6:	d901      	bls.n	100048ec <pico_get_unique_board_id_string+0x128>
100048e8:	3137      	adds	r1, #55	@ 0x37
100048ea:	000c      	movs	r4, r1
100048ec:	7344      	strb	r4, [r0, #13]
100048ee:	2b0e      	cmp	r3, #14
100048f0:	d038      	beq.n	10004964 <pico_get_unique_board_id_string+0x1a0>
100048f2:	79d1      	ldrb	r1, [r2, #7]
100048f4:	090c      	lsrs	r4, r1, #4
100048f6:	0022      	movs	r2, r4
100048f8:	3230      	adds	r2, #48	@ 0x30
100048fa:	299f      	cmp	r1, #159	@ 0x9f
100048fc:	d900      	bls.n	10004900 <pico_get_unique_board_id_string+0x13c>
100048fe:	3207      	adds	r2, #7
10004900:	7382      	strb	r2, [r0, #14]
10004902:	2b0f      	cmp	r3, #15
10004904:	d02e      	beq.n	10004964 <pico_get_unique_board_id_string+0x1a0>
10004906:	220f      	movs	r2, #15
10004908:	400a      	ands	r2, r1
1000490a:	0011      	movs	r1, r2
1000490c:	3137      	adds	r1, #55	@ 0x37
1000490e:	2a09      	cmp	r2, #9
10004910:	d801      	bhi.n	10004916 <pico_get_unique_board_id_string+0x152>
10004912:	3230      	adds	r2, #48	@ 0x30
10004914:	0011      	movs	r1, r2
10004916:	73c1      	strb	r1, [r0, #15]
10004918:	2b10      	cmp	r3, #16
1000491a:	d023      	beq.n	10004964 <pico_get_unique_board_id_string+0x1a0>
1000491c:	3010      	adds	r0, #16
1000491e:	2300      	movs	r3, #0
10004920:	7003      	strb	r3, [r0, #0]
10004922:	bd30      	pop	{r4, r5, pc}
10004924:	3407      	adds	r4, #7
10004926:	e75a      	b.n	100047de <pico_get_unique_board_id_string+0x1a>
10004928:	3137      	adds	r1, #55	@ 0x37
1000492a:	000c      	movs	r4, r1
1000492c:	e763      	b.n	100047f6 <pico_get_unique_board_id_string+0x32>
1000492e:	3107      	adds	r1, #7
10004930:	e76c      	b.n	1000480c <pico_get_unique_board_id_string+0x48>
10004932:	3137      	adds	r1, #55	@ 0x37
10004934:	000c      	movs	r4, r1
10004936:	e774      	b.n	10004822 <pico_get_unique_board_id_string+0x5e>
10004938:	3107      	adds	r1, #7
1000493a:	e77d      	b.n	10004838 <pico_get_unique_board_id_string+0x74>
1000493c:	3137      	adds	r1, #55	@ 0x37
1000493e:	000c      	movs	r4, r1
10004940:	e785      	b.n	1000484e <pico_get_unique_board_id_string+0x8a>
10004942:	3107      	adds	r1, #7
10004944:	e78e      	b.n	10004864 <pico_get_unique_board_id_string+0xa0>
10004946:	3137      	adds	r1, #55	@ 0x37
10004948:	000c      	movs	r4, r1
1000494a:	e795      	b.n	10004878 <pico_get_unique_board_id_string+0xb4>
1000494c:	3107      	adds	r1, #7
1000494e:	e79d      	b.n	1000488c <pico_get_unique_board_id_string+0xc8>
10004950:	3137      	adds	r1, #55	@ 0x37
10004952:	000c      	movs	r4, r1
10004954:	e7a3      	b.n	1000489e <pico_get_unique_board_id_string+0xda>
10004956:	3107      	adds	r1, #7
10004958:	e7aa      	b.n	100048b0 <pico_get_unique_board_id_string+0xec>
1000495a:	3137      	adds	r1, #55	@ 0x37
1000495c:	000c      	movs	r4, r1
1000495e:	72c4      	strb	r4, [r0, #11]
10004960:	2b0c      	cmp	r3, #12
10004962:	d1b1      	bne.n	100048c8 <pico_get_unique_board_id_string+0x104>
10004964:	18c0      	adds	r0, r0, r3
10004966:	e7da      	b.n	1000491e <pico_get_unique_board_id_string+0x15a>
10004968:	20002238 	.word	0x20002238

1000496c <flash_get_unique_id>:
1000496c:	b510      	push	{r4, lr}
1000496e:	b088      	sub	sp, #32
10004970:	0004      	movs	r4, r0
10004972:	220d      	movs	r2, #13
10004974:	2100      	movs	r1, #0
10004976:	4668      	mov	r0, sp
10004978:	f7fd fe72 	bl	10002660 <__wrap_memset>
1000497c:	220d      	movs	r2, #13
1000497e:	2100      	movs	r1, #0
10004980:	a804      	add	r0, sp, #16
10004982:	f7fd fe6d 	bl	10002660 <__wrap_memset>
10004986:	234b      	movs	r3, #75	@ 0x4b
10004988:	466a      	mov	r2, sp
1000498a:	4668      	mov	r0, sp
1000498c:	7013      	strb	r3, [r2, #0]
1000498e:	a904      	add	r1, sp, #16
10004990:	220d      	movs	r2, #13
10004992:	f002 f8f1 	bl	10006b78 <__flash_do_cmd_veneer>
10004996:	2115      	movs	r1, #21
10004998:	2208      	movs	r2, #8
1000499a:	0020      	movs	r0, r4
1000499c:	4469      	add	r1, sp
1000499e:	f7fd fe65 	bl	1000266c <__wrap___aeabi_memcpy>
100049a2:	b008      	add	sp, #32
100049a4:	bd10      	pop	{r4, pc}
100049a6:	46c0      	nop			@ (mov r8, r8)

100049a8 <dcd_init>:
100049a8:	b5f8      	push	{r3, r4, r5, r6, r7, lr}
100049aa:	f000 f93b 	bl	10004c24 <rp2040_usb_init>
100049ae:	230c      	movs	r3, #12
100049b0:	4d18      	ldr	r5, [pc, #96]	@ (10004a14 <dcd_init+0x6c>)
100049b2:	22ff      	movs	r2, #255	@ 0xff
100049b4:	67ab      	str	r3, [r5, #120]	@ 0x78
100049b6:	2005      	movs	r0, #5
100049b8:	4917      	ldr	r1, [pc, #92]	@ (10004a18 <dcd_init+0x70>)
100049ba:	f7fb fec9 	bl	10000750 <irq_add_shared_handler>
100049be:	4c17      	ldr	r4, [pc, #92]	@ (10004a1c <dcd_init+0x74>)
100049c0:	2240      	movs	r2, #64	@ 0x40
100049c2:	2100      	movs	r1, #0
100049c4:	0020      	movs	r0, r4
100049c6:	f7fd fe4b 	bl	10002660 <__wrap_memset>
100049ca:	2740      	movs	r7, #64	@ 0x40
100049cc:	2300      	movs	r3, #0
100049ce:	2601      	movs	r6, #1
100049d0:	2121      	movs	r1, #33	@ 0x21
100049d2:	4a13      	ldr	r2, [pc, #76]	@ (10004a20 <dcd_init+0x78>)
100049d4:	7066      	strb	r6, [r4, #1]
100049d6:	8327      	strh	r7, [r4, #24]
100049d8:	60a2      	str	r2, [r4, #8]
100049da:	6013      	str	r3, [r2, #0]
100049dc:	5463      	strb	r3, [r4, r1]
100049de:	315f      	adds	r1, #95	@ 0x5f
100049e0:	8461      	strh	r1, [r4, #34]	@ 0x22
100049e2:	3945      	subs	r1, #69	@ 0x45
100049e4:	5463      	strb	r3, [r4, r1]
100049e6:	4a0f      	ldr	r2, [pc, #60]	@ (10004a24 <dcd_init+0x7c>)
100049e8:	490f      	ldr	r1, [pc, #60]	@ (10004a28 <dcd_init+0x80>)
100049ea:	6063      	str	r3, [r4, #4]
100049ec:	60e2      	str	r2, [r4, #12]
100049ee:	8727      	strh	r7, [r4, #56]	@ 0x38
100049f0:	62a1      	str	r1, [r4, #40]	@ 0x28
100049f2:	600b      	str	r3, [r1, #0]
100049f4:	6263      	str	r3, [r4, #36]	@ 0x24
100049f6:	62e2      	str	r2, [r4, #44]	@ 0x2c
100049f8:	f002 f90e 	bl	10006c18 <__reset_non_control_endpoints_veneer>
100049fc:	2380      	movs	r3, #128	@ 0x80
100049fe:	059b      	lsls	r3, r3, #22
10004a00:	642e      	str	r6, [r5, #64]	@ 0x40
10004a02:	64eb      	str	r3, [r5, #76]	@ 0x4c
10004a04:	2390      	movs	r3, #144	@ 0x90
10004a06:	4a09      	ldr	r2, [pc, #36]	@ (10004a2c <dcd_init+0x84>)
10004a08:	50ea      	str	r2, [r5, r3]
10004a0a:	2280      	movs	r2, #128	@ 0x80
10004a0c:	4b08      	ldr	r3, [pc, #32]	@ (10004a30 <dcd_init+0x88>)
10004a0e:	0252      	lsls	r2, r2, #9
10004a10:	64da      	str	r2, [r3, #76]	@ 0x4c
10004a12:	bdf8      	pop	{r3, r4, r5, r6, r7, pc}
10004a14:	50110000 	.word	0x50110000
10004a18:	200004a1 	.word	0x200004a1
10004a1c:	20001e14 	.word	0x20001e14
10004a20:	50100084 	.word	0x50100084
10004a24:	50100100 	.word	0x50100100
10004a28:	50100080 	.word	0x50100080
10004a2c:	0001d010 	.word	0x0001d010
10004a30:	50112000 	.word	0x50112000

10004a34 <dcd_int_enable>:
10004a34:	b510      	push	{r4, lr}
10004a36:	2101      	movs	r1, #1
10004a38:	2005      	movs	r0, #5
10004a3a:	f7fb fe23 	bl	10000684 <irq_set_enabled>
10004a3e:	bd10      	pop	{r4, pc}

10004a40 <dcd_set_address>:
10004a40:	b510      	push	{r4, lr}
10004a42:	2200      	movs	r2, #0
10004a44:	2100      	movs	r1, #0
10004a46:	4802      	ldr	r0, [pc, #8]	@ (10004a50 <dcd_set_address+0x10>)
10004a48:	f000 f90c 	bl	10004c64 <hw_endpoint_xfer_start>
10004a4c:	bd10      	pop	{r4, pc}
10004a4e:	46c0      	nop			@ (mov r8, r8)
10004a50:	20001e34 	.word	0x20001e34

10004a54 <dcd_sof_enable>:
10004a54:	4b04      	ldr	r3, [pc, #16]	@ (10004a68 <dcd_sof_enable+0x14>)
10004a56:	7019      	strb	r1, [r3, #0]
10004a58:	2900      	cmp	r1, #0
10004a5a:	d004      	beq.n	10004a66 <dcd_sof_enable+0x12>
10004a5c:	2180      	movs	r1, #128	@ 0x80
10004a5e:	2390      	movs	r3, #144	@ 0x90
10004a60:	4a02      	ldr	r2, [pc, #8]	@ (10004a6c <dcd_sof_enable+0x18>)
10004a62:	0289      	lsls	r1, r1, #10
10004a64:	50d1      	str	r1, [r2, r3]
10004a66:	4770      	bx	lr
10004a68:	20002262 	.word	0x20002262
10004a6c:	50112000 	.word	0x50112000

10004a70 <dcd_edpt0_status_complete>:
10004a70:	780b      	ldrb	r3, [r1, #0]
10004a72:	065b      	lsls	r3, r3, #25
10004a74:	d102      	bne.n	10004a7c <dcd_edpt0_status_complete+0xc>
10004a76:	784b      	ldrb	r3, [r1, #1]
10004a78:	2b05      	cmp	r3, #5
10004a7a:	d000      	beq.n	10004a7e <dcd_edpt0_status_complete+0xe>
10004a7c:	4770      	bx	lr
10004a7e:	788a      	ldrb	r2, [r1, #2]
10004a80:	4b01      	ldr	r3, [pc, #4]	@ (10004a88 <dcd_edpt0_status_complete+0x18>)
10004a82:	601a      	str	r2, [r3, #0]
10004a84:	e7fa      	b.n	10004a7c <dcd_edpt0_status_complete+0xc>
10004a86:	46c0      	nop			@ (mov r8, r8)
10004a88:	50110000 	.word	0x50110000

10004a8c <dcd_edpt_open>:
10004a8c:	b5f0      	push	{r4, r5, r6, r7, lr}
10004a8e:	46c6      	mov	lr, r8
10004a90:	b500      	push	{lr}
10004a92:	78cc      	ldrb	r4, [r1, #3]
10004a94:	7888      	ldrb	r0, [r1, #2]
10004a96:	790a      	ldrb	r2, [r1, #4]
10004a98:	794b      	ldrb	r3, [r1, #5]
10004a9a:	217f      	movs	r1, #127	@ 0x7f
10004a9c:	07a4      	lsls	r4, r4, #30
10004a9e:	4001      	ands	r1, r0
10004aa0:	021b      	lsls	r3, r3, #8
10004aa2:	09c5      	lsrs	r5, r0, #7
10004aa4:	4313      	orrs	r3, r2
10004aa6:	004f      	lsls	r7, r1, #1
10004aa8:	0fa2      	lsrs	r2, r4, #30
10004aaa:	0014      	movs	r4, r2
10004aac:	4e32      	ldr	r6, [pc, #200]	@ (10004b78 <dcd_edpt_open+0xec>)
10004aae:	197a      	adds	r2, r7, r5
10004ab0:	0152      	lsls	r2, r2, #5
10004ab2:	18b2      	adds	r2, r6, r2
10004ab4:	7090      	strb	r0, [r2, #2]
10004ab6:	2001      	movs	r0, #1
10004ab8:	4068      	eors	r0, r5
10004aba:	7050      	strb	r0, [r2, #1]
10004abc:	2000      	movs	r0, #0
10004abe:	055b      	lsls	r3, r3, #21
10004ac0:	0d5b      	lsrs	r3, r3, #21
10004ac2:	70d0      	strb	r0, [r2, #3]
10004ac4:	8313      	strh	r3, [r2, #24]
10004ac6:	76d4      	strb	r4, [r2, #27]
10004ac8:	4680      	mov	r8, r0
10004aca:	00ca      	lsls	r2, r1, #3
10004acc:	2d01      	cmp	r5, #1
10004ace:	d033      	beq.n	10004b38 <dcd_edpt_open+0xac>
10004ad0:	482a      	ldr	r0, [pc, #168]	@ (10004b7c <dcd_edpt_open+0xf0>)
10004ad2:	4684      	mov	ip, r0
10004ad4:	0188      	lsls	r0, r1, #6
10004ad6:	4462      	add	r2, ip
10004ad8:	4684      	mov	ip, r0
10004ada:	44b4      	add	ip, r6
10004adc:	4660      	mov	r0, ip
10004ade:	6082      	str	r2, [r0, #8]
10004ae0:	4640      	mov	r0, r8
10004ae2:	6010      	str	r0, [r2, #0]
10004ae4:	2900      	cmp	r1, #0
10004ae6:	d033      	beq.n	10004b50 <dcd_edpt_open+0xc4>
10004ae8:	4a25      	ldr	r2, [pc, #148]	@ (10004b80 <dcd_edpt_open+0xf4>)
10004aea:	00c9      	lsls	r1, r1, #3
10004aec:	4690      	mov	r8, r2
10004aee:	4662      	mov	r2, ip
10004af0:	4441      	add	r1, r8
10004af2:	6051      	str	r1, [r2, #4]
10004af4:	223f      	movs	r2, #63	@ 0x3f
10004af6:	333f      	adds	r3, #63	@ 0x3f
10004af8:	4393      	bics	r3, r2
10004afa:	2c02      	cmp	r4, #2
10004afc:	d100      	bne.n	10004b00 <dcd_edpt_open+0x74>
10004afe:	005b      	lsls	r3, r3, #1
10004b00:	4820      	ldr	r0, [pc, #128]	@ (10004b84 <dcd_edpt_open+0xf8>)
10004b02:	197a      	adds	r2, r7, r5
10004b04:	6801      	ldr	r1, [r0, #0]
10004b06:	0152      	lsls	r2, r2, #5
10004b08:	18b2      	adds	r2, r6, r2
10004b0a:	60d1      	str	r1, [r2, #12]
10004b0c:	4a1e      	ldr	r2, [pc, #120]	@ (10004b88 <dcd_edpt_open+0xfc>)
10004b0e:	18cb      	adds	r3, r1, r3
10004b10:	6003      	str	r3, [r0, #0]
10004b12:	4051      	eors	r1, r2
10004b14:	405a      	eors	r2, r3
10004b16:	2380      	movs	r3, #128	@ 0x80
10004b18:	4688      	mov	r8, r1
10004b1a:	015b      	lsls	r3, r3, #5
10004b1c:	429a      	cmp	r2, r3
10004b1e:	d828      	bhi.n	10004b72 <dcd_edpt_open+0xe6>
10004b20:	4643      	mov	r3, r8
10004b22:	06a4      	lsls	r4, r4, #26
10004b24:	431c      	orrs	r4, r3
10004b26:	2380      	movs	r3, #128	@ 0x80
10004b28:	197f      	adds	r7, r7, r5
10004b2a:	017f      	lsls	r7, r7, #5
10004b2c:	19f6      	adds	r6, r6, r7
10004b2e:	6872      	ldr	r2, [r6, #4]
10004b30:	061b      	lsls	r3, r3, #24
10004b32:	4323      	orrs	r3, r4
10004b34:	6013      	str	r3, [r2, #0]
10004b36:	e011      	b.n	10004b5c <dcd_edpt_open+0xd0>
10004b38:	4814      	ldr	r0, [pc, #80]	@ (10004b8c <dcd_edpt_open+0x100>)
10004b3a:	4684      	mov	ip, r0
10004b3c:	0188      	lsls	r0, r1, #6
10004b3e:	4462      	add	r2, ip
10004b40:	4684      	mov	ip, r0
10004b42:	44b4      	add	ip, r6
10004b44:	4660      	mov	r0, ip
10004b46:	6282      	str	r2, [r0, #40]	@ 0x28
10004b48:	4640      	mov	r0, r8
10004b4a:	6010      	str	r0, [r2, #0]
10004b4c:	2900      	cmp	r1, #0
10004b4e:	d109      	bne.n	10004b64 <dcd_edpt_open+0xd8>
10004b50:	2300      	movs	r3, #0
10004b52:	016d      	lsls	r5, r5, #5
10004b54:	1975      	adds	r5, r6, r5
10004b56:	606b      	str	r3, [r5, #4]
10004b58:	4b0d      	ldr	r3, [pc, #52]	@ (10004b90 <dcd_edpt_open+0x104>)
10004b5a:	60eb      	str	r3, [r5, #12]
10004b5c:	2001      	movs	r0, #1
10004b5e:	bc80      	pop	{r7}
10004b60:	46b8      	mov	r8, r7
10004b62:	bdf0      	pop	{r4, r5, r6, r7, pc}
10004b64:	4a08      	ldr	r2, [pc, #32]	@ (10004b88 <dcd_edpt_open+0xfc>)
10004b66:	00c9      	lsls	r1, r1, #3
10004b68:	4690      	mov	r8, r2
10004b6a:	4662      	mov	r2, ip
10004b6c:	4441      	add	r1, r8
10004b6e:	6251      	str	r1, [r2, #36]	@ 0x24
10004b70:	e7c0      	b.n	10004af4 <dcd_edpt_open+0x68>
10004b72:	f7fc fda7 	bl	100016c4 <hard_assertion_failure>
10004b76:	e7d3      	b.n	10004b20 <dcd_edpt_open+0x94>
10004b78:	20001e14 	.word	0x20001e14
10004b7c:	50100084 	.word	0x50100084
10004b80:	50100004 	.word	0x50100004
10004b84:	2000221c 	.word	0x2000221c
10004b88:	50100000 	.word	0x50100000
10004b8c:	50100080 	.word	0x50100080
10004b90:	50100100 	.word	0x50100100

10004b94 <dcd_edpt_close_all>:
10004b94:	b510      	push	{r4, lr}
10004b96:	f002 f83f 	bl	10006c18 <__reset_non_control_endpoints_veneer>
10004b9a:	bd10      	pop	{r4, pc}

10004b9c <dcd_edpt_xfer>:
10004b9c:	b510      	push	{r4, lr}
10004b9e:	207f      	movs	r0, #127	@ 0x7f
10004ba0:	000c      	movs	r4, r1
10004ba2:	4020      	ands	r0, r4
10004ba4:	0040      	lsls	r0, r0, #1
10004ba6:	09e4      	lsrs	r4, r4, #7
10004ba8:	0011      	movs	r1, r2
10004baa:	1900      	adds	r0, r0, r4
10004bac:	001a      	movs	r2, r3
10004bae:	4b03      	ldr	r3, [pc, #12]	@ (10004bbc <dcd_edpt_xfer+0x20>)
10004bb0:	0140      	lsls	r0, r0, #5
10004bb2:	18c0      	adds	r0, r0, r3
10004bb4:	f000 f856 	bl	10004c64 <hw_endpoint_xfer_start>
10004bb8:	2001      	movs	r0, #1
10004bba:	bd10      	pop	{r4, pc}
10004bbc:	20001e14 	.word	0x20001e14

10004bc0 <dcd_edpt_stall>:
10004bc0:	237f      	movs	r3, #127	@ 0x7f
10004bc2:	0018      	movs	r0, r3
10004bc4:	b510      	push	{r4, lr}
10004bc6:	4008      	ands	r0, r1
10004bc8:	09ca      	lsrs	r2, r1, #7
10004bca:	420b      	tst	r3, r1
10004bcc:	d103      	bne.n	10004bd6 <dcd_edpt_stall+0x16>
10004bce:	4907      	ldr	r1, [pc, #28]	@ (10004bec <dcd_edpt_stall+0x2c>)
10004bd0:	3b7d      	subs	r3, #125	@ 0x7d
10004bd2:	1a9b      	subs	r3, r3, r2
10004bd4:	668b      	str	r3, [r1, #104]	@ 0x68
10004bd6:	0040      	lsls	r0, r0, #1
10004bd8:	1880      	adds	r0, r0, r2
10004bda:	2280      	movs	r2, #128	@ 0x80
10004bdc:	4b04      	ldr	r3, [pc, #16]	@ (10004bf0 <dcd_edpt_stall+0x30>)
10004bde:	0140      	lsls	r0, r0, #5
10004be0:	2100      	movs	r1, #0
10004be2:	18c0      	adds	r0, r0, r3
10004be4:	0112      	lsls	r2, r2, #4
10004be6:	f002 f81f 	bl	10006c28 <___hw_endpoint_buffer_control_update32_veneer>
10004bea:	bd10      	pop	{r4, pc}
10004bec:	50112000 	.word	0x50112000
10004bf0:	20001e14 	.word	0x20001e14

10004bf4 <dcd_edpt_clear_stall>:
10004bf4:	227f      	movs	r2, #127	@ 0x7f
10004bf6:	0013      	movs	r3, r2
10004bf8:	b510      	push	{r4, lr}
10004bfa:	400b      	ands	r3, r1
10004bfc:	420a      	tst	r2, r1
10004bfe:	d100      	bne.n	10004c02 <dcd_edpt_clear_stall+0xe>
10004c00:	bd10      	pop	{r4, pc}
10004c02:	09c9      	lsrs	r1, r1, #7
10004c04:	005b      	lsls	r3, r3, #1
10004c06:	185b      	adds	r3, r3, r1
10004c08:	4804      	ldr	r0, [pc, #16]	@ (10004c1c <dcd_edpt_clear_stall+0x28>)
10004c0a:	015b      	lsls	r3, r3, #5
10004c0c:	18c0      	adds	r0, r0, r3
10004c0e:	2300      	movs	r3, #0
10004c10:	2200      	movs	r2, #0
10004c12:	4903      	ldr	r1, [pc, #12]	@ (10004c20 <dcd_edpt_clear_stall+0x2c>)
10004c14:	70c3      	strb	r3, [r0, #3]
10004c16:	f002 f807 	bl	10006c28 <___hw_endpoint_buffer_control_update32_veneer>
10004c1a:	e7f1      	b.n	10004c00 <dcd_edpt_clear_stall+0xc>
10004c1c:	20001e14 	.word	0x20001e14
10004c20:	fffff7ff 	.word	0xfffff7ff

10004c24 <rp2040_usb_init>:
10004c24:	2280      	movs	r2, #128	@ 0x80
10004c26:	4b0a      	ldr	r3, [pc, #40]	@ (10004c50 <rp2040_usb_init+0x2c>)
10004c28:	0452      	lsls	r2, r2, #17
10004c2a:	b510      	push	{r4, lr}
10004c2c:	601a      	str	r2, [r3, #0]
10004c2e:	4b09      	ldr	r3, [pc, #36]	@ (10004c54 <rp2040_usb_init+0x30>)
10004c30:	4909      	ldr	r1, [pc, #36]	@ (10004c58 <rp2040_usb_init+0x34>)
10004c32:	601a      	str	r2, [r3, #0]
10004c34:	0010      	movs	r0, r2
10004c36:	680b      	ldr	r3, [r1, #0]
10004c38:	4398      	bics	r0, r3
10004c3a:	d1fb      	bne.n	10004c34 <rp2040_usb_init+0x10>
10004c3c:	2280      	movs	r2, #128	@ 0x80
10004c3e:	2100      	movs	r1, #0
10004c40:	0152      	lsls	r2, r2, #5
10004c42:	4806      	ldr	r0, [pc, #24]	@ (10004c5c <rp2040_usb_init+0x38>)
10004c44:	f7fd fd0c 	bl	10002660 <__wrap_memset>
10004c48:	2209      	movs	r2, #9
10004c4a:	4b05      	ldr	r3, [pc, #20]	@ (10004c60 <rp2040_usb_init+0x3c>)
10004c4c:	675a      	str	r2, [r3, #116]	@ 0x74
10004c4e:	bd10      	pop	{r4, pc}
10004c50:	4000e000 	.word	0x4000e000
10004c54:	4000f000 	.word	0x4000f000
10004c58:	4000c008 	.word	0x4000c008
10004c5c:	50100000 	.word	0x50100000
10004c60:	50110000 	.word	0x50110000

10004c64 <hw_endpoint_xfer_start>:
10004c64:	2300      	movs	r3, #0
10004c66:	b510      	push	{r4, lr}
10004c68:	82c3      	strh	r3, [r0, #22]
10004c6a:	3301      	adds	r3, #1
10004c6c:	8282      	strh	r2, [r0, #20]
10004c6e:	7683      	strb	r3, [r0, #26]
10004c70:	6101      	str	r1, [r0, #16]
10004c72:	0004      	movs	r4, r0
10004c74:	f001 ff98 	bl	10006ba8 <__e15_is_bulkin_ep_veneer>
10004c78:	2800      	cmp	r0, #0
10004c7a:	d004      	beq.n	10004c86 <hw_endpoint_xfer_start+0x22>
10004c7c:	2180      	movs	r1, #128	@ 0x80
10004c7e:	2390      	movs	r3, #144	@ 0x90
10004c80:	4a07      	ldr	r2, [pc, #28]	@ (10004ca0 <hw_endpoint_xfer_start+0x3c>)
10004c82:	0289      	lsls	r1, r1, #10
10004c84:	50d1      	str	r1, [r2, r3]
10004c86:	0020      	movs	r0, r4
10004c88:	f001 ffbe 	bl	10006c08 <__e15_is_critical_frame_period_veneer>
10004c8c:	2800      	cmp	r0, #0
10004c8e:	d002      	beq.n	10004c96 <hw_endpoint_xfer_start+0x32>
10004c90:	2301      	movs	r3, #1
10004c92:	7723      	strb	r3, [r4, #28]
10004c94:	bd10      	pop	{r4, pc}
10004c96:	0020      	movs	r0, r4
10004c98:	f001 ffae 	bl	10006bf8 <__hw_endpoint_start_next_buffer_veneer>
10004c9c:	e7fa      	b.n	10004c94 <hw_endpoint_xfer_start+0x30>
10004c9e:	46c0      	nop			@ (mov r8, r8)
10004ca0:	50112000 	.word	0x50112000

10004ca4 <tud_event_hook_cb>:
10004ca4:	4770      	bx	lr
10004ca6:	46c0      	nop			@ (mov r8, r8)

10004ca8 <tud_sof_cb>:
10004ca8:	4770      	bx	lr
10004caa:	46c0      	nop			@ (mov r8, r8)

10004cac <tud_descriptor_device_qualifier_cb>:
10004cac:	2000      	movs	r0, #0
10004cae:	4770      	bx	lr

10004cb0 <tud_descriptor_other_speed_configuration_cb>:
10004cb0:	2000      	movs	r0, #0
10004cb2:	4770      	bx	lr

10004cb4 <tud_mount_cb>:
10004cb4:	4770      	bx	lr
10004cb6:	46c0      	nop			@ (mov r8, r8)

10004cb8 <tud_umount_cb>:
10004cb8:	4770      	bx	lr
10004cba:	46c0      	nop			@ (mov r8, r8)

10004cbc <tud_suspend_cb>:
10004cbc:	4770      	bx	lr
10004cbe:	46c0      	nop			@ (mov r8, r8)

10004cc0 <tud_resume_cb>:
10004cc0:	4770      	bx	lr
10004cc2:	46c0      	nop			@ (mov r8, r8)

10004cc4 <tud_mounted>:
10004cc4:	4b02      	ldr	r3, [pc, #8]	@ (10004cd0 <tud_mounted+0xc>)
10004cc6:	7858      	ldrb	r0, [r3, #1]
10004cc8:	1e43      	subs	r3, r0, #1
10004cca:	4198      	sbcs	r0, r3
10004ccc:	b2c0      	uxtb	r0, r0
10004cce:	4770      	bx	lr
10004cd0:	20001b8c 	.word	0x20001b8c

10004cd4 <tud_suspended>:
10004cd4:	4b02      	ldr	r3, [pc, #8]	@ (10004ce0 <tud_suspended+0xc>)
10004cd6:	7818      	ldrb	r0, [r3, #0]
10004cd8:	0740      	lsls	r0, r0, #29
10004cda:	0fc0      	lsrs	r0, r0, #31
10004cdc:	4770      	bx	lr
10004cde:	46c0      	nop			@ (mov r8, r8)
10004ce0:	20001b8c 	.word	0x20001b8c

10004ce4 <tud_init>:
10004ce4:	b5f8      	push	{r3, r4, r5, r6, r7, lr}
10004ce6:	4647      	mov	r7, r8
10004ce8:	46ce      	mov	lr, r9
10004cea:	b580      	push	{r7, lr}
10004cec:	4f2b      	ldr	r7, [pc, #172]	@ (10004d9c <tud_init+0xb8>)
10004cee:	0006      	movs	r6, r0
10004cf0:	783b      	ldrb	r3, [r7, #0]
10004cf2:	2bff      	cmp	r3, #255	@ 0xff
10004cf4:	d004      	beq.n	10004d00 <tud_init+0x1c>
10004cf6:	2001      	movs	r0, #1
10004cf8:	bcc0      	pop	{r6, r7}
10004cfa:	46b9      	mov	r9, r7
10004cfc:	46b0      	mov	r8, r6
10004cfe:	bdf8      	pop	{r3, r4, r5, r6, r7, pc}
10004d00:	2100      	movs	r1, #0
10004d02:	2254      	movs	r2, #84	@ 0x54
10004d04:	4826      	ldr	r0, [pc, #152]	@ (10004da0 <tud_init+0xbc>)
10004d06:	f7fd fcab 	bl	10002660 <__wrap_memset>
10004d0a:	2200      	movs	r2, #0
10004d0c:	4c25      	ldr	r4, [pc, #148]	@ (10004da4 <tud_init+0xc0>)
10004d0e:	4b26      	ldr	r3, [pc, #152]	@ (10004da8 <tud_init+0xc4>)
10004d10:	0020      	movs	r0, r4
10004d12:	701a      	strb	r2, [r3, #0]
10004d14:	f7fb feb6 	bl	10000a84 <mutex_init>
10004d18:	4b24      	ldr	r3, [pc, #144]	@ (10004dac <tud_init+0xc8>)
10004d1a:	601c      	str	r4, [r3, #0]
10004d1c:	4c24      	ldr	r4, [pc, #144]	@ (10004db0 <tud_init+0xcc>)
10004d1e:	0020      	movs	r0, r4
10004d20:	3c14      	subs	r4, #20
10004d22:	f7fb febd 	bl	10000aa0 <critical_section_init>
10004d26:	0020      	movs	r0, r4
10004d28:	f001 fd16 	bl	10006758 <tu_fifo_clear>
10004d2c:	4b21      	ldr	r3, [pc, #132]	@ (10004db4 <tud_init+0xd0>)
10004d2e:	4d22      	ldr	r5, [pc, #136]	@ (10004db8 <tud_init+0xd4>)
10004d30:	601c      	str	r4, [r3, #0]
10004d32:	4b22      	ldr	r3, [pc, #136]	@ (10004dbc <tud_init+0xd8>)
10004d34:	2b00      	cmp	r3, #0
10004d36:	d027      	beq.n	10004d88 <tud_init+0xa4>
10004d38:	0028      	movs	r0, r5
10004d3a:	f7ff facd 	bl	100042d8 <usbd_app_driver_get_cb>
10004d3e:	4b20      	ldr	r3, [pc, #128]	@ (10004dc0 <tud_init+0xdc>)
10004d40:	782a      	ldrb	r2, [r5, #0]
10004d42:	6018      	str	r0, [r3, #0]
10004d44:	491f      	ldr	r1, [pc, #124]	@ (10004dc4 <tud_init+0xe0>)
10004d46:	2400      	movs	r4, #0
10004d48:	4689      	mov	r9, r1
10004d4a:	491d      	ldr	r1, [pc, #116]	@ (10004dc0 <tud_init+0xdc>)
10004d4c:	2300      	movs	r3, #0
10004d4e:	4688      	mov	r8, r1
10004d50:	e010      	b.n	10004d74 <tud_init+0x90>
10004d52:	4643      	mov	r3, r8
10004d54:	681b      	ldr	r3, [r3, #0]
10004d56:	0162      	lsls	r2, r4, #5
10004d58:	189b      	adds	r3, r3, r2
10004d5a:	2b00      	cmp	r3, #0
10004d5c:	d012      	beq.n	10004d84 <tud_init+0xa0>
10004d5e:	685b      	ldr	r3, [r3, #4]
10004d60:	2b00      	cmp	r3, #0
10004d62:	d00f      	beq.n	10004d84 <tud_init+0xa0>
10004d64:	4798      	blx	r3
10004d66:	782a      	ldrb	r2, [r5, #0]
10004d68:	3401      	adds	r4, #1
10004d6a:	b2e4      	uxtb	r4, r4
10004d6c:	1c51      	adds	r1, r2, #1
10004d6e:	0023      	movs	r3, r4
10004d70:	42a1      	cmp	r1, r4
10004d72:	db0b      	blt.n	10004d8c <tud_init+0xa8>
10004d74:	42a2      	cmp	r2, r4
10004d76:	d8ec      	bhi.n	10004d52 <tud_init+0x6e>
10004d78:	1a9b      	subs	r3, r3, r2
10004d7a:	015b      	lsls	r3, r3, #5
10004d7c:	444b      	add	r3, r9
10004d7e:	685b      	ldr	r3, [r3, #4]
10004d80:	2b00      	cmp	r3, #0
10004d82:	d1ef      	bne.n	10004d64 <tud_init+0x80>
10004d84:	2000      	movs	r0, #0
10004d86:	e7b7      	b.n	10004cf8 <tud_init+0x14>
10004d88:	782a      	ldrb	r2, [r5, #0]
10004d8a:	e7db      	b.n	10004d44 <tud_init+0x60>
10004d8c:	0030      	movs	r0, r6
10004d8e:	703e      	strb	r6, [r7, #0]
10004d90:	f7ff fe0a 	bl	100049a8 <dcd_init>
10004d94:	0030      	movs	r0, r6
10004d96:	f7ff fe4d 	bl	10004a34 <dcd_int_enable>
10004d9a:	e7ac      	b.n	10004cf6 <tud_init+0x12>
10004d9c:	20001054 	.word	0x20001054
10004da0:	20001b8c 	.word	0x20001b8c
10004da4:	20001b44 	.word	0x20001b44
10004da8:	20002263 	.word	0x20002263
10004dac:	20001be0 	.word	0x20001be0
10004db0:	2000104c 	.word	0x2000104c
10004db4:	20001be4 	.word	0x20001be4
10004db8:	20002261 	.word	0x20002261
10004dbc:	100042d9 	.word	0x100042d9
10004dc0:	20001860 	.word	0x20001860
10004dc4:	100072c4 	.word	0x100072c4

10004dc8 <tud_task_ext>:
10004dc8:	b5f0      	push	{r4, r5, r6, r7, lr}
10004dca:	46de      	mov	lr, fp
10004dcc:	4657      	mov	r7, sl
10004dce:	464e      	mov	r6, r9
10004dd0:	4645      	mov	r5, r8
10004dd2:	b5e0      	push	{r5, r6, r7, lr}
10004dd4:	4bc8      	ldr	r3, [pc, #800]	@ (100050f8 <tud_task_ext+0x330>)
10004dd6:	b091      	sub	sp, #68	@ 0x44
10004dd8:	9302      	str	r3, [sp, #8]
10004dda:	781b      	ldrb	r3, [r3, #0]
10004ddc:	2bff      	cmp	r3, #255	@ 0xff
10004dde:	d100      	bne.n	10004de2 <tud_task_ext+0x1a>
10004de0:	e13e      	b.n	10005060 <tud_task_ext+0x298>
10004de2:	4bc6      	ldr	r3, [pc, #792]	@ (100050fc <tud_task_ext+0x334>)
10004de4:	4ec6      	ldr	r6, [pc, #792]	@ (10005100 <tud_task_ext+0x338>)
10004de6:	469b      	mov	fp, r3
10004de8:	465f      	mov	r7, fp
10004dea:	4bc6      	ldr	r3, [pc, #792]	@ (10005104 <tud_task_ext+0x33c>)
10004dec:	ac0d      	add	r4, sp, #52	@ 0x34
10004dee:	9301      	str	r3, [sp, #4]
10004df0:	4bc5      	ldr	r3, [pc, #788]	@ (10005108 <tud_task_ext+0x340>)
10004df2:	9300      	str	r3, [sp, #0]
10004df4:	6835      	ldr	r5, [r6, #0]
10004df6:	696a      	ldr	r2, [r5, #20]
10004df8:	f3ef 8110 	mrs	r1, PRIMASK
10004dfc:	b672      	cpsid	i
10004dfe:	6813      	ldr	r3, [r2, #0]
10004e00:	2b00      	cmp	r3, #0
10004e02:	d0fc      	beq.n	10004dfe <tud_task_ext+0x36>
10004e04:	f3bf 8f5f 	dmb	sy
10004e08:	61a9      	str	r1, [r5, #24]
10004e0a:	0028      	movs	r0, r5
10004e0c:	0021      	movs	r1, r4
10004e0e:	f001 fad1 	bl	100063b4 <tu_fifo_read>
10004e12:	696a      	ldr	r2, [r5, #20]
10004e14:	69ab      	ldr	r3, [r5, #24]
10004e16:	f3bf 8f5f 	dmb	sy
10004e1a:	2100      	movs	r1, #0
10004e1c:	6011      	str	r1, [r2, #0]
10004e1e:	f383 8810 	msr	PRIMASK, r3
10004e22:	2800      	cmp	r0, #0
10004e24:	d100      	bne.n	10004e28 <tud_task_ext+0x60>
10004e26:	e11b      	b.n	10005060 <tud_task_ext+0x298>
10004e28:	7863      	ldrb	r3, [r4, #1]
10004e2a:	2b08      	cmp	r3, #8
10004e2c:	d8e2      	bhi.n	10004df4 <tud_task_ext+0x2c>
10004e2e:	009b      	lsls	r3, r3, #2
10004e30:	58fb      	ldr	r3, [r7, r3]
10004e32:	469f      	mov	pc, r3
10004e34:	6863      	ldr	r3, [r4, #4]
10004e36:	2b00      	cmp	r3, #0
10004e38:	d0dc      	beq.n	10004df4 <tud_task_ext+0x2c>
10004e3a:	68a0      	ldr	r0, [r4, #8]
10004e3c:	4798      	blx	r3
10004e3e:	e7d9      	b.n	10004df4 <tud_task_ext+0x2c>
10004e40:	227f      	movs	r2, #127	@ 0x7f
10004e42:	7921      	ldrb	r1, [r4, #4]
10004e44:	4daf      	ldr	r5, [pc, #700]	@ (10005104 <tud_task_ext+0x33c>)
10004e46:	400a      	ands	r2, r1
10004e48:	0053      	lsls	r3, r2, #1
10004e4a:	18eb      	adds	r3, r5, r3
10004e4c:	4698      	mov	r8, r3
10004e4e:	09c8      	lsrs	r0, r1, #7
10004e50:	4480      	add	r8, r0
10004e52:	4640      	mov	r0, r8
10004e54:	2301      	movs	r3, #1
10004e56:	3030      	adds	r0, #48	@ 0x30
10004e58:	7905      	ldrb	r5, [r0, #4]
10004e5a:	439d      	bics	r5, r3
10004e5c:	7105      	strb	r5, [r0, #4]
10004e5e:	7905      	ldrb	r5, [r0, #4]
10004e60:	3303      	adds	r3, #3
10004e62:	439d      	bics	r5, r3
10004e64:	7105      	strb	r5, [r0, #4]
10004e66:	2a00      	cmp	r2, #0
10004e68:	d100      	bne.n	10004e6c <tud_task_ext+0xa4>
10004e6a:	e100      	b.n	1000506e <tud_task_ext+0x2a6>
10004e6c:	4643      	mov	r3, r8
10004e6e:	4aa7      	ldr	r2, [pc, #668]	@ (1000510c <tud_task_ext+0x344>)
10004e70:	7d1b      	ldrb	r3, [r3, #20]
10004e72:	7812      	ldrb	r2, [r2, #0]
10004e74:	4293      	cmp	r3, r2
10004e76:	d300      	bcc.n	10004e7a <tud_task_ext+0xb2>
10004e78:	e0ef      	b.n	1000505a <tud_task_ext+0x292>
10004e7a:	4aa5      	ldr	r2, [pc, #660]	@ (10005110 <tud_task_ext+0x348>)
10004e7c:	015b      	lsls	r3, r3, #5
10004e7e:	6815      	ldr	r5, [r2, #0]
10004e80:	18ed      	adds	r5, r5, r3
10004e82:	2d00      	cmp	r5, #0
10004e84:	d100      	bne.n	10004e88 <tud_task_ext+0xc0>
10004e86:	e0eb      	b.n	10005060 <tud_task_ext+0x298>
10004e88:	68a3      	ldr	r3, [r4, #8]
10004e8a:	7962      	ldrb	r2, [r4, #5]
10004e8c:	7820      	ldrb	r0, [r4, #0]
10004e8e:	69ad      	ldr	r5, [r5, #24]
10004e90:	47a8      	blx	r5
10004e92:	e7af      	b.n	10004df4 <tud_task_ext+0x2c>
10004e94:	4a9f      	ldr	r2, [pc, #636]	@ (10005114 <tud_task_ext+0x34c>)
10004e96:	7813      	ldrb	r3, [r2, #0]
10004e98:	2b00      	cmp	r3, #0
10004e9a:	d100      	bne.n	10004e9e <tud_task_ext+0xd6>
10004e9c:	e0e0      	b.n	10005060 <tud_task_ext+0x298>
10004e9e:	7813      	ldrb	r3, [r2, #0]
10004ea0:	3b01      	subs	r3, #1
10004ea2:	b2db      	uxtb	r3, r3
10004ea4:	7013      	strb	r3, [r2, #0]
10004ea6:	7813      	ldrb	r3, [r2, #0]
10004ea8:	2b00      	cmp	r3, #0
10004eaa:	d1a3      	bne.n	10004df4 <tud_task_ext+0x2c>
10004eac:	2201      	movs	r2, #1
10004eae:	4d95      	ldr	r5, [pc, #596]	@ (10005104 <tud_task_ext+0x33c>)
10004eb0:	2101      	movs	r1, #1
10004eb2:	782b      	ldrb	r3, [r5, #0]
10004eb4:	2004      	movs	r0, #4
10004eb6:	4313      	orrs	r3, r2
10004eb8:	702b      	strb	r3, [r5, #0]
10004eba:	2334      	movs	r3, #52	@ 0x34
10004ebc:	5cea      	ldrb	r2, [r5, r3]
10004ebe:	438a      	bics	r2, r1
10004ec0:	54ea      	strb	r2, [r5, r3]
10004ec2:	5cea      	ldrb	r2, [r5, r3]
10004ec4:	4382      	bics	r2, r0
10004ec6:	54ea      	strb	r2, [r5, r3]
10004ec8:	3301      	adds	r3, #1
10004eca:	5cea      	ldrb	r2, [r5, r3]
10004ecc:	438a      	bics	r2, r1
10004ece:	54ea      	strb	r2, [r5, r3]
10004ed0:	5cea      	ldrb	r2, [r5, r3]
10004ed2:	4382      	bics	r2, r0
10004ed4:	54ea      	strb	r2, [r5, r3]
10004ed6:	7823      	ldrb	r3, [r4, #0]
10004ed8:	2000      	movs	r0, #0
10004eda:	469b      	mov	fp, r3
10004edc:	f000 fca0 	bl	10005820 <usbd_control_set_complete_callback>
10004ee0:	2260      	movs	r2, #96	@ 0x60
10004ee2:	7923      	ldrb	r3, [r4, #4]
10004ee4:	401a      	ands	r2, r3
10004ee6:	2a60      	cmp	r2, #96	@ 0x60
10004ee8:	d100      	bne.n	10004eec <tud_task_ext+0x124>
10004eea:	e0ef      	b.n	100050cc <tud_task_ext+0x304>
10004eec:	2a40      	cmp	r2, #64	@ 0x40
10004eee:	d100      	bne.n	10004ef2 <tud_task_ext+0x12a>
10004ef0:	e0f5      	b.n	100050de <tud_task_ext+0x316>
10004ef2:	06db      	lsls	r3, r3, #27
10004ef4:	0edb      	lsrs	r3, r3, #27
10004ef6:	2b01      	cmp	r3, #1
10004ef8:	d100      	bne.n	10004efc <tud_task_ext+0x134>
10004efa:	e113      	b.n	10005124 <tud_task_ext+0x35c>
10004efc:	2b02      	cmp	r3, #2
10004efe:	d100      	bne.n	10004f02 <tud_task_ext+0x13a>
10004f00:	e0c7      	b.n	10005092 <tud_task_ext+0x2ca>
10004f02:	2b00      	cmp	r3, #0
10004f04:	d000      	beq.n	10004f08 <tud_task_ext+0x140>
10004f06:	e0e1      	b.n	100050cc <tud_task_ext+0x304>
10004f08:	2a20      	cmp	r2, #32
10004f0a:	d100      	bne.n	10004f0e <tud_task_ext+0x146>
10004f0c:	e21c      	b.n	10005348 <tud_task_ext+0x580>
10004f0e:	2a00      	cmp	r2, #0
10004f10:	d000      	beq.n	10004f14 <tud_task_ext+0x14c>
10004f12:	e0db      	b.n	100050cc <tud_task_ext+0x304>
10004f14:	7963      	ldrb	r3, [r4, #5]
10004f16:	2b09      	cmp	r3, #9
10004f18:	d900      	bls.n	10004f1c <tud_task_ext+0x154>
10004f1a:	e0d7      	b.n	100050cc <tud_task_ext+0x304>
10004f1c:	4a7e      	ldr	r2, [pc, #504]	@ (10005118 <tud_task_ext+0x350>)
10004f1e:	009b      	lsls	r3, r3, #2
10004f20:	58d3      	ldr	r3, [r2, r3]
10004f22:	469f      	mov	pc, r3
10004f24:	4d77      	ldr	r5, [pc, #476]	@ (10005104 <tud_task_ext+0x33c>)
10004f26:	782b      	ldrb	r3, [r5, #0]
10004f28:	07db      	lsls	r3, r3, #31
10004f2a:	d400      	bmi.n	10004f2e <tud_task_ext+0x166>
10004f2c:	e762      	b.n	10004df4 <tud_task_ext+0x2c>
10004f2e:	f7ff fec7 	bl	10004cc0 <tud_resume_cb>
10004f32:	e75f      	b.n	10004df4 <tud_task_ext+0x2c>
10004f34:	9b01      	ldr	r3, [sp, #4]
10004f36:	78db      	ldrb	r3, [r3, #3]
10004f38:	07db      	lsls	r3, r3, #31
10004f3a:	d400      	bmi.n	10004f3e <tud_task_ext+0x176>
10004f3c:	e75a      	b.n	10004df4 <tud_task_ext+0x2c>
10004f3e:	6860      	ldr	r0, [r4, #4]
10004f40:	f7ff feb2 	bl	10004ca8 <tud_sof_cb>
10004f44:	e756      	b.n	10004df4 <tud_task_ext+0x2c>
10004f46:	4d6f      	ldr	r5, [pc, #444]	@ (10005104 <tud_task_ext+0x33c>)
10004f48:	782b      	ldrb	r3, [r5, #0]
10004f4a:	07db      	lsls	r3, r3, #31
10004f4c:	d400      	bmi.n	10004f50 <tud_task_ext+0x188>
10004f4e:	e751      	b.n	10004df4 <tud_task_ext+0x2c>
10004f50:	7828      	ldrb	r0, [r5, #0]
10004f52:	0700      	lsls	r0, r0, #28
10004f54:	0fc0      	lsrs	r0, r0, #31
10004f56:	f7ff feb1 	bl	10004cbc <tud_suspend_cb>
10004f5a:	e74b      	b.n	10004df4 <tud_task_ext+0x2c>
10004f5c:	7823      	ldrb	r3, [r4, #0]
10004f5e:	496a      	ldr	r1, [pc, #424]	@ (10005108 <tud_task_ext+0x340>)
10004f60:	4699      	mov	r9, r3
10004f62:	468b      	mov	fp, r1
10004f64:	4b69      	ldr	r3, [pc, #420]	@ (1000510c <tud_task_ext+0x344>)
10004f66:	496a      	ldr	r1, [pc, #424]	@ (10005110 <tud_task_ext+0x348>)
10004f68:	4698      	mov	r8, r3
10004f6a:	468a      	mov	sl, r1
10004f6c:	0039      	movs	r1, r7
10004f6e:	781a      	ldrb	r2, [r3, #0]
10004f70:	4647      	mov	r7, r8
10004f72:	2300      	movs	r3, #0
10004f74:	46b0      	mov	r8, r6
10004f76:	2500      	movs	r5, #0
10004f78:	464e      	mov	r6, r9
10004f7a:	4689      	mov	r9, r1
10004f7c:	e010      	b.n	10004fa0 <tud_task_ext+0x1d8>
10004f7e:	4653      	mov	r3, sl
10004f80:	681b      	ldr	r3, [r3, #0]
10004f82:	016a      	lsls	r2, r5, #5
10004f84:	189b      	adds	r3, r3, r2
10004f86:	2b00      	cmp	r3, #0
10004f88:	d100      	bne.n	10004f8c <tud_task_ext+0x1c4>
10004f8a:	e076      	b.n	1000507a <tud_task_ext+0x2b2>
10004f8c:	68db      	ldr	r3, [r3, #12]
10004f8e:	0030      	movs	r0, r6
10004f90:	4798      	blx	r3
10004f92:	783a      	ldrb	r2, [r7, #0]
10004f94:	3501      	adds	r5, #1
10004f96:	b2ed      	uxtb	r5, r5
10004f98:	1c51      	adds	r1, r2, #1
10004f9a:	002b      	movs	r3, r5
10004f9c:	428d      	cmp	r5, r1
10004f9e:	dc44      	bgt.n	1000502a <tud_task_ext+0x262>
10004fa0:	4295      	cmp	r5, r2
10004fa2:	d3ec      	bcc.n	10004f7e <tud_task_ext+0x1b6>
10004fa4:	1a9b      	subs	r3, r3, r2
10004fa6:	015b      	lsls	r3, r3, #5
10004fa8:	445b      	add	r3, fp
10004faa:	e7ef      	b.n	10004f8c <tud_task_ext+0x1c4>
10004fac:	7823      	ldrb	r3, [r4, #0]
10004fae:	4958      	ldr	r1, [pc, #352]	@ (10005110 <tud_task_ext+0x348>)
10004fb0:	4699      	mov	r9, r3
10004fb2:	4b56      	ldr	r3, [pc, #344]	@ (1000510c <tud_task_ext+0x344>)
10004fb4:	468a      	mov	sl, r1
10004fb6:	4698      	mov	r8, r3
10004fb8:	0031      	movs	r1, r6
10004fba:	46bb      	mov	fp, r7
10004fbc:	464e      	mov	r6, r9
10004fbe:	781a      	ldrb	r2, [r3, #0]
10004fc0:	2500      	movs	r5, #0
10004fc2:	2300      	movs	r3, #0
10004fc4:	4647      	mov	r7, r8
10004fc6:	4689      	mov	r9, r1
10004fc8:	e00f      	b.n	10004fea <tud_task_ext+0x222>
10004fca:	4653      	mov	r3, sl
10004fcc:	681b      	ldr	r3, [r3, #0]
10004fce:	016a      	lsls	r2, r5, #5
10004fd0:	189b      	adds	r3, r3, r2
10004fd2:	2b00      	cmp	r3, #0
10004fd4:	d055      	beq.n	10005082 <tud_task_ext+0x2ba>
10004fd6:	68db      	ldr	r3, [r3, #12]
10004fd8:	0030      	movs	r0, r6
10004fda:	4798      	blx	r3
10004fdc:	783a      	ldrb	r2, [r7, #0]
10004fde:	3501      	adds	r5, #1
10004fe0:	b2ed      	uxtb	r5, r5
10004fe2:	1c51      	adds	r1, r2, #1
10004fe4:	002b      	movs	r3, r5
10004fe6:	428d      	cmp	r5, r1
10004fe8:	dc07      	bgt.n	10004ffa <tud_task_ext+0x232>
10004fea:	4295      	cmp	r5, r2
10004fec:	d3ed      	bcc.n	10004fca <tud_task_ext+0x202>
10004fee:	1a9b      	subs	r3, r3, r2
10004ff0:	9a00      	ldr	r2, [sp, #0]
10004ff2:	015b      	lsls	r3, r3, #5
10004ff4:	4694      	mov	ip, r2
10004ff6:	4463      	add	r3, ip
10004ff8:	e7ed      	b.n	10004fd6 <tud_task_ext+0x20e>
10004ffa:	9d01      	ldr	r5, [sp, #4]
10004ffc:	2254      	movs	r2, #84	@ 0x54
10004ffe:	2100      	movs	r1, #0
10005000:	0028      	movs	r0, r5
10005002:	f7fd fb2d 	bl	10002660 <__wrap_memset>
10005006:	2210      	movs	r2, #16
10005008:	21ff      	movs	r1, #255	@ 0xff
1000500a:	4844      	ldr	r0, [pc, #272]	@ (1000511c <tud_task_ext+0x354>)
1000500c:	f7fd fb28 	bl	10002660 <__wrap_memset>
10005010:	0028      	movs	r0, r5
10005012:	2220      	movs	r2, #32
10005014:	21ff      	movs	r1, #255	@ 0xff
10005016:	3014      	adds	r0, #20
10005018:	464e      	mov	r6, r9
1000501a:	465f      	mov	r7, fp
1000501c:	f7fd fb20 	bl	10002660 <__wrap_memset>
10005020:	f000 fbf4 	bl	1000580c <usbd_control_reset>
10005024:	f7ff fe48 	bl	10004cb8 <tud_umount_cb>
10005028:	e6e4      	b.n	10004df4 <tud_task_ext+0x2c>
1000502a:	4d36      	ldr	r5, [pc, #216]	@ (10005104 <tud_task_ext+0x33c>)
1000502c:	2254      	movs	r2, #84	@ 0x54
1000502e:	2100      	movs	r1, #0
10005030:	0028      	movs	r0, r5
10005032:	f7fd fb15 	bl	10002660 <__wrap_memset>
10005036:	2210      	movs	r2, #16
10005038:	21ff      	movs	r1, #255	@ 0xff
1000503a:	1d28      	adds	r0, r5, #4
1000503c:	f7fd fb10 	bl	10002660 <__wrap_memset>
10005040:	0028      	movs	r0, r5
10005042:	2220      	movs	r2, #32
10005044:	21ff      	movs	r1, #255	@ 0xff
10005046:	3014      	adds	r0, #20
10005048:	4646      	mov	r6, r8
1000504a:	464f      	mov	r7, r9
1000504c:	f7fd fb08 	bl	10002660 <__wrap_memset>
10005050:	f000 fbdc 	bl	1000580c <usbd_control_reset>
10005054:	7923      	ldrb	r3, [r4, #4]
10005056:	70ab      	strb	r3, [r5, #2]
10005058:	e6cc      	b.n	10004df4 <tud_task_ext+0x2c>
1000505a:	1c50      	adds	r0, r2, #1
1000505c:	4298      	cmp	r0, r3
1000505e:	da13      	bge.n	10005088 <tud_task_ext+0x2c0>
10005060:	b011      	add	sp, #68	@ 0x44
10005062:	bcf0      	pop	{r4, r5, r6, r7}
10005064:	46bb      	mov	fp, r7
10005066:	46b2      	mov	sl, r6
10005068:	46a9      	mov	r9, r5
1000506a:	46a0      	mov	r8, r4
1000506c:	bdf0      	pop	{r4, r5, r6, r7, pc}
1000506e:	68a3      	ldr	r3, [r4, #8]
10005070:	7962      	ldrb	r2, [r4, #5]
10005072:	7820      	ldrb	r0, [r4, #0]
10005074:	f000 fbe8 	bl	10005848 <usbd_control_xfer_cb>
10005078:	e6bc      	b.n	10004df4 <tud_task_ext+0x2c>
1000507a:	4646      	mov	r6, r8
1000507c:	464f      	mov	r7, r9
1000507e:	4d21      	ldr	r5, [pc, #132]	@ (10005104 <tud_task_ext+0x33c>)
10005080:	e7e6      	b.n	10005050 <tud_task_ext+0x288>
10005082:	464e      	mov	r6, r9
10005084:	465f      	mov	r7, fp
10005086:	e7cb      	b.n	10005020 <tud_task_ext+0x258>
10005088:	4d1f      	ldr	r5, [pc, #124]	@ (10005108 <tud_task_ext+0x340>)
1000508a:	1a9b      	subs	r3, r3, r2
1000508c:	015b      	lsls	r3, r3, #5
1000508e:	195d      	adds	r5, r3, r5
10005090:	e6fa      	b.n	10004e88 <tud_task_ext+0xc0>
10005092:	2370      	movs	r3, #112	@ 0x70
10005094:	7a21      	ldrb	r1, [r4, #8]
10005096:	420b      	tst	r3, r1
10005098:	d118      	bne.n	100050cc <tud_task_ext+0x304>
1000509a:	09c8      	lsrs	r0, r1, #7
1000509c:	4682      	mov	sl, r0
1000509e:	330f      	adds	r3, #15
100050a0:	400b      	ands	r3, r1
100050a2:	005b      	lsls	r3, r3, #1
100050a4:	4698      	mov	r8, r3
100050a6:	4819      	ldr	r0, [pc, #100]	@ (1000510c <tud_task_ext+0x344>)
100050a8:	18eb      	adds	r3, r5, r3
100050aa:	4453      	add	r3, sl
100050ac:	7d1b      	ldrb	r3, [r3, #20]
100050ae:	7800      	ldrb	r0, [r0, #0]
100050b0:	4699      	mov	r9, r3
100050b2:	4283      	cmp	r3, r0
100050b4:	d266      	bcs.n	10005184 <tud_task_ext+0x3bc>
100050b6:	4816      	ldr	r0, [pc, #88]	@ (10005110 <tud_task_ext+0x348>)
100050b8:	015b      	lsls	r3, r3, #5
100050ba:	6800      	ldr	r0, [r0, #0]
100050bc:	4681      	mov	r9, r0
100050be:	4499      	add	r9, r3
100050c0:	2a00      	cmp	r2, #0
100050c2:	d100      	bne.n	100050c6 <tud_task_ext+0x2fe>
100050c4:	e15f      	b.n	10005386 <tud_task_ext+0x5be>
100050c6:	464b      	mov	r3, r9
100050c8:	2b00      	cmp	r3, #0
100050ca:	d168      	bne.n	1000519e <tud_task_ext+0x3d6>
100050cc:	7820      	ldrb	r0, [r4, #0]
100050ce:	2100      	movs	r1, #0
100050d0:	f7ff fd76 	bl	10004bc0 <dcd_edpt_stall>
100050d4:	2180      	movs	r1, #128	@ 0x80
100050d6:	7820      	ldrb	r0, [r4, #0]
100050d8:	f7ff fd72 	bl	10004bc0 <dcd_edpt_stall>
100050dc:	e68a      	b.n	10004df4 <tud_task_ext+0x2c>
100050de:	4810      	ldr	r0, [pc, #64]	@ (10005120 <tud_task_ext+0x358>)
100050e0:	f000 fb9e 	bl	10005820 <usbd_control_set_complete_callback>
100050e4:	2101      	movs	r1, #1
100050e6:	4658      	mov	r0, fp
100050e8:	aa0e      	add	r2, sp, #56	@ 0x38
100050ea:	f7ff f8db 	bl	100042a4 <tud_vendor_control_xfer_cb>
100050ee:	2800      	cmp	r0, #0
100050f0:	d000      	beq.n	100050f4 <tud_task_ext+0x32c>
100050f2:	e67f      	b.n	10004df4 <tud_task_ext+0x2c>
100050f4:	e7ea      	b.n	100050cc <tud_task_ext+0x304>
100050f6:	46c0      	nop			@ (mov r8, r8)
100050f8:	20001054 	.word	0x20001054
100050fc:	1000721c 	.word	0x1000721c
10005100:	20001be4 	.word	0x20001be4
10005104:	20001b8c 	.word	0x20001b8c
10005108:	100072c4 	.word	0x100072c4
1000510c:	20002261 	.word	0x20002261
10005110:	20001860 	.word	0x20001860
10005114:	20002263 	.word	0x20002263
10005118:	10007240 	.word	0x10007240
1000511c:	20001b90 	.word	0x20001b90
10005120:	100042a5 	.word	0x100042a5
10005124:	7a23      	ldrb	r3, [r4, #8]
10005126:	2b0f      	cmp	r3, #15
10005128:	d8d0      	bhi.n	100050cc <tud_task_ext+0x304>
1000512a:	4acf      	ldr	r2, [pc, #828]	@ (10005468 <tud_task_ext+0x6a0>)
1000512c:	18eb      	adds	r3, r5, r3
1000512e:	791b      	ldrb	r3, [r3, #4]
10005130:	7815      	ldrb	r5, [r2, #0]
10005132:	42ab      	cmp	r3, r5
10005134:	d33e      	bcc.n	100051b4 <tud_task_ext+0x3ec>
10005136:	1c69      	adds	r1, r5, #1
10005138:	4299      	cmp	r1, r3
1000513a:	dbc7      	blt.n	100050cc <tud_task_ext+0x304>
1000513c:	1b5d      	subs	r5, r3, r5
1000513e:	4bcb      	ldr	r3, [pc, #812]	@ (1000546c <tud_task_ext+0x6a4>)
10005140:	016d      	lsls	r5, r5, #5
10005142:	18ed      	adds	r5, r5, r3
10005144:	6968      	ldr	r0, [r5, #20]
10005146:	f000 fb6b 	bl	10005820 <usbd_control_set_complete_callback>
1000514a:	2101      	movs	r1, #1
1000514c:	4658      	mov	r0, fp
1000514e:	696b      	ldr	r3, [r5, #20]
10005150:	aa0e      	add	r2, sp, #56	@ 0x38
10005152:	4798      	blx	r3
10005154:	2800      	cmp	r0, #0
10005156:	d000      	beq.n	1000515a <tud_task_ext+0x392>
10005158:	e64c      	b.n	10004df4 <tud_task_ext+0x2c>
1000515a:	2260      	movs	r2, #96	@ 0x60
1000515c:	0015      	movs	r5, r2
1000515e:	7923      	ldrb	r3, [r4, #4]
10005160:	401d      	ands	r5, r3
10005162:	421a      	tst	r2, r3
10005164:	d1b2      	bne.n	100050cc <tud_task_ext+0x304>
10005166:	7963      	ldrb	r3, [r4, #5]
10005168:	3b0a      	subs	r3, #10
1000516a:	2b01      	cmp	r3, #1
1000516c:	d8ae      	bhi.n	100050cc <tud_task_ext+0x304>
1000516e:	f000 fb57 	bl	10005820 <usbd_control_set_complete_callback>
10005172:	7963      	ldrb	r3, [r4, #5]
10005174:	2b0a      	cmp	r3, #10
10005176:	d100      	bne.n	1000517a <tud_task_ext+0x3b2>
10005178:	e199      	b.n	100054ae <tud_task_ext+0x6e6>
1000517a:	4658      	mov	r0, fp
1000517c:	a90e      	add	r1, sp, #56	@ 0x38
1000517e:	f000 fad9 	bl	10005734 <tud_control_status>
10005182:	e637      	b.n	10004df4 <tud_task_ext+0x2c>
10005184:	1c43      	adds	r3, r0, #1
10005186:	454b      	cmp	r3, r9
10005188:	da00      	bge.n	1000518c <tud_task_ext+0x3c4>
1000518a:	e0f7      	b.n	1000537c <tud_task_ext+0x5b4>
1000518c:	464b      	mov	r3, r9
1000518e:	1a1b      	subs	r3, r3, r0
10005190:	015b      	lsls	r3, r3, #5
10005192:	4699      	mov	r9, r3
10005194:	48b5      	ldr	r0, [pc, #724]	@ (1000546c <tud_task_ext+0x6a4>)
10005196:	4481      	add	r9, r0
10005198:	2a00      	cmp	r2, #0
1000519a:	d100      	bne.n	1000519e <tud_task_ext+0x3d6>
1000519c:	e0f3      	b.n	10005386 <tud_task_ext+0x5be>
1000519e:	464b      	mov	r3, r9
100051a0:	6958      	ldr	r0, [r3, #20]
100051a2:	f000 fb3d 	bl	10005820 <usbd_control_set_complete_callback>
100051a6:	464b      	mov	r3, r9
100051a8:	2101      	movs	r1, #1
100051aa:	4658      	mov	r0, fp
100051ac:	695b      	ldr	r3, [r3, #20]
100051ae:	aa0e      	add	r2, sp, #56	@ 0x38
100051b0:	4798      	blx	r3
100051b2:	e79c      	b.n	100050ee <tud_task_ext+0x326>
100051b4:	4aae      	ldr	r2, [pc, #696]	@ (10005470 <tud_task_ext+0x6a8>)
100051b6:	015b      	lsls	r3, r3, #5
100051b8:	6815      	ldr	r5, [r2, #0]
100051ba:	18ed      	adds	r5, r5, r3
100051bc:	2d00      	cmp	r5, #0
100051be:	d1c1      	bne.n	10005144 <tud_task_ext+0x37c>
100051c0:	e784      	b.n	100050cc <tud_task_ext+0x304>
100051c2:	79a3      	ldrb	r3, [r4, #6]
100051c4:	4699      	mov	r9, r3
100051c6:	786b      	ldrb	r3, [r5, #1]
100051c8:	4599      	cmp	r9, r3
100051ca:	d0d6      	beq.n	1000517a <tud_task_ext+0x3b2>
100051cc:	786b      	ldrb	r3, [r5, #1]
100051ce:	2b00      	cmp	r3, #0
100051d0:	d000      	beq.n	100051d4 <tud_task_ext+0x40c>
100051d2:	e133      	b.n	1000543c <tud_task_ext+0x674>
100051d4:	464b      	mov	r3, r9
100051d6:	706b      	strb	r3, [r5, #1]
100051d8:	2b00      	cmp	r3, #0
100051da:	d100      	bne.n	100051de <tud_task_ext+0x416>
100051dc:	e12b      	b.n	10005436 <tud_task_ext+0x66e>
100051de:	4648      	mov	r0, r9
100051e0:	3801      	subs	r0, #1
100051e2:	b2c0      	uxtb	r0, r0
100051e4:	f7ff faa6 	bl	10004734 <tud_descriptor_configuration_cb>
100051e8:	2800      	cmp	r0, #0
100051ea:	d100      	bne.n	100051ee <tud_task_ext+0x426>
100051ec:	e17e      	b.n	100054ec <tud_task_ext+0x724>
100051ee:	7843      	ldrb	r3, [r0, #1]
100051f0:	9307      	str	r3, [sp, #28]
100051f2:	2b02      	cmp	r3, #2
100051f4:	d000      	beq.n	100051f8 <tud_task_ext+0x430>
100051f6:	e179      	b.n	100054ec <tud_task_ext+0x724>
100051f8:	2201      	movs	r2, #1
100051fa:	79c1      	ldrb	r1, [r0, #7]
100051fc:	46b1      	mov	r9, r6
100051fe:	118b      	asrs	r3, r1, #6
10005200:	1149      	asrs	r1, r1, #5
10005202:	4013      	ands	r3, r2
10005204:	400a      	ands	r2, r1
10005206:	2130      	movs	r1, #48	@ 0x30
10005208:	0112      	lsls	r2, r2, #4
1000520a:	015b      	lsls	r3, r3, #5
1000520c:	4313      	orrs	r3, r2
1000520e:	782a      	ldrb	r2, [r5, #0]
10005210:	46a8      	mov	r8, r5
10005212:	438a      	bics	r2, r1
10005214:	4313      	orrs	r3, r2
10005216:	702b      	strb	r3, [r5, #0]
10005218:	2309      	movs	r3, #9
1000521a:	469a      	mov	sl, r3
1000521c:	4482      	add	sl, r0
1000521e:	4656      	mov	r6, sl
10005220:	46ba      	mov	sl, r7
10005222:	78c3      	ldrb	r3, [r0, #3]
10005224:	7882      	ldrb	r2, [r0, #2]
10005226:	021b      	lsls	r3, r3, #8
10005228:	4313      	orrs	r3, r2
1000522a:	18c3      	adds	r3, r0, r3
1000522c:	9305      	str	r3, [sp, #20]
1000522e:	4b8e      	ldr	r3, [pc, #568]	@ (10005468 <tud_task_ext+0x6a0>)
10005230:	9304      	str	r3, [sp, #16]
10005232:	4b8e      	ldr	r3, [pc, #568]	@ (1000546c <tud_task_ext+0x6a4>)
10005234:	9308      	str	r3, [sp, #32]
10005236:	4b8e      	ldr	r3, [pc, #568]	@ (10005470 <tud_task_ext+0x6a8>)
10005238:	9309      	str	r3, [sp, #36]	@ 0x24
1000523a:	4b8e      	ldr	r3, [pc, #568]	@ (10005474 <tud_task_ext+0x6ac>)
1000523c:	930a      	str	r3, [sp, #40]	@ 0x28
1000523e:	9b05      	ldr	r3, [sp, #20]
10005240:	42b3      	cmp	r3, r6
10005242:	d800      	bhi.n	10005246 <tud_task_ext+0x47e>
10005244:	e155      	b.n	100054f2 <tud_task_ext+0x72a>
10005246:	7873      	ldrb	r3, [r6, #1]
10005248:	2201      	movs	r2, #1
1000524a:	2b0b      	cmp	r3, #11
1000524c:	d103      	bne.n	10005256 <tud_task_ext+0x48e>
1000524e:	7833      	ldrb	r3, [r6, #0]
10005250:	78f2      	ldrb	r2, [r6, #3]
10005252:	18f6      	adds	r6, r6, r3
10005254:	7873      	ldrb	r3, [r6, #1]
10005256:	2b04      	cmp	r3, #4
10005258:	d000      	beq.n	1000525c <tud_task_ext+0x494>
1000525a:	e144      	b.n	100054e6 <tud_task_ext+0x71e>
1000525c:	9b05      	ldr	r3, [sp, #20]
1000525e:	2700      	movs	r7, #0
10005260:	1b9b      	subs	r3, r3, r6
10005262:	b29b      	uxth	r3, r3
10005264:	9306      	str	r3, [sp, #24]
10005266:	9b04      	ldr	r3, [sp, #16]
10005268:	920b      	str	r2, [sp, #44]	@ 0x2c
1000526a:	781d      	ldrb	r5, [r3, #0]
1000526c:	2300      	movs	r3, #0
1000526e:	9303      	str	r3, [sp, #12]
10005270:	e01b      	b.n	100052aa <tud_task_ext+0x4e2>
10005272:	9a09      	ldr	r2, [sp, #36]	@ 0x24
10005274:	017b      	lsls	r3, r7, #5
10005276:	6815      	ldr	r5, [r2, #0]
10005278:	18ed      	adds	r5, r5, r3
1000527a:	2d00      	cmp	r5, #0
1000527c:	d100      	bne.n	10005280 <tud_task_ext+0x4b8>
1000527e:	e132      	b.n	100054e6 <tud_task_ext+0x71e>
10005280:	0031      	movs	r1, r6
10005282:	4658      	mov	r0, fp
10005284:	692b      	ldr	r3, [r5, #16]
10005286:	9a06      	ldr	r2, [sp, #24]
10005288:	4798      	blx	r3
1000528a:	4684      	mov	ip, r0
1000528c:	2808      	cmp	r0, #8
1000528e:	d903      	bls.n	10005298 <tud_task_ext+0x4d0>
10005290:	9a06      	ldr	r2, [sp, #24]
10005292:	4282      	cmp	r2, r0
10005294:	d300      	bcc.n	10005298 <tud_task_ext+0x4d0>
10005296:	e113      	b.n	100054c0 <tud_task_ext+0x6f8>
10005298:	9b04      	ldr	r3, [sp, #16]
1000529a:	3701      	adds	r7, #1
1000529c:	781d      	ldrb	r5, [r3, #0]
1000529e:	b2ff      	uxtb	r7, r7
100052a0:	1c6b      	adds	r3, r5, #1
100052a2:	9703      	str	r7, [sp, #12]
100052a4:	429f      	cmp	r7, r3
100052a6:	dd00      	ble.n	100052aa <tud_task_ext+0x4e2>
100052a8:	e11d      	b.n	100054e6 <tud_task_ext+0x71e>
100052aa:	42bd      	cmp	r5, r7
100052ac:	d8e1      	bhi.n	10005272 <tud_task_ext+0x4aa>
100052ae:	9b03      	ldr	r3, [sp, #12]
100052b0:	1b5d      	subs	r5, r3, r5
100052b2:	9b08      	ldr	r3, [sp, #32]
100052b4:	016d      	lsls	r5, r5, #5
100052b6:	469c      	mov	ip, r3
100052b8:	4465      	add	r5, ip
100052ba:	e7e1      	b.n	10005280 <tud_task_ext+0x4b8>
100052bc:	786b      	ldrb	r3, [r5, #1]
100052be:	aa0c      	add	r2, sp, #48	@ 0x30
100052c0:	3202      	adds	r2, #2
100052c2:	7013      	strb	r3, [r2, #0]
100052c4:	4658      	mov	r0, fp
100052c6:	2301      	movs	r3, #1
100052c8:	a90e      	add	r1, sp, #56	@ 0x38
100052ca:	f000 fa49 	bl	10005760 <tud_control_xfer>
100052ce:	e591      	b.n	10004df4 <tud_task_ext+0x2c>
100052d0:	88e3      	ldrh	r3, [r4, #6]
100052d2:	0a1a      	lsrs	r2, r3, #8
100052d4:	b2d8      	uxtb	r0, r3
100052d6:	2a0f      	cmp	r2, #15
100052d8:	d900      	bls.n	100052dc <tud_task_ext+0x514>
100052da:	e6f7      	b.n	100050cc <tud_task_ext+0x304>
100052dc:	4966      	ldr	r1, [pc, #408]	@ (10005478 <tud_task_ext+0x6b0>)
100052de:	0093      	lsls	r3, r2, #2
100052e0:	58cb      	ldr	r3, [r1, r3]
100052e2:	469f      	mov	pc, r3
100052e4:	a80e      	add	r0, sp, #56	@ 0x38
100052e6:	f000 faa1 	bl	1000582c <usbd_control_set_request>
100052ea:	4658      	mov	r0, fp
100052ec:	79a1      	ldrb	r1, [r4, #6]
100052ee:	f7ff fba7 	bl	10004a40 <dcd_set_address>
100052f2:	2202      	movs	r2, #2
100052f4:	782b      	ldrb	r3, [r5, #0]
100052f6:	4313      	orrs	r3, r2
100052f8:	702b      	strb	r3, [r5, #0]
100052fa:	e57b      	b.n	10004df4 <tud_task_ext+0x2c>
100052fc:	88e3      	ldrh	r3, [r4, #6]
100052fe:	2b01      	cmp	r3, #1
10005300:	d000      	beq.n	10005304 <tud_task_ext+0x53c>
10005302:	e6e3      	b.n	100050cc <tud_task_ext+0x304>
10005304:	2208      	movs	r2, #8
10005306:	782b      	ldrb	r3, [r5, #0]
10005308:	4658      	mov	r0, fp
1000530a:	4393      	bics	r3, r2
1000530c:	a90e      	add	r1, sp, #56	@ 0x38
1000530e:	702b      	strb	r3, [r5, #0]
10005310:	f000 fa10 	bl	10005734 <tud_control_status>
10005314:	e56e      	b.n	10004df4 <tud_task_ext+0x2c>
10005316:	2002      	movs	r0, #2
10005318:	7829      	ldrb	r1, [r5, #0]
1000531a:	ab0c      	add	r3, sp, #48	@ 0x30
1000531c:	1c9a      	adds	r2, r3, #2
1000531e:	068b      	lsls	r3, r1, #26
10005320:	0889      	lsrs	r1, r1, #2
10005322:	0fdb      	lsrs	r3, r3, #31
10005324:	4001      	ands	r1, r0
10005326:	430b      	orrs	r3, r1
10005328:	8013      	strh	r3, [r2, #0]
1000532a:	4658      	mov	r0, fp
1000532c:	2302      	movs	r3, #2
1000532e:	a90e      	add	r1, sp, #56	@ 0x38
10005330:	f000 fa16 	bl	10005760 <tud_control_xfer>
10005334:	e55e      	b.n	10004df4 <tud_task_ext+0x2c>
10005336:	88e3      	ldrh	r3, [r4, #6]
10005338:	2b01      	cmp	r3, #1
1000533a:	d000      	beq.n	1000533e <tud_task_ext+0x576>
1000533c:	e6c6      	b.n	100050cc <tud_task_ext+0x304>
1000533e:	2208      	movs	r2, #8
10005340:	782b      	ldrb	r3, [r5, #0]
10005342:	4313      	orrs	r3, r2
10005344:	702b      	strb	r3, [r5, #0]
10005346:	e718      	b.n	1000517a <tud_task_ext+0x3b2>
10005348:	7a23      	ldrb	r3, [r4, #8]
1000534a:	2b0f      	cmp	r3, #15
1000534c:	d900      	bls.n	10005350 <tud_task_ext+0x588>
1000534e:	e6bd      	b.n	100050cc <tud_task_ext+0x304>
10005350:	18eb      	adds	r3, r5, r3
10005352:	791d      	ldrb	r5, [r3, #4]
10005354:	4b44      	ldr	r3, [pc, #272]	@ (10005468 <tud_task_ext+0x6a0>)
10005356:	781b      	ldrb	r3, [r3, #0]
10005358:	429d      	cmp	r5, r3
1000535a:	d228      	bcs.n	100053ae <tud_task_ext+0x5e6>
1000535c:	4b44      	ldr	r3, [pc, #272]	@ (10005470 <tud_task_ext+0x6a8>)
1000535e:	016d      	lsls	r5, r5, #5
10005360:	681b      	ldr	r3, [r3, #0]
10005362:	195d      	adds	r5, r3, r5
10005364:	2d00      	cmp	r5, #0
10005366:	d100      	bne.n	1000536a <tud_task_ext+0x5a2>
10005368:	e6b0      	b.n	100050cc <tud_task_ext+0x304>
1000536a:	6968      	ldr	r0, [r5, #20]
1000536c:	f000 fa58 	bl	10005820 <usbd_control_set_complete_callback>
10005370:	2101      	movs	r1, #1
10005372:	4658      	mov	r0, fp
10005374:	696b      	ldr	r3, [r5, #20]
10005376:	aa0e      	add	r2, sp, #56	@ 0x38
10005378:	4798      	blx	r3
1000537a:	e6b8      	b.n	100050ee <tud_task_ext+0x326>
1000537c:	2a00      	cmp	r2, #0
1000537e:	d000      	beq.n	10005382 <tud_task_ext+0x5ba>
10005380:	e6a4      	b.n	100050cc <tud_task_ext+0x304>
10005382:	2300      	movs	r3, #0
10005384:	4699      	mov	r9, r3
10005386:	7962      	ldrb	r2, [r4, #5]
10005388:	2002      	movs	r0, #2
1000538a:	0013      	movs	r3, r2
1000538c:	9203      	str	r2, [sp, #12]
1000538e:	4383      	bics	r3, r0
10005390:	2b01      	cmp	r3, #1
10005392:	d015      	beq.n	100053c0 <tud_task_ext+0x5f8>
10005394:	2a00      	cmp	r2, #0
10005396:	d000      	beq.n	1000539a <tud_task_ext+0x5d2>
10005398:	e698      	b.n	100050cc <tud_task_ext+0x304>
1000539a:	002b      	movs	r3, r5
1000539c:	4443      	add	r3, r8
1000539e:	4453      	add	r3, sl
100053a0:	3330      	adds	r3, #48	@ 0x30
100053a2:	791b      	ldrb	r3, [r3, #4]
100053a4:	aa0c      	add	r2, sp, #48	@ 0x30
100053a6:	079b      	lsls	r3, r3, #30
100053a8:	0fdb      	lsrs	r3, r3, #31
100053aa:	3202      	adds	r2, #2
100053ac:	e7bc      	b.n	10005328 <tud_task_ext+0x560>
100053ae:	1c5a      	adds	r2, r3, #1
100053b0:	42aa      	cmp	r2, r5
100053b2:	da00      	bge.n	100053b6 <tud_task_ext+0x5ee>
100053b4:	e68a      	b.n	100050cc <tud_task_ext+0x304>
100053b6:	1aed      	subs	r5, r5, r3
100053b8:	4b2c      	ldr	r3, [pc, #176]	@ (1000546c <tud_task_ext+0x6a4>)
100053ba:	016d      	lsls	r5, r5, #5
100053bc:	18ed      	adds	r5, r5, r3
100053be:	e7d4      	b.n	1000536a <tud_task_ext+0x5a2>
100053c0:	88e3      	ldrh	r3, [r4, #6]
100053c2:	2b00      	cmp	r3, #0
100053c4:	d112      	bne.n	100053ec <tud_task_ext+0x624>
100053c6:	9b02      	ldr	r3, [sp, #8]
100053c8:	7818      	ldrb	r0, [r3, #0]
100053ca:	9b03      	ldr	r3, [sp, #12]
100053cc:	2b01      	cmp	r3, #1
100053ce:	d023      	beq.n	10005418 <tud_task_ext+0x650>
100053d0:	f7ff fbf6 	bl	10004bc0 <dcd_edpt_stall>
100053d4:	4643      	mov	r3, r8
100053d6:	2102      	movs	r1, #2
100053d8:	18eb      	adds	r3, r5, r3
100053da:	4453      	add	r3, sl
100053dc:	3330      	adds	r3, #48	@ 0x30
100053de:	791a      	ldrb	r2, [r3, #4]
100053e0:	430a      	orrs	r2, r1
100053e2:	2101      	movs	r1, #1
100053e4:	711a      	strb	r2, [r3, #4]
100053e6:	791a      	ldrb	r2, [r3, #4]
100053e8:	430a      	orrs	r2, r1
100053ea:	711a      	strb	r2, [r3, #4]
100053ec:	464b      	mov	r3, r9
100053ee:	2b00      	cmp	r3, #0
100053f0:	d100      	bne.n	100053f4 <tud_task_ext+0x62c>
100053f2:	e4ff      	b.n	10004df4 <tud_task_ext+0x2c>
100053f4:	6958      	ldr	r0, [r3, #20]
100053f6:	f000 fa13 	bl	10005820 <usbd_control_set_complete_callback>
100053fa:	464b      	mov	r3, r9
100053fc:	2101      	movs	r1, #1
100053fe:	695b      	ldr	r3, [r3, #20]
10005400:	aa0e      	add	r2, sp, #56	@ 0x38
10005402:	4658      	mov	r0, fp
10005404:	4798      	blx	r3
10005406:	2000      	movs	r0, #0
10005408:	f000 fa0a 	bl	10005820 <usbd_control_set_complete_callback>
1000540c:	2335      	movs	r3, #53	@ 0x35
1000540e:	5ceb      	ldrb	r3, [r5, r3]
10005410:	07db      	lsls	r3, r3, #31
10005412:	d500      	bpl.n	10005416 <tud_task_ext+0x64e>
10005414:	e4ee      	b.n	10004df4 <tud_task_ext+0x2c>
10005416:	e6b0      	b.n	1000517a <tud_task_ext+0x3b2>
10005418:	f7ff fbec 	bl	10004bf4 <dcd_edpt_clear_stall>
1000541c:	4643      	mov	r3, r8
1000541e:	2102      	movs	r1, #2
10005420:	18eb      	adds	r3, r5, r3
10005422:	4453      	add	r3, sl
10005424:	3330      	adds	r3, #48	@ 0x30
10005426:	791a      	ldrb	r2, [r3, #4]
10005428:	438a      	bics	r2, r1
1000542a:	711a      	strb	r2, [r3, #4]
1000542c:	791a      	ldrb	r2, [r3, #4]
1000542e:	9903      	ldr	r1, [sp, #12]
10005430:	438a      	bics	r2, r1
10005432:	711a      	strb	r2, [r3, #4]
10005434:	e7da      	b.n	100053ec <tud_task_ext+0x624>
10005436:	f7ff fc3f 	bl	10004cb8 <tud_umount_cb>
1000543a:	e69e      	b.n	1000517a <tud_task_ext+0x3b2>
1000543c:	2100      	movs	r1, #0
1000543e:	4658      	mov	r0, fp
10005440:	f7ff fb08 	bl	10004a54 <dcd_sof_enable>
10005444:	4658      	mov	r0, fp
10005446:	f7ff fba5 	bl	10004b94 <dcd_edpt_close_all>
1000544a:	78ab      	ldrb	r3, [r5, #2]
1000544c:	4907      	ldr	r1, [pc, #28]	@ (1000546c <tud_task_ext+0x6a4>)
1000544e:	9303      	str	r3, [sp, #12]
10005450:	9104      	str	r1, [sp, #16]
10005452:	4b05      	ldr	r3, [pc, #20]	@ (10005468 <tud_task_ext+0x6a0>)
10005454:	4906      	ldr	r1, [pc, #24]	@ (10005470 <tud_task_ext+0x6a8>)
10005456:	4698      	mov	r8, r3
10005458:	781a      	ldrb	r2, [r3, #0]
1000545a:	9105      	str	r1, [sp, #20]
1000545c:	2300      	movs	r3, #0
1000545e:	0029      	movs	r1, r5
10005460:	001d      	movs	r5, r3
10005462:	468a      	mov	sl, r1
10005464:	e01b      	b.n	1000549e <tud_task_ext+0x6d6>
10005466:	46c0      	nop			@ (mov r8, r8)
10005468:	20002261 	.word	0x20002261
1000546c:	100072c4 	.word	0x100072c4
10005470:	20001860 	.word	0x20001860
10005474:	20001ba0 	.word	0x20001ba0
10005478:	10007268 	.word	0x10007268
1000547c:	9b05      	ldr	r3, [sp, #20]
1000547e:	016a      	lsls	r2, r5, #5
10005480:	681b      	ldr	r3, [r3, #0]
10005482:	189b      	adds	r3, r3, r2
10005484:	2b00      	cmp	r3, #0
10005486:	d04d      	beq.n	10005524 <tud_task_ext+0x75c>
10005488:	68db      	ldr	r3, [r3, #12]
1000548a:	4658      	mov	r0, fp
1000548c:	4798      	blx	r3
1000548e:	4643      	mov	r3, r8
10005490:	781a      	ldrb	r2, [r3, #0]
10005492:	3501      	adds	r5, #1
10005494:	b2ed      	uxtb	r5, r5
10005496:	1c51      	adds	r1, r2, #1
10005498:	002b      	movs	r3, r5
1000549a:	428d      	cmp	r5, r1
1000549c:	dc2e      	bgt.n	100054fc <tud_task_ext+0x734>
1000549e:	4295      	cmp	r5, r2
100054a0:	d3ec      	bcc.n	1000547c <tud_task_ext+0x6b4>
100054a2:	1a9b      	subs	r3, r3, r2
100054a4:	9a04      	ldr	r2, [sp, #16]
100054a6:	015b      	lsls	r3, r3, #5
100054a8:	4694      	mov	ip, r2
100054aa:	4463      	add	r3, ip
100054ac:	e7ec      	b.n	10005488 <tud_task_ext+0x6c0>
100054ae:	ab0c      	add	r3, sp, #48	@ 0x30
100054b0:	1c9a      	adds	r2, r3, #2
100054b2:	4658      	mov	r0, fp
100054b4:	2301      	movs	r3, #1
100054b6:	a90e      	add	r1, sp, #56	@ 0x38
100054b8:	7015      	strb	r5, [r2, #0]
100054ba:	f000 f951 	bl	10005760 <tud_control_xfer>
100054be:	e499      	b.n	10004df4 <tud_task_ext+0x2c>
100054c0:	9a0b      	ldr	r2, [sp, #44]	@ 0x2c
100054c2:	2a01      	cmp	r2, #1
100054c4:	d04f      	beq.n	10005566 <tud_task_ext+0x79e>
100054c6:	2a00      	cmp	r2, #0
100054c8:	d03c      	beq.n	10005544 <tud_task_ext+0x77c>
100054ca:	2300      	movs	r3, #0
100054cc:	78b0      	ldrb	r0, [r6, #2]
100054ce:	e004      	b.n	100054da <tud_task_ext+0x712>
100054d0:	3301      	adds	r3, #1
100054d2:	b2db      	uxtb	r3, r3
100054d4:	710f      	strb	r7, [r1, #4]
100054d6:	4293      	cmp	r3, r2
100054d8:	d234      	bcs.n	10005544 <tud_task_ext+0x77c>
100054da:	18c1      	adds	r1, r0, r3
100054dc:	b2c9      	uxtb	r1, r1
100054de:	4441      	add	r1, r8
100054e0:	790d      	ldrb	r5, [r1, #4]
100054e2:	2dff      	cmp	r5, #255	@ 0xff
100054e4:	d0f4      	beq.n	100054d0 <tud_task_ext+0x708>
100054e6:	464e      	mov	r6, r9
100054e8:	4645      	mov	r5, r8
100054ea:	4657      	mov	r7, sl
100054ec:	2300      	movs	r3, #0
100054ee:	706b      	strb	r3, [r5, #1]
100054f0:	e5ec      	b.n	100050cc <tud_task_ext+0x304>
100054f2:	464e      	mov	r6, r9
100054f4:	4657      	mov	r7, sl
100054f6:	f7ff fbdd 	bl	10004cb4 <tud_mount_cb>
100054fa:	e63e      	b.n	1000517a <tud_task_ext+0x3b2>
100054fc:	4655      	mov	r5, sl
100054fe:	2254      	movs	r2, #84	@ 0x54
10005500:	2100      	movs	r1, #0
10005502:	0028      	movs	r0, r5
10005504:	f7fd f8ac 	bl	10002660 <__wrap_memset>
10005508:	2210      	movs	r2, #16
1000550a:	21ff      	movs	r1, #255	@ 0xff
1000550c:	1d28      	adds	r0, r5, #4
1000550e:	f7fd f8a7 	bl	10002660 <__wrap_memset>
10005512:	0028      	movs	r0, r5
10005514:	2220      	movs	r2, #32
10005516:	21ff      	movs	r1, #255	@ 0xff
10005518:	3014      	adds	r0, #20
1000551a:	f7fd f8a1 	bl	10002660 <__wrap_memset>
1000551e:	9b03      	ldr	r3, [sp, #12]
10005520:	70ab      	strb	r3, [r5, #2]
10005522:	e657      	b.n	100051d4 <tud_task_ext+0x40c>
10005524:	4655      	mov	r5, sl
10005526:	e7fa      	b.n	1000551e <tud_task_ext+0x756>
10005528:	f7fe feb8 	bl	1000429c <tud_descriptor_bos_cb>
1000552c:	1e02      	subs	r2, r0, #0
1000552e:	d100      	bne.n	10005532 <tud_task_ext+0x76a>
10005530:	e5cc      	b.n	100050cc <tud_task_ext+0x304>
10005532:	78d3      	ldrb	r3, [r2, #3]
10005534:	7891      	ldrb	r1, [r2, #2]
10005536:	021b      	lsls	r3, r3, #8
10005538:	430b      	orrs	r3, r1
1000553a:	4658      	mov	r0, fp
1000553c:	a90e      	add	r1, sp, #56	@ 0x38
1000553e:	f000 f90f 	bl	10005760 <tud_control_xfer>
10005542:	e5d4      	b.n	100050ee <tud_task_ext+0x326>
10005544:	4665      	mov	r5, ip
10005546:	003b      	movs	r3, r7
10005548:	002a      	movs	r2, r5
1000554a:	0031      	movs	r1, r6
1000554c:	980a      	ldr	r0, [sp, #40]	@ 0x28
1000554e:	f000 fead 	bl	100062ac <tu_edpt_bind_driver>
10005552:	46ac      	mov	ip, r5
10005554:	9b04      	ldr	r3, [sp, #16]
10005556:	9a03      	ldr	r2, [sp, #12]
10005558:	781b      	ldrb	r3, [r3, #0]
1000555a:	4466      	add	r6, ip
1000555c:	3301      	adds	r3, #1
1000555e:	4293      	cmp	r3, r2
10005560:	db00      	blt.n	10005564 <tud_task_ext+0x79c>
10005562:	e66c      	b.n	1000523e <tud_task_ext+0x476>
10005564:	e7bf      	b.n	100054e6 <tud_task_ext+0x71e>
10005566:	4b17      	ldr	r3, [pc, #92]	@ (100055c4 <tud_task_ext+0x7fc>)
10005568:	6929      	ldr	r1, [r5, #16]
1000556a:	4299      	cmp	r1, r3
1000556c:	d1ad      	bne.n	100054ca <tud_task_ext+0x702>
1000556e:	9a07      	ldr	r2, [sp, #28]
10005570:	e7ab      	b.n	100054ca <tud_task_ext+0x702>
10005572:	f7ff fb9b 	bl	10004cac <tud_descriptor_device_qualifier_cb>
10005576:	1e02      	subs	r2, r0, #0
10005578:	d100      	bne.n	1000557c <tud_task_ext+0x7b4>
1000557a:	e5a7      	b.n	100050cc <tud_task_ext+0x304>
1000557c:	4658      	mov	r0, fp
1000557e:	7813      	ldrb	r3, [r2, #0]
10005580:	a90e      	add	r1, sp, #56	@ 0x38
10005582:	f000 f8ed 	bl	10005760 <tud_control_xfer>
10005586:	e5b2      	b.n	100050ee <tud_task_ext+0x326>
10005588:	8921      	ldrh	r1, [r4, #8]
1000558a:	f7ff f8d7 	bl	1000473c <tud_descriptor_string_cb>
1000558e:	1e02      	subs	r2, r0, #0
10005590:	d1f4      	bne.n	1000557c <tud_task_ext+0x7b4>
10005592:	e59b      	b.n	100050cc <tud_task_ext+0x304>
10005594:	2a02      	cmp	r2, #2
10005596:	d00f      	beq.n	100055b8 <tud_task_ext+0x7f0>
10005598:	f7ff fb8a 	bl	10004cb0 <tud_descriptor_other_speed_configuration_cb>
1000559c:	1e02      	subs	r2, r0, #0
1000559e:	d1c8      	bne.n	10005532 <tud_task_ext+0x76a>
100055a0:	e594      	b.n	100050cc <tud_task_ext+0x304>
100055a2:	f7ff f8c3 	bl	1000472c <tud_descriptor_device_cb>
100055a6:	1e02      	subs	r2, r0, #0
100055a8:	d100      	bne.n	100055ac <tud_task_ext+0x7e4>
100055aa:	e58f      	b.n	100050cc <tud_task_ext+0x304>
100055ac:	2312      	movs	r3, #18
100055ae:	4658      	mov	r0, fp
100055b0:	a90e      	add	r1, sp, #56	@ 0x38
100055b2:	f000 f8d5 	bl	10005760 <tud_control_xfer>
100055b6:	e59a      	b.n	100050ee <tud_task_ext+0x326>
100055b8:	f7ff f8bc 	bl	10004734 <tud_descriptor_configuration_cb>
100055bc:	1e02      	subs	r2, r0, #0
100055be:	d1b8      	bne.n	10005532 <tud_task_ext+0x76a>
100055c0:	e584      	b.n	100050cc <tud_task_ext+0x304>
100055c2:	46c0      	nop			@ (mov r8, r8)
100055c4:	10005c3d 	.word	0x10005c3d

100055c8 <usbd_open_edpt_pair>:
100055c8:	b5f8      	push	{r3, r4, r5, r6, r7, lr}
100055ca:	4657      	mov	r7, sl
100055cc:	464e      	mov	r6, r9
100055ce:	46de      	mov	lr, fp
100055d0:	4645      	mov	r5, r8
100055d2:	000c      	movs	r4, r1
100055d4:	b5e0      	push	{r5, r6, r7, lr}
100055d6:	0016      	movs	r6, r2
100055d8:	001f      	movs	r7, r3
100055da:	2a00      	cmp	r2, #0
100055dc:	d03c      	beq.n	10005658 <usbd_open_edpt_pair+0x90>
100055de:	4b1f      	ldr	r3, [pc, #124]	@ (1000565c <usbd_open_edpt_pair+0x94>)
100055e0:	2500      	movs	r5, #0
100055e2:	469a      	mov	sl, r3
100055e4:	2370      	movs	r3, #112	@ 0x70
100055e6:	4699      	mov	r9, r3
100055e8:	4b1d      	ldr	r3, [pc, #116]	@ (10005660 <usbd_open_edpt_pair+0x98>)
100055ea:	469b      	mov	fp, r3
100055ec:	e017      	b.n	1000561e <usbd_open_edpt_pair+0x56>
100055ee:	465b      	mov	r3, fp
100055f0:	0020      	movs	r0, r4
100055f2:	7899      	ldrb	r1, [r3, #2]
100055f4:	f000 fe1c 	bl	10006230 <tu_edpt_validate>
100055f8:	2800      	cmp	r0, #0
100055fa:	d01f      	beq.n	1000563c <usbd_open_edpt_pair+0x74>
100055fc:	0021      	movs	r1, r4
100055fe:	4640      	mov	r0, r8
10005600:	f7ff fa44 	bl	10004a8c <dcd_edpt_open>
10005604:	2800      	cmp	r0, #0
10005606:	d019      	beq.n	1000563c <usbd_open_edpt_pair+0x74>
10005608:	78a3      	ldrb	r3, [r4, #2]
1000560a:	09da      	lsrs	r2, r3, #7
1000560c:	2a01      	cmp	r2, #1
1000560e:	d01c      	beq.n	1000564a <usbd_open_edpt_pair+0x82>
10005610:	9a0a      	ldr	r2, [sp, #40]	@ 0x28
10005612:	3501      	adds	r5, #1
10005614:	7013      	strb	r3, [r2, #0]
10005616:	7823      	ldrb	r3, [r4, #0]
10005618:	18e4      	adds	r4, r4, r3
1000561a:	42b5      	cmp	r5, r6
1000561c:	da1c      	bge.n	10005658 <usbd_open_edpt_pair+0x90>
1000561e:	7863      	ldrb	r3, [r4, #1]
10005620:	2b05      	cmp	r3, #5
10005622:	d10b      	bne.n	1000563c <usbd_open_edpt_pair+0x74>
10005624:	78e3      	ldrb	r3, [r4, #3]
10005626:	079b      	lsls	r3, r3, #30
10005628:	0f9b      	lsrs	r3, r3, #30
1000562a:	42bb      	cmp	r3, r7
1000562c:	d106      	bne.n	1000563c <usbd_open_edpt_pair+0x74>
1000562e:	4653      	mov	r3, sl
10005630:	464a      	mov	r2, r9
10005632:	781b      	ldrb	r3, [r3, #0]
10005634:	4698      	mov	r8, r3
10005636:	78a3      	ldrb	r3, [r4, #2]
10005638:	421a      	tst	r2, r3
1000563a:	d0d8      	beq.n	100055ee <usbd_open_edpt_pair+0x26>
1000563c:	2000      	movs	r0, #0
1000563e:	bcf0      	pop	{r4, r5, r6, r7}
10005640:	46bb      	mov	fp, r7
10005642:	46b2      	mov	sl, r6
10005644:	46a9      	mov	r9, r5
10005646:	46a0      	mov	r8, r4
10005648:	bdf8      	pop	{r3, r4, r5, r6, r7, pc}
1000564a:	9a0b      	ldr	r2, [sp, #44]	@ 0x2c
1000564c:	3501      	adds	r5, #1
1000564e:	7013      	strb	r3, [r2, #0]
10005650:	7823      	ldrb	r3, [r4, #0]
10005652:	18e4      	adds	r4, r4, r3
10005654:	42b5      	cmp	r5, r6
10005656:	dbe2      	blt.n	1000561e <usbd_open_edpt_pair+0x56>
10005658:	2001      	movs	r0, #1
1000565a:	e7f0      	b.n	1000563e <usbd_open_edpt_pair+0x76>
1000565c:	20001054 	.word	0x20001054
10005660:	20001b8c 	.word	0x20001b8c

10005664 <usbd_edpt_open>:
10005664:	2270      	movs	r2, #112	@ 0x70
10005666:	b570      	push	{r4, r5, r6, lr}
10005668:	4b09      	ldr	r3, [pc, #36]	@ (10005690 <usbd_edpt_open+0x2c>)
1000566a:	000c      	movs	r4, r1
1000566c:	781d      	ldrb	r5, [r3, #0]
1000566e:	788b      	ldrb	r3, [r1, #2]
10005670:	421a      	tst	r2, r3
10005672:	d001      	beq.n	10005678 <usbd_edpt_open+0x14>
10005674:	2000      	movs	r0, #0
10005676:	bd70      	pop	{r4, r5, r6, pc}
10005678:	4b06      	ldr	r3, [pc, #24]	@ (10005694 <usbd_edpt_open+0x30>)
1000567a:	0020      	movs	r0, r4
1000567c:	7899      	ldrb	r1, [r3, #2]
1000567e:	f000 fdd7 	bl	10006230 <tu_edpt_validate>
10005682:	2800      	cmp	r0, #0
10005684:	d0f6      	beq.n	10005674 <usbd_edpt_open+0x10>
10005686:	0021      	movs	r1, r4
10005688:	0028      	movs	r0, r5
1000568a:	f7ff f9ff 	bl	10004a8c <dcd_edpt_open>
1000568e:	e7f2      	b.n	10005676 <usbd_edpt_open+0x12>
10005690:	20001054 	.word	0x20001054
10005694:	20001b8c 	.word	0x20001b8c

10005698 <usbd_edpt_claim>:
10005698:	000b      	movs	r3, r1
1000569a:	207f      	movs	r0, #127	@ 0x7f
1000569c:	b510      	push	{r4, lr}
1000569e:	4018      	ands	r0, r3
100056a0:	09db      	lsrs	r3, r3, #7
100056a2:	3334      	adds	r3, #52	@ 0x34
100056a4:	0040      	lsls	r0, r0, #1
100056a6:	4a04      	ldr	r2, [pc, #16]	@ (100056b8 <usbd_edpt_claim+0x20>)
100056a8:	18c0      	adds	r0, r0, r3
100056aa:	4b04      	ldr	r3, [pc, #16]	@ (100056bc <usbd_edpt_claim+0x24>)
100056ac:	6811      	ldr	r1, [r2, #0]
100056ae:	18c0      	adds	r0, r0, r3
100056b0:	f000 fd7a 	bl	100061a8 <tu_edpt_claim>
100056b4:	bd10      	pop	{r4, pc}
100056b6:	46c0      	nop			@ (mov r8, r8)
100056b8:	20001be0 	.word	0x20001be0
100056bc:	20001b8c 	.word	0x20001b8c

100056c0 <usbd_edpt_release>:
100056c0:	000b      	movs	r3, r1
100056c2:	207f      	movs	r0, #127	@ 0x7f
100056c4:	b510      	push	{r4, lr}
100056c6:	4018      	ands	r0, r3
100056c8:	09db      	lsrs	r3, r3, #7
100056ca:	3334      	adds	r3, #52	@ 0x34
100056cc:	0040      	lsls	r0, r0, #1
100056ce:	4a04      	ldr	r2, [pc, #16]	@ (100056e0 <usbd_edpt_release+0x20>)
100056d0:	18c0      	adds	r0, r0, r3
100056d2:	4b04      	ldr	r3, [pc, #16]	@ (100056e4 <usbd_edpt_release+0x24>)
100056d4:	6811      	ldr	r1, [r2, #0]
100056d6:	18c0      	adds	r0, r0, r3
100056d8:	f000 fd8e 	bl	100061f8 <tu_edpt_release>
100056dc:	bd10      	pop	{r4, pc}
100056de:	46c0      	nop			@ (mov r8, r8)
100056e0:	20001be0 	.word	0x20001be0
100056e4:	20001b8c 	.word	0x20001b8c

100056e8 <usbd_edpt_xfer>:
100056e8:	b570      	push	{r4, r5, r6, lr}
100056ea:	247f      	movs	r4, #127	@ 0x7f
100056ec:	480f      	ldr	r0, [pc, #60]	@ (1000572c <usbd_edpt_xfer+0x44>)
100056ee:	400c      	ands	r4, r1
100056f0:	0064      	lsls	r4, r4, #1
100056f2:	1904      	adds	r4, r0, r4
100056f4:	09cd      	lsrs	r5, r1, #7
100056f6:	1964      	adds	r4, r4, r5
100056f8:	3430      	adds	r4, #48	@ 0x30
100056fa:	7920      	ldrb	r0, [r4, #4]
100056fc:	07c0      	lsls	r0, r0, #31
100056fe:	d501      	bpl.n	10005704 <usbd_edpt_xfer+0x1c>
10005700:	2000      	movs	r0, #0
10005702:	bd70      	pop	{r4, r5, r6, pc}
10005704:	2601      	movs	r6, #1
10005706:	7925      	ldrb	r5, [r4, #4]
10005708:	4809      	ldr	r0, [pc, #36]	@ (10005730 <usbd_edpt_xfer+0x48>)
1000570a:	4335      	orrs	r5, r6
1000570c:	7800      	ldrb	r0, [r0, #0]
1000570e:	7125      	strb	r5, [r4, #4]
10005710:	f7ff fa44 	bl	10004b9c <dcd_edpt_xfer>
10005714:	2800      	cmp	r0, #0
10005716:	d1f4      	bne.n	10005702 <usbd_edpt_xfer+0x1a>
10005718:	2201      	movs	r2, #1
1000571a:	7923      	ldrb	r3, [r4, #4]
1000571c:	4393      	bics	r3, r2
1000571e:	7123      	strb	r3, [r4, #4]
10005720:	7923      	ldrb	r3, [r4, #4]
10005722:	3203      	adds	r2, #3
10005724:	4393      	bics	r3, r2
10005726:	7123      	strb	r3, [r4, #4]
10005728:	e7ea      	b.n	10005700 <usbd_edpt_xfer+0x18>
1000572a:	46c0      	nop			@ (mov r8, r8)
1000572c:	20001b8c 	.word	0x20001b8c
10005730:	20001054 	.word	0x20001054

10005734 <tud_control_status>:
10005734:	b570      	push	{r4, r5, r6, lr}
10005736:	4c09      	ldr	r4, [pc, #36]	@ (1000575c <tud_control_status+0x28>)
10005738:	0006      	movs	r6, r0
1000573a:	2208      	movs	r2, #8
1000573c:	0020      	movs	r0, r4
1000573e:	000d      	movs	r5, r1
10005740:	f7fc ff94 	bl	1000266c <__wrap___aeabi_memcpy>
10005744:	2300      	movs	r3, #0
10005746:	2180      	movs	r1, #128	@ 0x80
10005748:	60e3      	str	r3, [r4, #12]
1000574a:	60a3      	str	r3, [r4, #8]
1000574c:	782b      	ldrb	r3, [r5, #0]
1000574e:	0030      	movs	r0, r6
10005750:	4399      	bics	r1, r3
10005752:	2200      	movs	r2, #0
10005754:	2300      	movs	r3, #0
10005756:	f7ff ffc7 	bl	100056e8 <usbd_edpt_xfer>
1000575a:	bd70      	pop	{r4, r5, r6, pc}
1000575c:	20001b30 	.word	0x20001b30

10005760 <tud_control_xfer>:
10005760:	b5f8      	push	{r3, r4, r5, r6, r7, lr}
10005762:	46ce      	mov	lr, r9
10005764:	4647      	mov	r7, r8
10005766:	4690      	mov	r8, r2
10005768:	4e26      	ldr	r6, [pc, #152]	@ (10005804 <tud_control_xfer+0xa4>)
1000576a:	b580      	push	{r7, lr}
1000576c:	4681      	mov	r9, r0
1000576e:	2208      	movs	r2, #8
10005770:	0030      	movs	r0, r6
10005772:	000d      	movs	r5, r1
10005774:	001f      	movs	r7, r3
10005776:	f7fc ff79 	bl	1000266c <__wrap___aeabi_memcpy>
1000577a:	4643      	mov	r3, r8
1000577c:	60b3      	str	r3, [r6, #8]
1000577e:	2300      	movs	r3, #0
10005780:	81f3      	strh	r3, [r6, #14]
10005782:	79ec      	ldrb	r4, [r5, #7]
10005784:	79ab      	ldrb	r3, [r5, #6]
10005786:	0224      	lsls	r4, r4, #8
10005788:	431c      	orrs	r4, r3
1000578a:	1c23      	adds	r3, r4, #0
1000578c:	42bc      	cmp	r4, r7
1000578e:	d900      	bls.n	10005792 <tud_control_xfer+0x32>
10005790:	1c3b      	adds	r3, r7, #0
10005792:	b29f      	uxth	r7, r3
10005794:	81b3      	strh	r3, [r6, #12]
10005796:	2c00      	cmp	r4, #0
10005798:	d00e      	beq.n	100057b8 <tud_control_xfer+0x58>
1000579a:	2f00      	cmp	r7, #0
1000579c:	d018      	beq.n	100057d0 <tud_control_xfer+0x70>
1000579e:	4643      	mov	r3, r8
100057a0:	2b00      	cmp	r3, #0
100057a2:	d02c      	beq.n	100057fe <tud_control_xfer+0x9e>
100057a4:	1c3b      	adds	r3, r7, #0
100057a6:	2f40      	cmp	r7, #64	@ 0x40
100057a8:	d81b      	bhi.n	100057e2 <tud_control_xfer+0x82>
100057aa:	b29f      	uxth	r7, r3
100057ac:	7833      	ldrb	r3, [r6, #0]
100057ae:	2b7f      	cmp	r3, #127	@ 0x7f
100057b0:	d81c      	bhi.n	100057ec <tud_control_xfer+0x8c>
100057b2:	2100      	movs	r1, #0
100057b4:	4a14      	ldr	r2, [pc, #80]	@ (10005808 <tud_control_xfer+0xa8>)
100057b6:	e00f      	b.n	100057d8 <tud_control_xfer+0x78>
100057b8:	2180      	movs	r1, #128	@ 0x80
100057ba:	782b      	ldrb	r3, [r5, #0]
100057bc:	2200      	movs	r2, #0
100057be:	4399      	bics	r1, r3
100057c0:	4648      	mov	r0, r9
100057c2:	2300      	movs	r3, #0
100057c4:	f7ff ff90 	bl	100056e8 <usbd_edpt_xfer>
100057c8:	bcc0      	pop	{r6, r7}
100057ca:	46b9      	mov	r9, r7
100057cc:	46b0      	mov	r8, r6
100057ce:	bdf8      	pop	{r3, r4, r5, r6, r7, pc}
100057d0:	237f      	movs	r3, #127	@ 0x7f
100057d2:	2200      	movs	r2, #0
100057d4:	7831      	ldrb	r1, [r6, #0]
100057d6:	4399      	bics	r1, r3
100057d8:	003b      	movs	r3, r7
100057da:	4648      	mov	r0, r9
100057dc:	f7ff ff84 	bl	100056e8 <usbd_edpt_xfer>
100057e0:	e7f2      	b.n	100057c8 <tud_control_xfer+0x68>
100057e2:	2340      	movs	r3, #64	@ 0x40
100057e4:	b29f      	uxth	r7, r3
100057e6:	7833      	ldrb	r3, [r6, #0]
100057e8:	2b7f      	cmp	r3, #127	@ 0x7f
100057ea:	d9e2      	bls.n	100057b2 <tud_control_xfer+0x52>
100057ec:	4c06      	ldr	r4, [pc, #24]	@ (10005808 <tud_control_xfer+0xa8>)
100057ee:	003a      	movs	r2, r7
100057f0:	4641      	mov	r1, r8
100057f2:	0020      	movs	r0, r4
100057f4:	f7fc ff3a 	bl	1000266c <__wrap___aeabi_memcpy>
100057f8:	2180      	movs	r1, #128	@ 0x80
100057fa:	0022      	movs	r2, r4
100057fc:	e7ec      	b.n	100057d8 <tud_control_xfer+0x78>
100057fe:	2000      	movs	r0, #0
10005800:	e7e2      	b.n	100057c8 <tud_control_xfer+0x68>
10005802:	46c0      	nop			@ (mov r8, r8)
10005804:	20001b30 	.word	0x20001b30
10005808:	20001b4c 	.word	0x20001b4c

1000580c <usbd_control_reset>:
1000580c:	b510      	push	{r4, lr}
1000580e:	2214      	movs	r2, #20
10005810:	2100      	movs	r1, #0
10005812:	4802      	ldr	r0, [pc, #8]	@ (1000581c <usbd_control_reset+0x10>)
10005814:	f7fc ff24 	bl	10002660 <__wrap_memset>
10005818:	bd10      	pop	{r4, pc}
1000581a:	46c0      	nop			@ (mov r8, r8)
1000581c:	20001b30 	.word	0x20001b30

10005820 <usbd_control_set_complete_callback>:
10005820:	4b01      	ldr	r3, [pc, #4]	@ (10005828 <usbd_control_set_complete_callback+0x8>)
10005822:	6118      	str	r0, [r3, #16]
10005824:	4770      	bx	lr
10005826:	46c0      	nop			@ (mov r8, r8)
10005828:	20001b30 	.word	0x20001b30

1000582c <usbd_control_set_request>:
1000582c:	b510      	push	{r4, lr}
1000582e:	4c05      	ldr	r4, [pc, #20]	@ (10005844 <usbd_control_set_request+0x18>)
10005830:	0001      	movs	r1, r0
10005832:	2208      	movs	r2, #8
10005834:	0020      	movs	r0, r4
10005836:	f7fc ff19 	bl	1000266c <__wrap___aeabi_memcpy>
1000583a:	2300      	movs	r3, #0
1000583c:	60a3      	str	r3, [r4, #8]
1000583e:	60e3      	str	r3, [r4, #12]
10005840:	bd10      	pop	{r4, pc}
10005842:	46c0      	nop			@ (mov r8, r8)
10005844:	20001b30 	.word	0x20001b30

10005848 <usbd_control_xfer_cb>:
10005848:	b570      	push	{r4, r5, r6, lr}
1000584a:	4c38      	ldr	r4, [pc, #224]	@ (1000592c <usbd_control_xfer_cb+0xe4>)
1000584c:	001d      	movs	r5, r3
1000584e:	7823      	ldrb	r3, [r4, #0]
10005850:	0006      	movs	r6, r0
10005852:	09da      	lsrs	r2, r3, #7
10005854:	09c9      	lsrs	r1, r1, #7
10005856:	428a      	cmp	r2, r1
10005858:	d010      	beq.n	1000587c <usbd_control_xfer_cb+0x34>
1000585a:	2000      	movs	r0, #0
1000585c:	2d00      	cmp	r5, #0
1000585e:	d000      	beq.n	10005862 <usbd_control_xfer_cb+0x1a>
10005860:	bd70      	pop	{r4, r5, r6, pc}
10005862:	0021      	movs	r1, r4
10005864:	0030      	movs	r0, r6
10005866:	f7ff f903 	bl	10004a70 <dcd_edpt0_status_complete>
1000586a:	6923      	ldr	r3, [r4, #16]
1000586c:	2b00      	cmp	r3, #0
1000586e:	d003      	beq.n	10005878 <usbd_control_xfer_cb+0x30>
10005870:	0022      	movs	r2, r4
10005872:	2103      	movs	r1, #3
10005874:	0030      	movs	r0, r6
10005876:	4798      	blx	r3
10005878:	2001      	movs	r0, #1
1000587a:	e7f1      	b.n	10005860 <usbd_control_xfer_cb+0x18>
1000587c:	68a0      	ldr	r0, [r4, #8]
1000587e:	2b7f      	cmp	r3, #127	@ 0x7f
10005880:	d805      	bhi.n	1000588e <usbd_control_xfer_cb+0x46>
10005882:	2800      	cmp	r0, #0
10005884:	d034      	beq.n	100058f0 <usbd_control_xfer_cb+0xa8>
10005886:	002a      	movs	r2, r5
10005888:	4929      	ldr	r1, [pc, #164]	@ (10005930 <usbd_control_xfer_cb+0xe8>)
1000588a:	f7fc feef 	bl	1000266c <__wrap___aeabi_memcpy>
1000588e:	89e2      	ldrh	r2, [r4, #14]
10005890:	68a1      	ldr	r1, [r4, #8]
10005892:	1952      	adds	r2, r2, r5
10005894:	88e3      	ldrh	r3, [r4, #6]
10005896:	b292      	uxth	r2, r2
10005898:	1949      	adds	r1, r1, r5
1000589a:	81e2      	strh	r2, [r4, #14]
1000589c:	60a1      	str	r1, [r4, #8]
1000589e:	4293      	cmp	r3, r2
100058a0:	d014      	beq.n	100058cc <usbd_control_xfer_cb+0x84>
100058a2:	2d3f      	cmp	r5, #63	@ 0x3f
100058a4:	d912      	bls.n	100058cc <usbd_control_xfer_cb+0x84>
100058a6:	89a3      	ldrh	r3, [r4, #12]
100058a8:	1a98      	subs	r0, r3, r2
100058aa:	1c05      	adds	r5, r0, #0
100058ac:	b280      	uxth	r0, r0
100058ae:	2840      	cmp	r0, #64	@ 0x40
100058b0:	d82a      	bhi.n	10005908 <usbd_control_xfer_cb+0xc0>
100058b2:	7820      	ldrb	r0, [r4, #0]
100058b4:	b2ad      	uxth	r5, r5
100058b6:	287f      	cmp	r0, #127	@ 0x7f
100058b8:	d828      	bhi.n	1000590c <usbd_control_xfer_cb+0xc4>
100058ba:	2100      	movs	r1, #0
100058bc:	429a      	cmp	r2, r3
100058be:	d032      	beq.n	10005926 <usbd_control_xfer_cb+0xde>
100058c0:	4a1b      	ldr	r2, [pc, #108]	@ (10005930 <usbd_control_xfer_cb+0xe8>)
100058c2:	002b      	movs	r3, r5
100058c4:	0030      	movs	r0, r6
100058c6:	f7ff ff0f 	bl	100056e8 <usbd_edpt_xfer>
100058ca:	e7c9      	b.n	10005860 <usbd_control_xfer_cb+0x18>
100058cc:	6923      	ldr	r3, [r4, #16]
100058ce:	2b00      	cmp	r3, #0
100058d0:	d005      	beq.n	100058de <usbd_control_xfer_cb+0x96>
100058d2:	0022      	movs	r2, r4
100058d4:	2102      	movs	r1, #2
100058d6:	0030      	movs	r0, r6
100058d8:	4798      	blx	r3
100058da:	2800      	cmp	r0, #0
100058dc:	d00a      	beq.n	100058f4 <usbd_control_xfer_cb+0xac>
100058de:	2180      	movs	r1, #128	@ 0x80
100058e0:	7823      	ldrb	r3, [r4, #0]
100058e2:	2200      	movs	r2, #0
100058e4:	4399      	bics	r1, r3
100058e6:	0030      	movs	r0, r6
100058e8:	2300      	movs	r3, #0
100058ea:	f7ff fefd 	bl	100056e8 <usbd_edpt_xfer>
100058ee:	e7b7      	b.n	10005860 <usbd_control_xfer_cb+0x18>
100058f0:	2000      	movs	r0, #0
100058f2:	e7b5      	b.n	10005860 <usbd_control_xfer_cb+0x18>
100058f4:	2100      	movs	r1, #0
100058f6:	0030      	movs	r0, r6
100058f8:	f7ff f962 	bl	10004bc0 <dcd_edpt_stall>
100058fc:	0030      	movs	r0, r6
100058fe:	2180      	movs	r1, #128	@ 0x80
10005900:	f7ff f95e 	bl	10004bc0 <dcd_edpt_stall>
10005904:	2001      	movs	r0, #1
10005906:	e7ab      	b.n	10005860 <usbd_control_xfer_cb+0x18>
10005908:	2540      	movs	r5, #64	@ 0x40
1000590a:	e7d2      	b.n	100058b2 <usbd_control_xfer_cb+0x6a>
1000590c:	429a      	cmp	r2, r3
1000590e:	d007      	beq.n	10005920 <usbd_control_xfer_cb+0xd8>
10005910:	4c07      	ldr	r4, [pc, #28]	@ (10005930 <usbd_control_xfer_cb+0xe8>)
10005912:	002a      	movs	r2, r5
10005914:	0020      	movs	r0, r4
10005916:	f7fc fea9 	bl	1000266c <__wrap___aeabi_memcpy>
1000591a:	2180      	movs	r1, #128	@ 0x80
1000591c:	0022      	movs	r2, r4
1000591e:	e7d0      	b.n	100058c2 <usbd_control_xfer_cb+0x7a>
10005920:	2180      	movs	r1, #128	@ 0x80
10005922:	2200      	movs	r2, #0
10005924:	e7cd      	b.n	100058c2 <usbd_control_xfer_cb+0x7a>
10005926:	2200      	movs	r2, #0
10005928:	e7cb      	b.n	100058c2 <usbd_control_xfer_cb+0x7a>
1000592a:	46c0      	nop			@ (mov r8, r8)
1000592c:	20001b30 	.word	0x20001b30
10005930:	20001b4c 	.word	0x20001b4c

10005934 <_prep_out_transaction.isra.0>:
10005934:	b570      	push	{r4, r5, r6, lr}
10005936:	0004      	movs	r4, r0
10005938:	f7ff f9c4 	bl	10004cc4 <tud_mounted>
1000593c:	2800      	cmp	r0, #0
1000593e:	d100      	bne.n	10005942 <_prep_out_transaction.isra.0+0xe>
10005940:	bd70      	pop	{r4, r5, r6, pc}
10005942:	f7ff f9c7 	bl	10004cd4 <tud_suspended>
10005946:	2800      	cmp	r0, #0
10005948:	d1fa      	bne.n	10005940 <_prep_out_transaction.isra.0+0xc>
1000594a:	78e3      	ldrb	r3, [r4, #3]
1000594c:	2b00      	cmp	r3, #0
1000594e:	d0f7      	beq.n	10005940 <_prep_out_transaction.isra.0+0xc>
10005950:	0025      	movs	r5, r4
10005952:	3510      	adds	r5, #16
10005954:	0028      	movs	r0, r5
10005956:	f000 fd17 	bl	10006388 <tu_fifo_remaining>
1000595a:	283f      	cmp	r0, #63	@ 0x3f
1000595c:	d9f0      	bls.n	10005940 <_prep_out_transaction.isra.0+0xc>
1000595e:	2000      	movs	r0, #0
10005960:	78e1      	ldrb	r1, [r4, #3]
10005962:	f7ff fe99 	bl	10005698 <usbd_edpt_claim>
10005966:	2800      	cmp	r0, #0
10005968:	d0ea      	beq.n	10005940 <_prep_out_transaction.isra.0+0xc>
1000596a:	0028      	movs	r0, r5
1000596c:	f000 fd0c 	bl	10006388 <tu_fifo_remaining>
10005970:	283f      	cmp	r0, #63	@ 0x3f
10005972:	d908      	bls.n	10005986 <_prep_out_transaction.isra.0+0x52>
10005974:	2392      	movs	r3, #146	@ 0x92
10005976:	009b      	lsls	r3, r3, #2
10005978:	18e2      	adds	r2, r4, r3
1000597a:	78e1      	ldrb	r1, [r4, #3]
1000597c:	2340      	movs	r3, #64	@ 0x40
1000597e:	2000      	movs	r0, #0
10005980:	f7ff feb2 	bl	100056e8 <usbd_edpt_xfer>
10005984:	e7dc      	b.n	10005940 <_prep_out_transaction.isra.0+0xc>
10005986:	78e1      	ldrb	r1, [r4, #3]
10005988:	2000      	movs	r0, #0
1000598a:	f7ff fe99 	bl	100056c0 <usbd_edpt_release>
1000598e:	e7d7      	b.n	10005940 <_prep_out_transaction.isra.0+0xc>

10005990 <tud_cdc_n_connected>:
10005990:	b510      	push	{r4, lr}
10005992:	0004      	movs	r4, r0
10005994:	f7ff f996 	bl	10004cc4 <tud_mounted>
10005998:	2800      	cmp	r0, #0
1000599a:	d101      	bne.n	100059a0 <tud_cdc_n_connected+0x10>
1000599c:	2000      	movs	r0, #0
1000599e:	bd10      	pop	{r4, pc}
100059a0:	f7ff f998 	bl	10004cd4 <tud_suspended>
100059a4:	2800      	cmp	r0, #0
100059a6:	d1f9      	bne.n	1000599c <tud_cdc_n_connected+0xc>
100059a8:	22b2      	movs	r2, #178	@ 0xb2
100059aa:	0092      	lsls	r2, r2, #2
100059ac:	4362      	muls	r2, r4
100059ae:	4b03      	ldr	r3, [pc, #12]	@ (100059bc <tud_cdc_n_connected+0x2c>)
100059b0:	3001      	adds	r0, #1
100059b2:	189b      	adds	r3, r3, r2
100059b4:	791b      	ldrb	r3, [r3, #4]
100059b6:	4018      	ands	r0, r3
100059b8:	e7f1      	b.n	1000599e <tud_cdc_n_connected+0xe>
100059ba:	46c0      	nop			@ (mov r8, r8)
100059bc:	20001868 	.word	0x20001868

100059c0 <tud_cdc_n_available>:
100059c0:	23b2      	movs	r3, #178	@ 0xb2
100059c2:	009b      	lsls	r3, r3, #2
100059c4:	4343      	muls	r3, r0
100059c6:	b510      	push	{r4, lr}
100059c8:	4802      	ldr	r0, [pc, #8]	@ (100059d4 <tud_cdc_n_available+0x14>)
100059ca:	1818      	adds	r0, r3, r0
100059cc:	f000 fcbe 	bl	1000634c <tu_fifo_count>
100059d0:	bd10      	pop	{r4, pc}
100059d2:	46c0      	nop			@ (mov r8, r8)
100059d4:	20001878 	.word	0x20001878

100059d8 <tud_cdc_n_read>:
100059d8:	b5f0      	push	{r4, r5, r6, r7, lr}
100059da:	26b2      	movs	r6, #178	@ 0xb2
100059dc:	00b6      	lsls	r6, r6, #2
100059de:	4346      	muls	r6, r0
100059e0:	0035      	movs	r5, r6
100059e2:	46c6      	mov	lr, r8
100059e4:	2380      	movs	r3, #128	@ 0x80
100059e6:	4f20      	ldr	r7, [pc, #128]	@ (10005a68 <tud_cdc_n_read+0x90>)
100059e8:	3510      	adds	r5, #16
100059ea:	0004      	movs	r4, r0
100059ec:	b500      	push	{lr}
100059ee:	197d      	adds	r5, r7, r5
100059f0:	025b      	lsls	r3, r3, #9
100059f2:	429a      	cmp	r2, r3
100059f4:	d300      	bcc.n	100059f8 <tud_cdc_n_read+0x20>
100059f6:	4a1d      	ldr	r2, [pc, #116]	@ (10005a6c <tud_cdc_n_read+0x94>)
100059f8:	0028      	movs	r0, r5
100059fa:	b292      	uxth	r2, r2
100059fc:	f000 fd28 	bl	10006450 <tu_fifo_read_n>
10005a00:	4680      	mov	r8, r0
10005a02:	f7ff f95f 	bl	10004cc4 <tud_mounted>
10005a06:	2800      	cmp	r0, #0
10005a08:	d103      	bne.n	10005a12 <tud_cdc_n_read+0x3a>
10005a0a:	4640      	mov	r0, r8
10005a0c:	bc80      	pop	{r7}
10005a0e:	46b8      	mov	r8, r7
10005a10:	bdf0      	pop	{r4, r5, r6, r7, pc}
10005a12:	f7ff f95f 	bl	10004cd4 <tud_suspended>
10005a16:	2800      	cmp	r0, #0
10005a18:	d1f7      	bne.n	10005a0a <tud_cdc_n_read+0x32>
10005a1a:	23b2      	movs	r3, #178	@ 0xb2
10005a1c:	009b      	lsls	r3, r3, #2
10005a1e:	435c      	muls	r4, r3
10005a20:	193c      	adds	r4, r7, r4
10005a22:	78e3      	ldrb	r3, [r4, #3]
10005a24:	2b00      	cmp	r3, #0
10005a26:	d0f0      	beq.n	10005a0a <tud_cdc_n_read+0x32>
10005a28:	0028      	movs	r0, r5
10005a2a:	f000 fcad 	bl	10006388 <tu_fifo_remaining>
10005a2e:	283f      	cmp	r0, #63	@ 0x3f
10005a30:	d9eb      	bls.n	10005a0a <tud_cdc_n_read+0x32>
10005a32:	2000      	movs	r0, #0
10005a34:	78e1      	ldrb	r1, [r4, #3]
10005a36:	f7ff fe2f 	bl	10005698 <usbd_edpt_claim>
10005a3a:	2800      	cmp	r0, #0
10005a3c:	d0e5      	beq.n	10005a0a <tud_cdc_n_read+0x32>
10005a3e:	0028      	movs	r0, r5
10005a40:	f000 fca2 	bl	10006388 <tu_fifo_remaining>
10005a44:	283f      	cmp	r0, #63	@ 0x3f
10005a46:	d90a      	bls.n	10005a5e <tud_cdc_n_read+0x86>
10005a48:	2392      	movs	r3, #146	@ 0x92
10005a4a:	009b      	lsls	r3, r3, #2
10005a4c:	469c      	mov	ip, r3
10005a4e:	4466      	add	r6, ip
10005a50:	2340      	movs	r3, #64	@ 0x40
10005a52:	78e1      	ldrb	r1, [r4, #3]
10005a54:	19ba      	adds	r2, r7, r6
10005a56:	2000      	movs	r0, #0
10005a58:	f7ff fe46 	bl	100056e8 <usbd_edpt_xfer>
10005a5c:	e7d5      	b.n	10005a0a <tud_cdc_n_read+0x32>
10005a5e:	78e1      	ldrb	r1, [r4, #3]
10005a60:	2000      	movs	r0, #0
10005a62:	f7ff fe2d 	bl	100056c0 <usbd_edpt_release>
10005a66:	e7d0      	b.n	10005a0a <tud_cdc_n_read+0x32>
10005a68:	20001868 	.word	0x20001868
10005a6c:	0000ffff 	.word	0x0000ffff

10005a70 <tud_cdc_n_write_flush>:
10005a70:	b5f8      	push	{r3, r4, r5, r6, r7, lr}
10005a72:	0004      	movs	r4, r0
10005a74:	f7ff f926 	bl	10004cc4 <tud_mounted>
10005a78:	2800      	cmp	r0, #0
10005a7a:	d101      	bne.n	10005a80 <tud_cdc_n_write_flush+0x10>
10005a7c:	2000      	movs	r0, #0
10005a7e:	bdf8      	pop	{r3, r4, r5, r6, r7, pc}
10005a80:	f7ff f928 	bl	10004cd4 <tud_suspended>
10005a84:	2800      	cmp	r0, #0
10005a86:	d1f9      	bne.n	10005a7c <tud_cdc_n_write_flush+0xc>
10005a88:	23b2      	movs	r3, #178	@ 0xb2
10005a8a:	009b      	lsls	r3, r3, #2
10005a8c:	435c      	muls	r4, r3
10005a8e:	0025      	movs	r5, r4
10005a90:	4e14      	ldr	r6, [pc, #80]	@ (10005ae4 <tud_cdc_n_write_flush+0x74>)
10005a92:	3524      	adds	r5, #36	@ 0x24
10005a94:	19ad      	adds	r5, r5, r6
10005a96:	0028      	movs	r0, r5
10005a98:	f000 fc58 	bl	1000634c <tu_fifo_count>
10005a9c:	2800      	cmp	r0, #0
10005a9e:	d0ed      	beq.n	10005a7c <tud_cdc_n_write_flush+0xc>
10005aa0:	1937      	adds	r7, r6, r4
10005aa2:	2000      	movs	r0, #0
10005aa4:	78b9      	ldrb	r1, [r7, #2]
10005aa6:	f7ff fdf7 	bl	10005698 <usbd_edpt_claim>
10005aaa:	2800      	cmp	r0, #0
10005aac:	d0e6      	beq.n	10005a7c <tud_cdc_n_write_flush+0xc>
10005aae:	23a2      	movs	r3, #162	@ 0xa2
10005ab0:	009b      	lsls	r3, r3, #2
10005ab2:	469c      	mov	ip, r3
10005ab4:	4464      	add	r4, ip
10005ab6:	19a4      	adds	r4, r4, r6
10005ab8:	0021      	movs	r1, r4
10005aba:	0028      	movs	r0, r5
10005abc:	2240      	movs	r2, #64	@ 0x40
10005abe:	f000 fcc7 	bl	10006450 <tu_fifo_read_n>
10005ac2:	78b9      	ldrb	r1, [r7, #2]
10005ac4:	1e05      	subs	r5, r0, #0
10005ac6:	d008      	beq.n	10005ada <tud_cdc_n_write_flush+0x6a>
10005ac8:	0003      	movs	r3, r0
10005aca:	0022      	movs	r2, r4
10005acc:	2000      	movs	r0, #0
10005ace:	f7ff fe0b 	bl	100056e8 <usbd_edpt_xfer>
10005ad2:	2800      	cmp	r0, #0
10005ad4:	d0d2      	beq.n	10005a7c <tud_cdc_n_write_flush+0xc>
10005ad6:	0028      	movs	r0, r5
10005ad8:	e7d1      	b.n	10005a7e <tud_cdc_n_write_flush+0xe>
10005ada:	2000      	movs	r0, #0
10005adc:	f7ff fdf0 	bl	100056c0 <usbd_edpt_release>
10005ae0:	e7cc      	b.n	10005a7c <tud_cdc_n_write_flush+0xc>
10005ae2:	46c0      	nop			@ (mov r8, r8)
10005ae4:	20001868 	.word	0x20001868

10005ae8 <tud_cdc_n_write>:
10005ae8:	b570      	push	{r4, r5, r6, lr}
10005aea:	24b2      	movs	r4, #178	@ 0xb2
10005aec:	00a4      	lsls	r4, r4, #2
10005aee:	4344      	muls	r4, r0
10005af0:	4b0b      	ldr	r3, [pc, #44]	@ (10005b20 <tud_cdc_n_write+0x38>)
10005af2:	0005      	movs	r5, r0
10005af4:	18e4      	adds	r4, r4, r3
10005af6:	2380      	movs	r3, #128	@ 0x80
10005af8:	025b      	lsls	r3, r3, #9
10005afa:	429a      	cmp	r2, r3
10005afc:	d300      	bcc.n	10005b00 <tud_cdc_n_write+0x18>
10005afe:	4a09      	ldr	r2, [pc, #36]	@ (10005b24 <tud_cdc_n_write+0x3c>)
10005b00:	0020      	movs	r0, r4
10005b02:	b292      	uxth	r2, r2
10005b04:	f000 fd6c 	bl	100065e0 <tu_fifo_write_n>
10005b08:	0006      	movs	r6, r0
10005b0a:	0020      	movs	r0, r4
10005b0c:	f000 fc1e 	bl	1000634c <tu_fifo_count>
10005b10:	283f      	cmp	r0, #63	@ 0x3f
10005b12:	d801      	bhi.n	10005b18 <tud_cdc_n_write+0x30>
10005b14:	0030      	movs	r0, r6
10005b16:	bd70      	pop	{r4, r5, r6, pc}
10005b18:	0028      	movs	r0, r5
10005b1a:	f7ff ffa9 	bl	10005a70 <tud_cdc_n_write_flush>
10005b1e:	e7f9      	b.n	10005b14 <tud_cdc_n_write+0x2c>
10005b20:	2000188c 	.word	0x2000188c
10005b24:	0000ffff 	.word	0x0000ffff

10005b28 <tud_cdc_n_write_available>:
10005b28:	23b2      	movs	r3, #178	@ 0xb2
10005b2a:	009b      	lsls	r3, r3, #2
10005b2c:	4343      	muls	r3, r0
10005b2e:	b510      	push	{r4, lr}
10005b30:	4802      	ldr	r0, [pc, #8]	@ (10005b3c <tud_cdc_n_write_available+0x14>)
10005b32:	1818      	adds	r0, r3, r0
10005b34:	f000 fc28 	bl	10006388 <tu_fifo_remaining>
10005b38:	bd10      	pop	{r4, pc}
10005b3a:	46c0      	nop			@ (mov r8, r8)
10005b3c:	2000188c 	.word	0x2000188c

10005b40 <cdcd_init>:
10005b40:	22b2      	movs	r2, #178	@ 0xb2
10005b42:	b5f0      	push	{r4, r5, r6, r7, lr}
10005b44:	2500      	movs	r5, #0
10005b46:	4c1b      	ldr	r4, [pc, #108]	@ (10005bb4 <cdcd_init+0x74>)
10005b48:	b083      	sub	sp, #12
10005b4a:	2100      	movs	r1, #0
10005b4c:	0020      	movs	r0, r4
10005b4e:	0092      	lsls	r2, r2, #2
10005b50:	f7fc fd86 	bl	10002660 <__wrap_memset>
10005b54:	4b18      	ldr	r3, [pc, #96]	@ (10005bb8 <cdcd_init+0x78>)
10005b56:	2680      	movs	r6, #128	@ 0x80
10005b58:	701d      	strb	r5, [r3, #0]
10005b5a:	23ff      	movs	r3, #255	@ 0xff
10005b5c:	7163      	strb	r3, [r4, #5]
10005b5e:	23e1      	movs	r3, #225	@ 0xe1
10005b60:	025b      	lsls	r3, r3, #9
10005b62:	60a3      	str	r3, [r4, #8]
10005b64:	0021      	movs	r1, r4
10005b66:	2308      	movs	r3, #8
10005b68:	0020      	movs	r0, r4
10005b6a:	0076      	lsls	r6, r6, #1
10005b6c:	73a3      	strb	r3, [r4, #14]
10005b6e:	0032      	movs	r2, r6
10005b70:	3138      	adds	r1, #56	@ 0x38
10005b72:	9500      	str	r5, [sp, #0]
10005b74:	3b07      	subs	r3, #7
10005b76:	3010      	adds	r0, #16
10005b78:	f000 fbb2 	bl	100062e0 <tu_fifo_config>
10005b7c:	0021      	movs	r1, r4
10005b7e:	2301      	movs	r3, #1
10005b80:	0020      	movs	r0, r4
10005b82:	3139      	adds	r1, #57	@ 0x39
10005b84:	0032      	movs	r2, r6
10005b86:	31ff      	adds	r1, #255	@ 0xff
10005b88:	9300      	str	r3, [sp, #0]
10005b8a:	3024      	adds	r0, #36	@ 0x24
10005b8c:	f000 fba8 	bl	100062e0 <tu_fifo_config>
10005b90:	238e      	movs	r3, #142	@ 0x8e
10005b92:	009b      	lsls	r3, r3, #2
10005b94:	18e7      	adds	r7, r4, r3
10005b96:	0038      	movs	r0, r7
10005b98:	f7fa ff74 	bl	10000a84 <mutex_init>
10005b9c:	2390      	movs	r3, #144	@ 0x90
10005b9e:	009b      	lsls	r3, r3, #2
10005ba0:	18e6      	adds	r6, r4, r3
10005ba2:	0030      	movs	r0, r6
10005ba4:	f7fa ff6e 	bl	10000a84 <mutex_init>
10005ba8:	61e5      	str	r5, [r4, #28]
10005baa:	6227      	str	r7, [r4, #32]
10005bac:	6326      	str	r6, [r4, #48]	@ 0x30
10005bae:	6365      	str	r5, [r4, #52]	@ 0x34
10005bb0:	b003      	add	sp, #12
10005bb2:	bdf0      	pop	{r4, r5, r6, r7, pc}
10005bb4:	20001868 	.word	0x20001868
10005bb8:	20001864 	.word	0x20001864

10005bbc <cdcd_deinit>:
10005bbc:	4b0b      	ldr	r3, [pc, #44]	@ (10005bec <cdcd_deinit+0x30>)
10005bbe:	6b19      	ldr	r1, [r3, #48]	@ 0x30
10005bc0:	2900      	cmp	r1, #0
10005bc2:	d00a      	beq.n	10005bda <cdcd_deinit+0x1e>
10005bc4:	6a1a      	ldr	r2, [r3, #32]
10005bc6:	2a00      	cmp	r2, #0
10005bc8:	d00d      	beq.n	10005be6 <cdcd_deinit+0x2a>
10005bca:	2200      	movs	r2, #0
10005bcc:	621a      	str	r2, [r3, #32]
10005bce:	631a      	str	r2, [r3, #48]	@ 0x30
10005bd0:	61da      	str	r2, [r3, #28]
10005bd2:	2200      	movs	r2, #0
10005bd4:	635a      	str	r2, [r3, #52]	@ 0x34
10005bd6:	2001      	movs	r0, #1
10005bd8:	4770      	bx	lr
10005bda:	6a1a      	ldr	r2, [r3, #32]
10005bdc:	2a00      	cmp	r2, #0
10005bde:	d0fa      	beq.n	10005bd6 <cdcd_deinit+0x1a>
10005be0:	61d9      	str	r1, [r3, #28]
10005be2:	6219      	str	r1, [r3, #32]
10005be4:	e7f7      	b.n	10005bd6 <cdcd_deinit+0x1a>
10005be6:	631a      	str	r2, [r3, #48]	@ 0x30
10005be8:	e7f3      	b.n	10005bd2 <cdcd_deinit+0x16>
10005bea:	46c0      	nop			@ (mov r8, r8)
10005bec:	20001868 	.word	0x20001868

10005bf0 <cdcd_reset>:
10005bf0:	b570      	push	{r4, r5, r6, lr}
10005bf2:	4c0f      	ldr	r4, [pc, #60]	@ (10005c30 <cdcd_reset+0x40>)
10005bf4:	2205      	movs	r2, #5
10005bf6:	2100      	movs	r1, #0
10005bf8:	0020      	movs	r0, r4
10005bfa:	f7fc fd31 	bl	10002660 <__wrap_memset>
10005bfe:	4d0d      	ldr	r5, [pc, #52]	@ (10005c34 <cdcd_reset+0x44>)
10005c00:	782b      	ldrb	r3, [r5, #0]
10005c02:	07da      	lsls	r2, r3, #31
10005c04:	d507      	bpl.n	10005c16 <cdcd_reset+0x26>
10005c06:	4c0c      	ldr	r4, [pc, #48]	@ (10005c38 <cdcd_reset+0x48>)
10005c08:	079b      	lsls	r3, r3, #30
10005c0a:	d50c      	bpl.n	10005c26 <cdcd_reset+0x36>
10005c0c:	2101      	movs	r1, #1
10005c0e:	0020      	movs	r0, r4
10005c10:	f000 fdc2 	bl	10006798 <tu_fifo_set_overwritable>
10005c14:	bd70      	pop	{r4, r5, r6, pc}
10005c16:	0020      	movs	r0, r4
10005c18:	3010      	adds	r0, #16
10005c1a:	f000 fd9d 	bl	10006758 <tu_fifo_clear>
10005c1e:	782b      	ldrb	r3, [r5, #0]
10005c20:	4c05      	ldr	r4, [pc, #20]	@ (10005c38 <cdcd_reset+0x48>)
10005c22:	079b      	lsls	r3, r3, #30
10005c24:	d4f2      	bmi.n	10005c0c <cdcd_reset+0x1c>
10005c26:	0020      	movs	r0, r4
10005c28:	f000 fd96 	bl	10006758 <tu_fifo_clear>
10005c2c:	e7ee      	b.n	10005c0c <cdcd_reset+0x1c>
10005c2e:	46c0      	nop			@ (mov r8, r8)
10005c30:	20001868 	.word	0x20001868
10005c34:	20001864 	.word	0x20001864
10005c38:	2000188c 	.word	0x2000188c

10005c3c <cdcd_open>:
10005c3c:	b5f0      	push	{r4, r5, r6, r7, lr}
10005c3e:	46c6      	mov	lr, r8
10005c40:	b500      	push	{lr}
10005c42:	794b      	ldrb	r3, [r1, #5]
10005c44:	0006      	movs	r6, r0
10005c46:	b082      	sub	sp, #8
10005c48:	2b02      	cmp	r3, #2
10005c4a:	d102      	bne.n	10005c52 <cdcd_open+0x16>
10005c4c:	798b      	ldrb	r3, [r1, #6]
10005c4e:	2b02      	cmp	r3, #2
10005c50:	d005      	beq.n	10005c5e <cdcd_open+0x22>
10005c52:	2500      	movs	r5, #0
10005c54:	0028      	movs	r0, r5
10005c56:	b002      	add	sp, #8
10005c58:	bc80      	pop	{r7}
10005c5a:	46b8      	mov	r8, r7
10005c5c:	bdf0      	pop	{r4, r5, r6, r7, pc}
10005c5e:	4f21      	ldr	r7, [pc, #132]	@ (10005ce4 <cdcd_open+0xa8>)
10005c60:	78bb      	ldrb	r3, [r7, #2]
10005c62:	2b00      	cmp	r3, #0
10005c64:	d1f5      	bne.n	10005c52 <cdcd_open+0x16>
10005c66:	788b      	ldrb	r3, [r1, #2]
10005c68:	2509      	movs	r5, #9
10005c6a:	703b      	strb	r3, [r7, #0]
10005c6c:	780c      	ldrb	r4, [r1, #0]
10005c6e:	190c      	adds	r4, r1, r4
10005c70:	7863      	ldrb	r3, [r4, #1]
10005c72:	2b24      	cmp	r3, #36	@ 0x24
10005c74:	d10b      	bne.n	10005c8e <cdcd_open+0x52>
10005c76:	2a08      	cmp	r2, #8
10005c78:	d802      	bhi.n	10005c80 <cdcd_open+0x44>
10005c7a:	e021      	b.n	10005cc0 <cdcd_open+0x84>
10005c7c:	42aa      	cmp	r2, r5
10005c7e:	d31f      	bcc.n	10005cc0 <cdcd_open+0x84>
10005c80:	7823      	ldrb	r3, [r4, #0]
10005c82:	18e4      	adds	r4, r4, r3
10005c84:	195d      	adds	r5, r3, r5
10005c86:	7863      	ldrb	r3, [r4, #1]
10005c88:	b2ad      	uxth	r5, r5
10005c8a:	2b24      	cmp	r3, #36	@ 0x24
10005c8c:	d0f6      	beq.n	10005c7c <cdcd_open+0x40>
10005c8e:	2b05      	cmp	r3, #5
10005c90:	d01a      	beq.n	10005cc8 <cdcd_open+0x8c>
10005c92:	2b04      	cmp	r3, #4
10005c94:	d114      	bne.n	10005cc0 <cdcd_open+0x84>
10005c96:	7963      	ldrb	r3, [r4, #5]
10005c98:	2b0a      	cmp	r3, #10
10005c9a:	d111      	bne.n	10005cc0 <cdcd_open+0x84>
10005c9c:	7823      	ldrb	r3, [r4, #0]
10005c9e:	0021      	movs	r1, r4
10005ca0:	4698      	mov	r8, r3
10005ca2:	4b11      	ldr	r3, [pc, #68]	@ (10005ce8 <cdcd_open+0xac>)
10005ca4:	2202      	movs	r2, #2
10005ca6:	9301      	str	r3, [sp, #4]
10005ca8:	3301      	adds	r3, #1
10005caa:	9300      	str	r3, [sp, #0]
10005cac:	0030      	movs	r0, r6
10005cae:	2302      	movs	r3, #2
10005cb0:	4441      	add	r1, r8
10005cb2:	f7ff fc89 	bl	100055c8 <usbd_open_edpt_pair>
10005cb6:	2800      	cmp	r0, #0
10005cb8:	d0cb      	beq.n	10005c52 <cdcd_open+0x16>
10005cba:	350e      	adds	r5, #14
10005cbc:	4445      	add	r5, r8
10005cbe:	b2ad      	uxth	r5, r5
10005cc0:	0038      	movs	r0, r7
10005cc2:	f7ff fe37 	bl	10005934 <_prep_out_transaction.isra.0>
10005cc6:	e7c5      	b.n	10005c54 <cdcd_open+0x18>
10005cc8:	0021      	movs	r1, r4
10005cca:	0030      	movs	r0, r6
10005ccc:	f7ff fcca 	bl	10005664 <usbd_edpt_open>
10005cd0:	2800      	cmp	r0, #0
10005cd2:	d0be      	beq.n	10005c52 <cdcd_open+0x16>
10005cd4:	78a3      	ldrb	r3, [r4, #2]
10005cd6:	707b      	strb	r3, [r7, #1]
10005cd8:	7823      	ldrb	r3, [r4, #0]
10005cda:	195d      	adds	r5, r3, r5
10005cdc:	18e4      	adds	r4, r4, r3
10005cde:	7863      	ldrb	r3, [r4, #1]
10005ce0:	b2ad      	uxth	r5, r5
10005ce2:	e7d6      	b.n	10005c92 <cdcd_open+0x56>
10005ce4:	20001868 	.word	0x20001868
10005ce8:	2000186a 	.word	0x2000186a

10005cec <cdcd_control_xfer_cb>:
10005cec:	b5f8      	push	{r3, r4, r5, r6, r7, lr}
10005cee:	2360      	movs	r3, #96	@ 0x60
10005cf0:	0014      	movs	r4, r2
10005cf2:	7812      	ldrb	r2, [r2, #0]
10005cf4:	0005      	movs	r5, r0
10005cf6:	4013      	ands	r3, r2
10005cf8:	2000      	movs	r0, #0
10005cfa:	2b20      	cmp	r3, #32
10005cfc:	d112      	bne.n	10005d24 <cdcd_control_xfer_cb+0x38>
10005cfe:	4a2f      	ldr	r2, [pc, #188]	@ (10005dbc <cdcd_control_xfer_cb+0xd0>)
10005d00:	7963      	ldrb	r3, [r4, #5]
10005d02:	7927      	ldrb	r7, [r4, #4]
10005d04:	7816      	ldrb	r6, [r2, #0]
10005d06:	021b      	lsls	r3, r3, #8
10005d08:	433b      	orrs	r3, r7
10005d0a:	429e      	cmp	r6, r3
10005d0c:	d10a      	bne.n	10005d24 <cdcd_control_xfer_cb+0x38>
10005d0e:	7863      	ldrb	r3, [r4, #1]
10005d10:	2b22      	cmp	r3, #34	@ 0x22
10005d12:	d01a      	beq.n	10005d4a <cdcd_control_xfer_cb+0x5e>
10005d14:	d807      	bhi.n	10005d26 <cdcd_control_xfer_cb+0x3a>
10005d16:	2b20      	cmp	r3, #32
10005d18:	d03c      	beq.n	10005d94 <cdcd_control_xfer_cb+0xa8>
10005d1a:	2b21      	cmp	r3, #33	@ 0x21
10005d1c:	d102      	bne.n	10005d24 <cdcd_control_xfer_cb+0x38>
10005d1e:	2901      	cmp	r1, #1
10005d20:	d030      	beq.n	10005d84 <cdcd_control_xfer_cb+0x98>
10005d22:	2001      	movs	r0, #1
10005d24:	bdf8      	pop	{r3, r4, r5, r6, r7, pc}
10005d26:	2b23      	cmp	r3, #35	@ 0x23
10005d28:	d1fc      	bne.n	10005d24 <cdcd_control_xfer_cb+0x38>
10005d2a:	2901      	cmp	r1, #1
10005d2c:	d040      	beq.n	10005db0 <cdcd_control_xfer_cb+0xc4>
10005d2e:	2903      	cmp	r1, #3
10005d30:	d1f7      	bne.n	10005d22 <cdcd_control_xfer_cb+0x36>
10005d32:	4b23      	ldr	r3, [pc, #140]	@ (10005dc0 <cdcd_control_xfer_cb+0xd4>)
10005d34:	2b00      	cmp	r3, #0
10005d36:	d0f4      	beq.n	10005d22 <cdcd_control_xfer_cb+0x36>
10005d38:	78e1      	ldrb	r1, [r4, #3]
10005d3a:	78a3      	ldrb	r3, [r4, #2]
10005d3c:	0209      	lsls	r1, r1, #8
10005d3e:	2000      	movs	r0, #0
10005d40:	4319      	orrs	r1, r3
10005d42:	e000      	b.n	10005d46 <cdcd_control_xfer_cb+0x5a>
10005d44:	bf00      	nop
10005d46:	2001      	movs	r0, #1
10005d48:	e7ec      	b.n	10005d24 <cdcd_control_xfer_cb+0x38>
10005d4a:	2901      	cmp	r1, #1
10005d4c:	d030      	beq.n	10005db0 <cdcd_control_xfer_cb+0xc4>
10005d4e:	2903      	cmp	r1, #3
10005d50:	d1e7      	bne.n	10005d22 <cdcd_control_xfer_cb+0x36>
10005d52:	2501      	movs	r5, #1
10005d54:	002e      	movs	r6, r5
10005d56:	78a3      	ldrb	r3, [r4, #2]
10005d58:	78e4      	ldrb	r4, [r4, #3]
10005d5a:	3902      	subs	r1, #2
10005d5c:	0224      	lsls	r4, r4, #8
10005d5e:	431c      	orrs	r4, r3
10005d60:	7114      	strb	r4, [r2, #4]
10005d62:	4026      	ands	r6, r4
10005d64:	3224      	adds	r2, #36	@ 0x24
10005d66:	0010      	movs	r0, r2
10005d68:	4071      	eors	r1, r6
10005d6a:	f000 fd15 	bl	10006798 <tu_fifo_set_overwritable>
10005d6e:	4b15      	ldr	r3, [pc, #84]	@ (10005dc4 <cdcd_control_xfer_cb+0xd8>)
10005d70:	2b00      	cmp	r3, #0
10005d72:	d0d6      	beq.n	10005d22 <cdcd_control_xfer_cb+0x36>
10005d74:	0862      	lsrs	r2, r4, #1
10005d76:	2000      	movs	r0, #0
10005d78:	0031      	movs	r1, r6
10005d7a:	402a      	ands	r2, r5
10005d7c:	e000      	b.n	10005d80 <cdcd_control_xfer_cb+0x94>
10005d7e:	bf00      	nop
10005d80:	2001      	movs	r0, #1
10005d82:	e7cf      	b.n	10005d24 <cdcd_control_xfer_cb+0x38>
10005d84:	2307      	movs	r3, #7
10005d86:	0021      	movs	r1, r4
10005d88:	0028      	movs	r0, r5
10005d8a:	4a0f      	ldr	r2, [pc, #60]	@ (10005dc8 <cdcd_control_xfer_cb+0xdc>)
10005d8c:	f7ff fce8 	bl	10005760 <tud_control_xfer>
10005d90:	2001      	movs	r0, #1
10005d92:	e7c7      	b.n	10005d24 <cdcd_control_xfer_cb+0x38>
10005d94:	2901      	cmp	r1, #1
10005d96:	d0f5      	beq.n	10005d84 <cdcd_control_xfer_cb+0x98>
10005d98:	2903      	cmp	r1, #3
10005d9a:	d1c2      	bne.n	10005d22 <cdcd_control_xfer_cb+0x36>
10005d9c:	4b0b      	ldr	r3, [pc, #44]	@ (10005dcc <cdcd_control_xfer_cb+0xe0>)
10005d9e:	2b00      	cmp	r3, #0
10005da0:	d0bf      	beq.n	10005d22 <cdcd_control_xfer_cb+0x36>
10005da2:	3208      	adds	r2, #8
10005da4:	2000      	movs	r0, #0
10005da6:	0011      	movs	r1, r2
10005da8:	f7fe fa9c 	bl	100042e4 <tud_cdc_line_coding_cb>
10005dac:	2001      	movs	r0, #1
10005dae:	e7b9      	b.n	10005d24 <cdcd_control_xfer_cb+0x38>
10005db0:	0021      	movs	r1, r4
10005db2:	0028      	movs	r0, r5
10005db4:	f7ff fcbe 	bl	10005734 <tud_control_status>
10005db8:	2001      	movs	r0, #1
10005dba:	e7b3      	b.n	10005d24 <cdcd_control_xfer_cb+0x38>
10005dbc:	20001868 	.word	0x20001868
	...
10005dc8:	20001870 	.word	0x20001870
10005dcc:	100042e5 	.word	0x100042e5

10005dd0 <cdcd_xfer_cb>:
10005dd0:	b5f0      	push	{r4, r5, r6, r7, lr}
10005dd2:	464f      	mov	r7, r9
10005dd4:	4646      	mov	r6, r8
10005dd6:	46d6      	mov	lr, sl
10005dd8:	4d37      	ldr	r5, [pc, #220]	@ (10005eb8 <cdcd_xfer_cb+0xe8>)
10005dda:	b5c0      	push	{r6, r7, lr}
10005ddc:	78ea      	ldrb	r2, [r5, #3]
10005dde:	001f      	movs	r7, r3
10005de0:	4680      	mov	r8, r0
10005de2:	000c      	movs	r4, r1
10005de4:	78ab      	ldrb	r3, [r5, #2]
10005de6:	428a      	cmp	r2, r1
10005de8:	d03b      	beq.n	10005e62 <cdcd_xfer_cb+0x92>
10005dea:	428b      	cmp	r3, r1
10005dec:	d010      	beq.n	10005e10 <cdcd_xfer_cb+0x40>
10005dee:	2000      	movs	r0, #0
10005df0:	bce0      	pop	{r5, r6, r7}
10005df2:	46ba      	mov	sl, r7
10005df4:	46b1      	mov	r9, r6
10005df6:	46a8      	mov	r8, r5
10005df8:	bdf0      	pop	{r4, r5, r6, r7, pc}
10005dfa:	4b30      	ldr	r3, [pc, #192]	@ (10005ebc <cdcd_xfer_cb+0xec>)
10005dfc:	2b00      	cmp	r3, #0
10005dfe:	d004      	beq.n	10005e0a <cdcd_xfer_cb+0x3a>
10005e00:	482f      	ldr	r0, [pc, #188]	@ (10005ec0 <cdcd_xfer_cb+0xf0>)
10005e02:	f000 fab9 	bl	10006378 <tu_fifo_empty>
10005e06:	2800      	cmp	r0, #0
10005e08:	d053      	beq.n	10005eb2 <cdcd_xfer_cb+0xe2>
10005e0a:	0028      	movs	r0, r5
10005e0c:	f7ff fd92 	bl	10005934 <_prep_out_transaction.isra.0>
10005e10:	78ab      	ldrb	r3, [r5, #2]
10005e12:	42a3      	cmp	r3, r4
10005e14:	d001      	beq.n	10005e1a <cdcd_xfer_cb+0x4a>
10005e16:	2001      	movs	r0, #1
10005e18:	e7ea      	b.n	10005df0 <cdcd_xfer_cb+0x20>
10005e1a:	4b2a      	ldr	r3, [pc, #168]	@ (10005ec4 <cdcd_xfer_cb+0xf4>)
10005e1c:	2b00      	cmp	r3, #0
10005e1e:	d002      	beq.n	10005e26 <cdcd_xfer_cb+0x56>
10005e20:	2000      	movs	r0, #0
10005e22:	e000      	b.n	10005e26 <cdcd_xfer_cb+0x56>
10005e24:	bf00      	nop
10005e26:	2000      	movs	r0, #0
10005e28:	f7ff fe22 	bl	10005a70 <tud_cdc_n_write_flush>
10005e2c:	2800      	cmp	r0, #0
10005e2e:	d1f2      	bne.n	10005e16 <cdcd_xfer_cb+0x46>
10005e30:	4c25      	ldr	r4, [pc, #148]	@ (10005ec8 <cdcd_xfer_cb+0xf8>)
10005e32:	0020      	movs	r0, r4
10005e34:	f000 fa8a 	bl	1000634c <tu_fifo_count>
10005e38:	2800      	cmp	r0, #0
10005e3a:	d1ec      	bne.n	10005e16 <cdcd_xfer_cb+0x46>
10005e3c:	2f00      	cmp	r7, #0
10005e3e:	d0ea      	beq.n	10005e16 <cdcd_xfer_cb+0x46>
10005e40:	06bf      	lsls	r7, r7, #26
10005e42:	d1e8      	bne.n	10005e16 <cdcd_xfer_cb+0x46>
10005e44:	3c24      	subs	r4, #36	@ 0x24
10005e46:	4640      	mov	r0, r8
10005e48:	78a1      	ldrb	r1, [r4, #2]
10005e4a:	f7ff fc25 	bl	10005698 <usbd_edpt_claim>
10005e4e:	2800      	cmp	r0, #0
10005e50:	d0e1      	beq.n	10005e16 <cdcd_xfer_cb+0x46>
10005e52:	2300      	movs	r3, #0
10005e54:	2200      	movs	r2, #0
10005e56:	4640      	mov	r0, r8
10005e58:	78a1      	ldrb	r1, [r4, #2]
10005e5a:	f7ff fc45 	bl	100056e8 <usbd_edpt_xfer>
10005e5e:	2001      	movs	r0, #1
10005e60:	e7c6      	b.n	10005df0 <cdcd_xfer_cb+0x20>
10005e62:	2392      	movs	r3, #146	@ 0x92
10005e64:	009b      	lsls	r3, r3, #2
10005e66:	18ee      	adds	r6, r5, r3
10005e68:	2310      	movs	r3, #16
10005e6a:	469a      	mov	sl, r3
10005e6c:	44aa      	add	sl, r5
10005e6e:	0031      	movs	r1, r6
10005e70:	4650      	mov	r0, sl
10005e72:	b2ba      	uxth	r2, r7
10005e74:	f000 fbb4 	bl	100065e0 <tu_fifo_write_n>
10005e78:	4b14      	ldr	r3, [pc, #80]	@ (10005ecc <cdcd_xfer_cb+0xfc>)
10005e7a:	2b00      	cmp	r3, #0
10005e7c:	d0bd      	beq.n	10005dfa <cdcd_xfer_cb+0x2a>
10005e7e:	796b      	ldrb	r3, [r5, #5]
10005e80:	2bff      	cmp	r3, #255	@ 0xff
10005e82:	d0ba      	beq.n	10005dfa <cdcd_xfer_cb+0x2a>
10005e84:	2f00      	cmp	r7, #0
10005e86:	d0b8      	beq.n	10005dfa <cdcd_xfer_cb+0x2a>
10005e88:	19f2      	adds	r2, r6, r7
10005e8a:	4691      	mov	r9, r2
10005e8c:	e003      	b.n	10005e96 <cdcd_xfer_cb+0xc6>
10005e8e:	3601      	adds	r6, #1
10005e90:	45b1      	cmp	r9, r6
10005e92:	d0b2      	beq.n	10005dfa <cdcd_xfer_cb+0x2a>
10005e94:	796b      	ldrb	r3, [r5, #5]
10005e96:	7832      	ldrb	r2, [r6, #0]
10005e98:	429a      	cmp	r2, r3
10005e9a:	d1f8      	bne.n	10005e8e <cdcd_xfer_cb+0xbe>
10005e9c:	4650      	mov	r0, sl
10005e9e:	f000 fa6b 	bl	10006378 <tu_fifo_empty>
10005ea2:	2800      	cmp	r0, #0
10005ea4:	d1f3      	bne.n	10005e8e <cdcd_xfer_cb+0xbe>
10005ea6:	4653      	mov	r3, sl
10005ea8:	3b10      	subs	r3, #16
10005eaa:	7959      	ldrb	r1, [r3, #5]
10005eac:	e000      	b.n	10005eb0 <cdcd_xfer_cb+0xe0>
10005eae:	bf00      	nop
10005eb0:	e7ed      	b.n	10005e8e <cdcd_xfer_cb+0xbe>
10005eb2:	e000      	b.n	10005eb6 <cdcd_xfer_cb+0xe6>
10005eb4:	bf00      	nop
10005eb6:	e7a8      	b.n	10005e0a <cdcd_xfer_cb+0x3a>
10005eb8:	20001868 	.word	0x20001868
10005ebc:	00000000 	.word	0x00000000
10005ec0:	20001878 	.word	0x20001878
10005ec4:	00000000 	.word	0x00000000
10005ec8:	2000188c 	.word	0x2000188c
10005ecc:	00000000 	.word	0x00000000

10005ed0 <tud_vendor_n_write_flush>:
10005ed0:	b5f8      	push	{r3, r4, r5, r6, r7, lr}
10005ed2:	0004      	movs	r4, r0
10005ed4:	f7fe fef6 	bl	10004cc4 <tud_mounted>
10005ed8:	2800      	cmp	r0, #0
10005eda:	d101      	bne.n	10005ee0 <tud_vendor_n_write_flush+0x10>
10005edc:	2000      	movs	r0, #0
10005ede:	bdf8      	pop	{r3, r4, r5, r6, r7, pc}
10005ee0:	f7fe fef8 	bl	10004cd4 <tud_suspended>
10005ee4:	2800      	cmp	r0, #0
10005ee6:	d1f9      	bne.n	10005edc <tud_vendor_n_write_flush+0xc>
10005ee8:	23af      	movs	r3, #175	@ 0xaf
10005eea:	009b      	lsls	r3, r3, #2
10005eec:	435c      	muls	r4, r3
10005eee:	0025      	movs	r5, r4
10005ef0:	4e14      	ldr	r6, [pc, #80]	@ (10005f44 <tud_vendor_n_write_flush+0x74>)
10005ef2:	3518      	adds	r5, #24
10005ef4:	19ad      	adds	r5, r5, r6
10005ef6:	0028      	movs	r0, r5
10005ef8:	f000 fa28 	bl	1000634c <tu_fifo_count>
10005efc:	2800      	cmp	r0, #0
10005efe:	d0ed      	beq.n	10005edc <tud_vendor_n_write_flush+0xc>
10005f00:	1937      	adds	r7, r6, r4
10005f02:	2000      	movs	r0, #0
10005f04:	7879      	ldrb	r1, [r7, #1]
10005f06:	f7ff fbc7 	bl	10005698 <usbd_edpt_claim>
10005f0a:	2800      	cmp	r0, #0
10005f0c:	d0e6      	beq.n	10005edc <tud_vendor_n_write_flush+0xc>
10005f0e:	239f      	movs	r3, #159	@ 0x9f
10005f10:	009b      	lsls	r3, r3, #2
10005f12:	469c      	mov	ip, r3
10005f14:	4464      	add	r4, ip
10005f16:	19a4      	adds	r4, r4, r6
10005f18:	0021      	movs	r1, r4
10005f1a:	0028      	movs	r0, r5
10005f1c:	2240      	movs	r2, #64	@ 0x40
10005f1e:	f000 fa97 	bl	10006450 <tu_fifo_read_n>
10005f22:	7879      	ldrb	r1, [r7, #1]
10005f24:	1e05      	subs	r5, r0, #0
10005f26:	d008      	beq.n	10005f3a <tud_vendor_n_write_flush+0x6a>
10005f28:	0003      	movs	r3, r0
10005f2a:	0022      	movs	r2, r4
10005f2c:	2000      	movs	r0, #0
10005f2e:	f7ff fbdb 	bl	100056e8 <usbd_edpt_xfer>
10005f32:	2800      	cmp	r0, #0
10005f34:	d0d2      	beq.n	10005edc <tud_vendor_n_write_flush+0xc>
10005f36:	0028      	movs	r0, r5
10005f38:	e7d1      	b.n	10005ede <tud_vendor_n_write_flush+0xe>
10005f3a:	2000      	movs	r0, #0
10005f3c:	f7ff fbc0 	bl	100056c0 <usbd_edpt_release>
10005f40:	e7cc      	b.n	10005edc <tud_vendor_n_write_flush+0xc>
10005f42:	46c0      	nop			@ (mov r8, r8)
10005f44:	20001068 	.word	0x20001068

10005f48 <vendord_init>:
10005f48:	22af      	movs	r2, #175	@ 0xaf
10005f4a:	b5f0      	push	{r4, r5, r6, r7, lr}
10005f4c:	4c16      	ldr	r4, [pc, #88]	@ (10005fa8 <vendord_init+0x60>)
10005f4e:	b083      	sub	sp, #12
10005f50:	2100      	movs	r1, #0
10005f52:	0020      	movs	r0, r4
10005f54:	0092      	lsls	r2, r2, #2
10005f56:	2680      	movs	r6, #128	@ 0x80
10005f58:	f7fc fb82 	bl	10002660 <__wrap_memset>
10005f5c:	2500      	movs	r5, #0
10005f5e:	0021      	movs	r1, r4
10005f60:	0076      	lsls	r6, r6, #1
10005f62:	0032      	movs	r2, r6
10005f64:	2301      	movs	r3, #1
10005f66:	312c      	adds	r1, #44	@ 0x2c
10005f68:	1d20      	adds	r0, r4, #4
10005f6a:	9500      	str	r5, [sp, #0]
10005f6c:	f000 f9b8 	bl	100062e0 <tu_fifo_config>
10005f70:	0021      	movs	r1, r4
10005f72:	0020      	movs	r0, r4
10005f74:	312d      	adds	r1, #45	@ 0x2d
10005f76:	0032      	movs	r2, r6
10005f78:	31ff      	adds	r1, #255	@ 0xff
10005f7a:	2301      	movs	r3, #1
10005f7c:	9500      	str	r5, [sp, #0]
10005f7e:	3018      	adds	r0, #24
10005f80:	f000 f9ae 	bl	100062e0 <tu_fifo_config>
10005f84:	238b      	movs	r3, #139	@ 0x8b
10005f86:	009b      	lsls	r3, r3, #2
10005f88:	18e7      	adds	r7, r4, r3
10005f8a:	0038      	movs	r0, r7
10005f8c:	f7fa fd7a 	bl	10000a84 <mutex_init>
10005f90:	238d      	movs	r3, #141	@ 0x8d
10005f92:	009b      	lsls	r3, r3, #2
10005f94:	18e6      	adds	r6, r4, r3
10005f96:	0030      	movs	r0, r6
10005f98:	f7fa fd74 	bl	10000a84 <mutex_init>
10005f9c:	6125      	str	r5, [r4, #16]
10005f9e:	6167      	str	r7, [r4, #20]
10005fa0:	6266      	str	r6, [r4, #36]	@ 0x24
10005fa2:	62a5      	str	r5, [r4, #40]	@ 0x28
10005fa4:	b003      	add	sp, #12
10005fa6:	bdf0      	pop	{r4, r5, r6, r7, pc}
10005fa8:	20001068 	.word	0x20001068

10005fac <vendord_deinit>:
10005fac:	4b0b      	ldr	r3, [pc, #44]	@ (10005fdc <vendord_deinit+0x30>)
10005fae:	6a5a      	ldr	r2, [r3, #36]	@ 0x24
10005fb0:	2a00      	cmp	r2, #0
10005fb2:	d00b      	beq.n	10005fcc <vendord_deinit+0x20>
10005fb4:	695a      	ldr	r2, [r3, #20]
10005fb6:	2a00      	cmp	r2, #0
10005fb8:	d003      	beq.n	10005fc2 <vendord_deinit+0x16>
10005fba:	2000      	movs	r0, #0
10005fbc:	2100      	movs	r1, #0
10005fbe:	6118      	str	r0, [r3, #16]
10005fc0:	6159      	str	r1, [r3, #20]
10005fc2:	2200      	movs	r2, #0
10005fc4:	625a      	str	r2, [r3, #36]	@ 0x24
10005fc6:	629a      	str	r2, [r3, #40]	@ 0x28
10005fc8:	2001      	movs	r0, #1
10005fca:	4770      	bx	lr
10005fcc:	695a      	ldr	r2, [r3, #20]
10005fce:	2a00      	cmp	r2, #0
10005fd0:	d0fa      	beq.n	10005fc8 <vendord_deinit+0x1c>
10005fd2:	2000      	movs	r0, #0
10005fd4:	2100      	movs	r1, #0
10005fd6:	6118      	str	r0, [r3, #16]
10005fd8:	6159      	str	r1, [r3, #20]
10005fda:	e7f5      	b.n	10005fc8 <vendord_deinit+0x1c>
10005fdc:	20001068 	.word	0x20001068

10005fe0 <vendord_reset>:
10005fe0:	b510      	push	{r4, lr}
10005fe2:	4c05      	ldr	r4, [pc, #20]	@ (10005ff8 <vendord_reset+0x18>)
10005fe4:	2300      	movs	r3, #0
10005fe6:	0020      	movs	r0, r4
10005fe8:	c008      	stmia	r0!, {r3}
10005fea:	f000 fbb5 	bl	10006758 <tu_fifo_clear>
10005fee:	0020      	movs	r0, r4
10005ff0:	3018      	adds	r0, #24
10005ff2:	f000 fbb1 	bl	10006758 <tu_fifo_clear>
10005ff6:	bd10      	pop	{r4, pc}
10005ff8:	20001068 	.word	0x20001068

10005ffc <vendord_open>:
10005ffc:	b5f0      	push	{r4, r5, r6, r7, lr}
10005ffe:	46ce      	mov	lr, r9
10006000:	4647      	mov	r7, r8
10006002:	b580      	push	{r7, lr}
10006004:	794b      	ldrb	r3, [r1, #5]
10006006:	000d      	movs	r5, r1
10006008:	b083      	sub	sp, #12
1000600a:	2bff      	cmp	r3, #255	@ 0xff
1000600c:	d107      	bne.n	1000601e <vendord_open+0x22>
1000600e:	4e2e      	ldr	r6, [pc, #184]	@ (100060c8 <vendord_open+0xcc>)
10006010:	780c      	ldrb	r4, [r1, #0]
10006012:	7873      	ldrb	r3, [r6, #1]
10006014:	78b1      	ldrb	r1, [r6, #2]
10006016:	2b00      	cmp	r3, #0
10006018:	d101      	bne.n	1000601e <vendord_open+0x22>
1000601a:	2900      	cmp	r1, #0
1000601c:	d005      	beq.n	1000602a <vendord_open+0x2e>
1000601e:	2000      	movs	r0, #0
10006020:	b003      	add	sp, #12
10006022:	bcc0      	pop	{r6, r7}
10006024:	46b9      	mov	r9, r7
10006026:	46b0      	mov	r8, r6
10006028:	bdf0      	pop	{r4, r5, r6, r7, pc}
1000602a:	78ab      	ldrb	r3, [r5, #2]
1000602c:	192c      	adds	r4, r5, r4
1000602e:	7033      	strb	r3, [r6, #0]
10006030:	792f      	ldrb	r7, [r5, #4]
10006032:	2f00      	cmp	r7, #0
10006034:	d026      	beq.n	10006084 <vendord_open+0x88>
10006036:	7863      	ldrb	r3, [r4, #1]
10006038:	2b05      	cmp	r3, #5
1000603a:	d008      	beq.n	1000604e <vendord_open+0x52>
1000603c:	18a2      	adds	r2, r4, r2
1000603e:	e004      	b.n	1000604a <vendord_open+0x4e>
10006040:	7821      	ldrb	r1, [r4, #0]
10006042:	1864      	adds	r4, r4, r1
10006044:	7861      	ldrb	r1, [r4, #1]
10006046:	2905      	cmp	r1, #5
10006048:	d001      	beq.n	1000604e <vendord_open+0x52>
1000604a:	4294      	cmp	r4, r2
1000604c:	d3f8      	bcc.n	10006040 <vendord_open+0x44>
1000604e:	4b1f      	ldr	r3, [pc, #124]	@ (100060cc <vendord_open+0xd0>)
10006050:	003a      	movs	r2, r7
10006052:	4698      	mov	r8, r3
10006054:	9301      	str	r3, [sp, #4]
10006056:	3301      	adds	r3, #1
10006058:	9300      	str	r3, [sp, #0]
1000605a:	0021      	movs	r1, r4
1000605c:	2302      	movs	r3, #2
1000605e:	f7ff fab3 	bl	100055c8 <usbd_open_edpt_pair>
10006062:	2800      	cmp	r0, #0
10006064:	d0db      	beq.n	1000601e <vendord_open+0x22>
10006066:	2301      	movs	r3, #1
10006068:	425b      	negs	r3, r3
1000606a:	4443      	add	r3, r8
1000606c:	4699      	mov	r9, r3
1000606e:	4643      	mov	r3, r8
10006070:	7859      	ldrb	r1, [r3, #1]
10006072:	792f      	ldrb	r7, [r5, #4]
10006074:	2900      	cmp	r1, #0
10006076:	d10c      	bne.n	10006092 <vendord_open+0x96>
10006078:	7873      	ldrb	r3, [r6, #1]
1000607a:	2b00      	cmp	r3, #0
1000607c:	d105      	bne.n	1000608a <vendord_open+0x8e>
1000607e:	00fb      	lsls	r3, r7, #3
10006080:	1bdb      	subs	r3, r3, r7
10006082:	18e4      	adds	r4, r4, r3
10006084:	1b60      	subs	r0, r4, r5
10006086:	b280      	uxth	r0, r0
10006088:	e7ca      	b.n	10006020 <vendord_open+0x24>
1000608a:	2000      	movs	r0, #0
1000608c:	f7ff ff20 	bl	10005ed0 <tud_vendor_n_write_flush>
10006090:	e7f5      	b.n	1000607e <vendord_open+0x82>
10006092:	2000      	movs	r0, #0
10006094:	f7ff fb00 	bl	10005698 <usbd_edpt_claim>
10006098:	2800      	cmp	r0, #0
1000609a:	d0ed      	beq.n	10006078 <vendord_open+0x7c>
1000609c:	4643      	mov	r3, r8
1000609e:	1cd8      	adds	r0, r3, #3
100060a0:	f000 f972 	bl	10006388 <tu_fifo_remaining>
100060a4:	283f      	cmp	r0, #63	@ 0x3f
100060a6:	d908      	bls.n	100060ba <vendord_open+0xbe>
100060a8:	464b      	mov	r3, r9
100060aa:	4a09      	ldr	r2, [pc, #36]	@ (100060d0 <vendord_open+0xd4>)
100060ac:	7899      	ldrb	r1, [r3, #2]
100060ae:	4442      	add	r2, r8
100060b0:	2340      	movs	r3, #64	@ 0x40
100060b2:	2000      	movs	r0, #0
100060b4:	f7ff fb18 	bl	100056e8 <usbd_edpt_xfer>
100060b8:	e7de      	b.n	10006078 <vendord_open+0x7c>
100060ba:	464b      	mov	r3, r9
100060bc:	2000      	movs	r0, #0
100060be:	7899      	ldrb	r1, [r3, #2]
100060c0:	f7ff fafe 	bl	100056c0 <usbd_edpt_release>
100060c4:	e7d8      	b.n	10006078 <vendord_open+0x7c>
100060c6:	46c0      	nop			@ (mov r8, r8)
100060c8:	20001068 	.word	0x20001068
100060cc:	20001069 	.word	0x20001069
100060d0:	0000023b 	.word	0x0000023b

100060d4 <vendord_xfer_cb>:
100060d4:	b570      	push	{r4, r5, r6, lr}
100060d6:	4c2d      	ldr	r4, [pc, #180]	@ (1000618c <vendord_xfer_cb+0xb8>)
100060d8:	0006      	movs	r6, r0
100060da:	78a2      	ldrb	r2, [r4, #2]
100060dc:	001d      	movs	r5, r3
100060de:	428a      	cmp	r2, r1
100060e0:	d012      	beq.n	10006108 <vendord_xfer_cb+0x34>
100060e2:	7863      	ldrb	r3, [r4, #1]
100060e4:	2000      	movs	r0, #0
100060e6:	428b      	cmp	r3, r1
100060e8:	d10d      	bne.n	10006106 <vendord_xfer_cb+0x32>
100060ea:	4b29      	ldr	r3, [pc, #164]	@ (10006190 <vendord_xfer_cb+0xbc>)
100060ec:	2b00      	cmp	r3, #0
100060ee:	d004      	beq.n	100060fa <vendord_xfer_cb+0x26>
100060f0:	0429      	lsls	r1, r5, #16
100060f2:	2000      	movs	r0, #0
100060f4:	0c09      	lsrs	r1, r1, #16
100060f6:	e000      	b.n	100060fa <vendord_xfer_cb+0x26>
100060f8:	bf00      	nop
100060fa:	2000      	movs	r0, #0
100060fc:	f7ff fee8 	bl	10005ed0 <tud_vendor_n_write_flush>
10006100:	2800      	cmp	r0, #0
10006102:	d024      	beq.n	1000614e <vendord_xfer_cb+0x7a>
10006104:	2001      	movs	r0, #1
10006106:	bd70      	pop	{r4, r5, r6, pc}
10006108:	b29a      	uxth	r2, r3
1000610a:	238f      	movs	r3, #143	@ 0x8f
1000610c:	009b      	lsls	r3, r3, #2
1000610e:	18e1      	adds	r1, r4, r3
10006110:	1d20      	adds	r0, r4, #4
10006112:	f000 fa65 	bl	100065e0 <tu_fifo_write_n>
10006116:	4b1f      	ldr	r3, [pc, #124]	@ (10006194 <vendord_xfer_cb+0xc0>)
10006118:	2b00      	cmp	r3, #0
1000611a:	d002      	beq.n	10006122 <vendord_xfer_cb+0x4e>
1000611c:	2000      	movs	r0, #0
1000611e:	e000      	b.n	10006122 <vendord_xfer_cb+0x4e>
10006120:	bf00      	nop
10006122:	2000      	movs	r0, #0
10006124:	78a1      	ldrb	r1, [r4, #2]
10006126:	f7ff fab7 	bl	10005698 <usbd_edpt_claim>
1000612a:	2800      	cmp	r0, #0
1000612c:	d0ea      	beq.n	10006104 <vendord_xfer_cb+0x30>
1000612e:	1d20      	adds	r0, r4, #4
10006130:	f000 f92a 	bl	10006388 <tu_fifo_remaining>
10006134:	283f      	cmp	r0, #63	@ 0x3f
10006136:	d923      	bls.n	10006180 <vendord_xfer_cb+0xac>
10006138:	238f      	movs	r3, #143	@ 0x8f
1000613a:	009b      	lsls	r3, r3, #2
1000613c:	18e2      	adds	r2, r4, r3
1000613e:	3bfd      	subs	r3, #253	@ 0xfd
10006140:	2000      	movs	r0, #0
10006142:	78a1      	ldrb	r1, [r4, #2]
10006144:	3bff      	subs	r3, #255	@ 0xff
10006146:	f7ff facf 	bl	100056e8 <usbd_edpt_xfer>
1000614a:	2001      	movs	r0, #1
1000614c:	e7db      	b.n	10006106 <vendord_xfer_cb+0x32>
1000614e:	4c12      	ldr	r4, [pc, #72]	@ (10006198 <vendord_xfer_cb+0xc4>)
10006150:	0020      	movs	r0, r4
10006152:	f000 f8fb 	bl	1000634c <tu_fifo_count>
10006156:	2800      	cmp	r0, #0
10006158:	d1d4      	bne.n	10006104 <vendord_xfer_cb+0x30>
1000615a:	2d00      	cmp	r5, #0
1000615c:	d0d2      	beq.n	10006104 <vendord_xfer_cb+0x30>
1000615e:	06ad      	lsls	r5, r5, #26
10006160:	d1d0      	bne.n	10006104 <vendord_xfer_cb+0x30>
10006162:	3c18      	subs	r4, #24
10006164:	0030      	movs	r0, r6
10006166:	7861      	ldrb	r1, [r4, #1]
10006168:	f7ff fa96 	bl	10005698 <usbd_edpt_claim>
1000616c:	2800      	cmp	r0, #0
1000616e:	d0c9      	beq.n	10006104 <vendord_xfer_cb+0x30>
10006170:	2300      	movs	r3, #0
10006172:	0030      	movs	r0, r6
10006174:	001a      	movs	r2, r3
10006176:	7861      	ldrb	r1, [r4, #1]
10006178:	f7ff fab6 	bl	100056e8 <usbd_edpt_xfer>
1000617c:	2001      	movs	r0, #1
1000617e:	e7c2      	b.n	10006106 <vendord_xfer_cb+0x32>
10006180:	2000      	movs	r0, #0
10006182:	78a1      	ldrb	r1, [r4, #2]
10006184:	f7ff fa9c 	bl	100056c0 <usbd_edpt_release>
10006188:	2001      	movs	r0, #1
1000618a:	e7bc      	b.n	10006106 <vendord_xfer_cb+0x32>
1000618c:	20001068 	.word	0x20001068
	...
10006198:	20001080 	.word	0x20001080

1000619c <tusb_init>:
1000619c:	b510      	push	{r4, lr}
1000619e:	2000      	movs	r0, #0
100061a0:	f7fe fda0 	bl	10004ce4 <tud_init>
100061a4:	bd10      	pop	{r4, pc}
100061a6:	46c0      	nop			@ (mov r8, r8)

100061a8 <tu_edpt_claim>:
100061a8:	7803      	ldrb	r3, [r0, #0]
100061aa:	b570      	push	{r4, r5, r6, lr}
100061ac:	07db      	lsls	r3, r3, #31
100061ae:	0004      	movs	r4, r0
100061b0:	000e      	movs	r6, r1
100061b2:	0fdd      	lsrs	r5, r3, #31
100061b4:	2b00      	cmp	r3, #0
100061b6:	d117      	bne.n	100061e8 <tu_edpt_claim+0x40>
100061b8:	7803      	ldrb	r3, [r0, #0]
100061ba:	075b      	lsls	r3, r3, #29
100061bc:	d501      	bpl.n	100061c2 <tu_edpt_claim+0x1a>
100061be:	0028      	movs	r0, r5
100061c0:	bd70      	pop	{r4, r5, r6, pc}
100061c2:	2101      	movs	r1, #1
100061c4:	0030      	movs	r0, r6
100061c6:	4249      	negs	r1, r1
100061c8:	f000 fd06 	bl	10006bd8 <__mutex_enter_timeout_ms_veneer>
100061cc:	7823      	ldrb	r3, [r4, #0]
100061ce:	07db      	lsls	r3, r3, #31
100061d0:	0fdd      	lsrs	r5, r3, #31
100061d2:	2b00      	cmp	r3, #0
100061d4:	d10a      	bne.n	100061ec <tu_edpt_claim+0x44>
100061d6:	7823      	ldrb	r3, [r4, #0]
100061d8:	075b      	lsls	r3, r3, #29
100061da:	d408      	bmi.n	100061ee <tu_edpt_claim+0x46>
100061dc:	2204      	movs	r2, #4
100061de:	7823      	ldrb	r3, [r4, #0]
100061e0:	2501      	movs	r5, #1
100061e2:	4313      	orrs	r3, r2
100061e4:	7023      	strb	r3, [r4, #0]
100061e6:	e002      	b.n	100061ee <tu_edpt_claim+0x46>
100061e8:	2500      	movs	r5, #0
100061ea:	e7e8      	b.n	100061be <tu_edpt_claim+0x16>
100061ec:	2500      	movs	r5, #0
100061ee:	0030      	movs	r0, r6
100061f0:	f000 fcca 	bl	10006b88 <__mutex_exit_veneer>
100061f4:	e7e3      	b.n	100061be <tu_edpt_claim+0x16>
100061f6:	46c0      	nop			@ (mov r8, r8)

100061f8 <tu_edpt_release>:
100061f8:	b570      	push	{r4, r5, r6, lr}
100061fa:	000c      	movs	r4, r1
100061fc:	2101      	movs	r1, #1
100061fe:	0006      	movs	r6, r0
10006200:	4249      	negs	r1, r1
10006202:	0020      	movs	r0, r4
10006204:	f000 fce8 	bl	10006bd8 <__mutex_enter_timeout_ms_veneer>
10006208:	7833      	ldrb	r3, [r6, #0]
1000620a:	075b      	lsls	r3, r3, #29
1000620c:	0fdd      	lsrs	r5, r3, #31
1000620e:	2b00      	cmp	r3, #0
10006210:	db04      	blt.n	1000621c <tu_edpt_release+0x24>
10006212:	0020      	movs	r0, r4
10006214:	f000 fcb8 	bl	10006b88 <__mutex_exit_veneer>
10006218:	0028      	movs	r0, r5
1000621a:	bd70      	pop	{r4, r5, r6, pc}
1000621c:	7833      	ldrb	r3, [r6, #0]
1000621e:	07db      	lsls	r3, r3, #31
10006220:	d404      	bmi.n	1000622c <tu_edpt_release+0x34>
10006222:	2204      	movs	r2, #4
10006224:	7833      	ldrb	r3, [r6, #0]
10006226:	4393      	bics	r3, r2
10006228:	7033      	strb	r3, [r6, #0]
1000622a:	e7f2      	b.n	10006212 <tu_edpt_release+0x1a>
1000622c:	2500      	movs	r5, #0
1000622e:	e7f0      	b.n	10006212 <tu_edpt_release+0x1a>

10006230 <tu_edpt_validate>:
10006230:	7943      	ldrb	r3, [r0, #5]
10006232:	7902      	ldrb	r2, [r0, #4]
10006234:	021b      	lsls	r3, r3, #8
10006236:	4313      	orrs	r3, r2
10006238:	78c2      	ldrb	r2, [r0, #3]
1000623a:	055b      	lsls	r3, r3, #21
1000623c:	0792      	lsls	r2, r2, #30
1000623e:	0d5b      	lsrs	r3, r3, #21
10006240:	0f92      	lsrs	r2, r2, #30
10006242:	2a02      	cmp	r2, #2
10006244:	d01d      	beq.n	10006282 <tu_edpt_validate+0x52>
10006246:	2a03      	cmp	r2, #3
10006248:	d00c      	beq.n	10006264 <tu_edpt_validate+0x34>
1000624a:	2000      	movs	r0, #0
1000624c:	2a01      	cmp	r2, #1
1000624e:	d108      	bne.n	10006262 <tu_edpt_validate+0x32>
10006250:	3902      	subs	r1, #2
10006252:	424a      	negs	r2, r1
10006254:	4151      	adcs	r1, r2
10006256:	4a12      	ldr	r2, [pc, #72]	@ (100062a0 <tu_edpt_validate+0x70>)
10006258:	4694      	mov	ip, r2
1000625a:	4461      	add	r1, ip
1000625c:	4299      	cmp	r1, r3
1000625e:	4140      	adcs	r0, r0
10006260:	b2c0      	uxtb	r0, r0
10006262:	4770      	bx	lr
10006264:	3902      	subs	r1, #2
10006266:	1e4a      	subs	r2, r1, #1
10006268:	4191      	sbcs	r1, r2
1000626a:	4a0e      	ldr	r2, [pc, #56]	@ (100062a4 <tu_edpt_validate+0x74>)
1000626c:	4249      	negs	r1, r1
1000626e:	4011      	ands	r1, r2
10006270:	2280      	movs	r2, #128	@ 0x80
10006272:	00d2      	lsls	r2, r2, #3
10006274:	4694      	mov	ip, r2
10006276:	2000      	movs	r0, #0
10006278:	4461      	add	r1, ip
1000627a:	4299      	cmp	r1, r3
1000627c:	4140      	adcs	r0, r0
1000627e:	b2c0      	uxtb	r0, r0
10006280:	e7ef      	b.n	10006262 <tu_edpt_validate+0x32>
10006282:	2902      	cmp	r1, #2
10006284:	d005      	beq.n	10006292 <tu_edpt_validate+0x62>
10006286:	2000      	movs	r0, #0
10006288:	2240      	movs	r2, #64	@ 0x40
1000628a:	429a      	cmp	r2, r3
1000628c:	4140      	adcs	r0, r0
1000628e:	b2c0      	uxtb	r0, r0
10006290:	e7e7      	b.n	10006262 <tu_edpt_validate+0x32>
10006292:	4a05      	ldr	r2, [pc, #20]	@ (100062a8 <tu_edpt_validate+0x78>)
10006294:	1898      	adds	r0, r3, r2
10006296:	4243      	negs	r3, r0
10006298:	4158      	adcs	r0, r3
1000629a:	b2c0      	uxtb	r0, r0
1000629c:	e7e1      	b.n	10006262 <tu_edpt_validate+0x32>
1000629e:	46c0      	nop			@ (mov r8, r8)
100062a0:	000003ff 	.word	0x000003ff
100062a4:	fffffc40 	.word	0xfffffc40
100062a8:	fffffe00 	.word	0xfffffe00

100062ac <tu_edpt_bind_driver>:
100062ac:	188a      	adds	r2, r1, r2
100062ae:	b570      	push	{r4, r5, r6, lr}
100062b0:	4291      	cmp	r1, r2
100062b2:	d207      	bcs.n	100062c4 <tu_edpt_bind_driver+0x18>
100062b4:	267f      	movs	r6, #127	@ 0x7f
100062b6:	784c      	ldrb	r4, [r1, #1]
100062b8:	2c05      	cmp	r4, #5
100062ba:	d004      	beq.n	100062c6 <tu_edpt_bind_driver+0x1a>
100062bc:	780c      	ldrb	r4, [r1, #0]
100062be:	1909      	adds	r1, r1, r4
100062c0:	428a      	cmp	r2, r1
100062c2:	d8f8      	bhi.n	100062b6 <tu_edpt_bind_driver+0xa>
100062c4:	bd70      	pop	{r4, r5, r6, pc}
100062c6:	0034      	movs	r4, r6
100062c8:	788d      	ldrb	r5, [r1, #2]
100062ca:	402c      	ands	r4, r5
100062cc:	0064      	lsls	r4, r4, #1
100062ce:	1904      	adds	r4, r0, r4
100062d0:	09ed      	lsrs	r5, r5, #7
100062d2:	5563      	strb	r3, [r4, r5]
100062d4:	780c      	ldrb	r4, [r1, #0]
100062d6:	1909      	adds	r1, r1, r4
100062d8:	428a      	cmp	r2, r1
100062da:	d8ec      	bhi.n	100062b6 <tu_edpt_bind_driver+0xa>
100062dc:	e7f2      	b.n	100062c4 <tu_edpt_bind_driver+0x18>
100062de:	46c0      	nop			@ (mov r8, r8)

100062e0 <tu_fifo_config>:
100062e0:	b5f0      	push	{r4, r5, r6, r7, lr}
100062e2:	46c6      	mov	lr, r8
100062e4:	b500      	push	{lr}
100062e6:	0004      	movs	r4, r0
100062e8:	a806      	add	r0, sp, #24
100062ea:	7805      	ldrb	r5, [r0, #0]
100062ec:	2080      	movs	r0, #128	@ 0x80
100062ee:	4688      	mov	r8, r1
100062f0:	0017      	movs	r7, r2
100062f2:	001e      	movs	r6, r3
100062f4:	0200      	lsls	r0, r0, #8
100062f6:	4282      	cmp	r2, r0
100062f8:	d826      	bhi.n	10006348 <tu_fifo_config+0x68>
100062fa:	68e0      	ldr	r0, [r4, #12]
100062fc:	2800      	cmp	r0, #0
100062fe:	d003      	beq.n	10006308 <tu_fifo_config+0x28>
10006300:	2101      	movs	r1, #1
10006302:	4249      	negs	r1, r1
10006304:	f000 fc68 	bl	10006bd8 <__mutex_enter_timeout_ms_veneer>
10006308:	6920      	ldr	r0, [r4, #16]
1000630a:	2800      	cmp	r0, #0
1000630c:	d003      	beq.n	10006316 <tu_fifo_config+0x36>
1000630e:	2101      	movs	r1, #1
10006310:	4249      	negs	r1, r1
10006312:	f000 fc61 	bl	10006bd8 <__mutex_enter_timeout_ms_veneer>
10006316:	4643      	mov	r3, r8
10006318:	6023      	str	r3, [r4, #0]
1000631a:	0473      	lsls	r3, r6, #17
1000631c:	0c5b      	lsrs	r3, r3, #17
1000631e:	03ed      	lsls	r5, r5, #15
10006320:	431d      	orrs	r5, r3
10006322:	2300      	movs	r3, #0
10006324:	68e0      	ldr	r0, [r4, #12]
10006326:	8163      	strh	r3, [r4, #10]
10006328:	80a7      	strh	r7, [r4, #4]
1000632a:	80e5      	strh	r5, [r4, #6]
1000632c:	8123      	strh	r3, [r4, #8]
1000632e:	2800      	cmp	r0, #0
10006330:	d001      	beq.n	10006336 <tu_fifo_config+0x56>
10006332:	f000 fc29 	bl	10006b88 <__mutex_exit_veneer>
10006336:	6920      	ldr	r0, [r4, #16]
10006338:	2800      	cmp	r0, #0
1000633a:	d001      	beq.n	10006340 <tu_fifo_config+0x60>
1000633c:	f000 fc24 	bl	10006b88 <__mutex_exit_veneer>
10006340:	2001      	movs	r0, #1
10006342:	bc80      	pop	{r7}
10006344:	46b8      	mov	r8, r7
10006346:	bdf0      	pop	{r4, r5, r6, r7, pc}
10006348:	2000      	movs	r0, #0
1000634a:	e7fa      	b.n	10006342 <tu_fifo_config+0x62>

1000634c <tu_fifo_count>:
1000634c:	b510      	push	{r4, lr}
1000634e:	8904      	ldrh	r4, [r0, #8]
10006350:	8941      	ldrh	r1, [r0, #10]
10006352:	8882      	ldrh	r2, [r0, #4]
10006354:	b2a3      	uxth	r3, r4
10006356:	b288      	uxth	r0, r1
10006358:	428c      	cmp	r4, r1
1000635a:	d307      	bcc.n	1000636c <tu_fifo_count+0x20>
1000635c:	1a1b      	subs	r3, r3, r0
1000635e:	b29b      	uxth	r3, r3
10006360:	1c10      	adds	r0, r2, #0
10006362:	429a      	cmp	r2, r3
10006364:	d900      	bls.n	10006368 <tu_fifo_count+0x1c>
10006366:	1c18      	adds	r0, r3, #0
10006368:	b280      	uxth	r0, r0
1000636a:	bd10      	pop	{r4, pc}
1000636c:	0051      	lsls	r1, r2, #1
1000636e:	1a09      	subs	r1, r1, r0
10006370:	185b      	adds	r3, r3, r1
10006372:	b29b      	uxth	r3, r3
10006374:	e7f4      	b.n	10006360 <tu_fifo_count+0x14>
10006376:	46c0      	nop			@ (mov r8, r8)

10006378 <tu_fifo_empty>:
10006378:	8903      	ldrh	r3, [r0, #8]
1000637a:	8940      	ldrh	r0, [r0, #10]
1000637c:	1a18      	subs	r0, r3, r0
1000637e:	4243      	negs	r3, r0
10006380:	4158      	adcs	r0, r3
10006382:	b2c0      	uxtb	r0, r0
10006384:	4770      	bx	lr
10006386:	46c0      	nop			@ (mov r8, r8)

10006388 <tu_fifo_remaining>:
10006388:	b510      	push	{r4, lr}
1000638a:	8904      	ldrh	r4, [r0, #8]
1000638c:	8941      	ldrh	r1, [r0, #10]
1000638e:	8882      	ldrh	r2, [r0, #4]
10006390:	b2a3      	uxth	r3, r4
10006392:	b288      	uxth	r0, r1
10006394:	428c      	cmp	r4, r1
10006396:	d307      	bcc.n	100063a8 <tu_fifo_remaining+0x20>
10006398:	1a1b      	subs	r3, r3, r0
1000639a:	b29b      	uxth	r3, r3
1000639c:	2000      	movs	r0, #0
1000639e:	429a      	cmp	r2, r3
100063a0:	d901      	bls.n	100063a6 <tu_fifo_remaining+0x1e>
100063a2:	1ad2      	subs	r2, r2, r3
100063a4:	b290      	uxth	r0, r2
100063a6:	bd10      	pop	{r4, pc}
100063a8:	0051      	lsls	r1, r2, #1
100063aa:	1a09      	subs	r1, r1, r0
100063ac:	185b      	adds	r3, r3, r1
100063ae:	b29b      	uxth	r3, r3
100063b0:	e7f4      	b.n	1000639c <tu_fifo_remaining+0x14>
100063b2:	46c0      	nop			@ (mov r8, r8)

100063b4 <tu_fifo_read>:
100063b4:	b570      	push	{r4, r5, r6, lr}
100063b6:	0004      	movs	r4, r0
100063b8:	6900      	ldr	r0, [r0, #16]
100063ba:	000e      	movs	r6, r1
100063bc:	2800      	cmp	r0, #0
100063be:	d003      	beq.n	100063c8 <tu_fifo_read+0x14>
100063c0:	2101      	movs	r1, #1
100063c2:	4249      	negs	r1, r1
100063c4:	f000 fc08 	bl	10006bd8 <__mutex_enter_timeout_ms_veneer>
100063c8:	8925      	ldrh	r5, [r4, #8]
100063ca:	8960      	ldrh	r0, [r4, #10]
100063cc:	88a2      	ldrh	r2, [r4, #4]
100063ce:	b2a9      	uxth	r1, r5
100063d0:	b283      	uxth	r3, r0
100063d2:	4285      	cmp	r5, r0
100063d4:	d32c      	bcc.n	10006430 <tu_fifo_read+0x7c>
100063d6:	1acd      	subs	r5, r1, r3
100063d8:	b2ad      	uxth	r5, r5
100063da:	2d00      	cmp	r5, #0
100063dc:	d02e      	beq.n	1000643c <tu_fifo_read+0x88>
100063de:	42aa      	cmp	r2, r5
100063e0:	d208      	bcs.n	100063f4 <tu_fifo_read+0x40>
100063e2:	4291      	cmp	r1, r2
100063e4:	d330      	bcc.n	10006448 <tu_fifo_read+0x94>
100063e6:	1a89      	subs	r1, r1, r2
100063e8:	b28b      	uxth	r3, r1
100063ea:	8163      	strh	r3, [r4, #10]
100063ec:	429a      	cmp	r2, r3
100063ee:	d803      	bhi.n	100063f8 <tu_fifo_read+0x44>
100063f0:	1a9b      	subs	r3, r3, r2
100063f2:	b29b      	uxth	r3, r3
100063f4:	429a      	cmp	r2, r3
100063f6:	d9fb      	bls.n	100063f0 <tu_fifo_read+0x3c>
100063f8:	88e2      	ldrh	r2, [r4, #6]
100063fa:	6821      	ldr	r1, [r4, #0]
100063fc:	0452      	lsls	r2, r2, #17
100063fe:	0c52      	lsrs	r2, r2, #17
10006400:	4353      	muls	r3, r2
10006402:	0030      	movs	r0, r6
10006404:	18c9      	adds	r1, r1, r3
10006406:	f7fc f931 	bl	1000266c <__wrap___aeabi_memcpy>
1000640a:	8963      	ldrh	r3, [r4, #10]
1000640c:	2501      	movs	r5, #1
1000640e:	1c59      	adds	r1, r3, #1
10006410:	b289      	uxth	r1, r1
10006412:	88a2      	ldrh	r2, [r4, #4]
10006414:	428b      	cmp	r3, r1
10006416:	d913      	bls.n	10006440 <tu_fifo_read+0x8c>
10006418:	2100      	movs	r1, #0
1000641a:	0052      	lsls	r2, r2, #1
1000641c:	1a89      	subs	r1, r1, r2
1000641e:	b289      	uxth	r1, r1
10006420:	6920      	ldr	r0, [r4, #16]
10006422:	8161      	strh	r1, [r4, #10]
10006424:	2800      	cmp	r0, #0
10006426:	d001      	beq.n	1000642c <tu_fifo_read+0x78>
10006428:	f000 fbae 	bl	10006b88 <__mutex_exit_veneer>
1000642c:	0028      	movs	r0, r5
1000642e:	bd70      	pop	{r4, r5, r6, pc}
10006430:	0055      	lsls	r5, r2, #1
10006432:	1aed      	subs	r5, r5, r3
10006434:	194d      	adds	r5, r1, r5
10006436:	b2ad      	uxth	r5, r5
10006438:	2d00      	cmp	r5, #0
1000643a:	d1d0      	bne.n	100063de <tu_fifo_read+0x2a>
1000643c:	8961      	ldrh	r1, [r4, #10]
1000643e:	b289      	uxth	r1, r1
10006440:	0052      	lsls	r2, r2, #1
10006442:	4291      	cmp	r1, r2
10006444:	dbec      	blt.n	10006420 <tu_fifo_read+0x6c>
10006446:	e7e9      	b.n	1000641c <tu_fifo_read+0x68>
10006448:	1889      	adds	r1, r1, r2
1000644a:	b28b      	uxth	r3, r1
1000644c:	8163      	strh	r3, [r4, #10]
1000644e:	e7cd      	b.n	100063ec <tu_fifo_read+0x38>

10006450 <tu_fifo_read_n>:
10006450:	b5f0      	push	{r4, r5, r6, r7, lr}
10006452:	4646      	mov	r6, r8
10006454:	464f      	mov	r7, r9
10006456:	46d6      	mov	lr, sl
10006458:	b5c0      	push	{r6, r7, lr}
1000645a:	0006      	movs	r6, r0
1000645c:	6900      	ldr	r0, [r0, #16]
1000645e:	4689      	mov	r9, r1
10006460:	4690      	mov	r8, r2
10006462:	2800      	cmp	r0, #0
10006464:	d003      	beq.n	1000646e <tu_fifo_read_n+0x1e>
10006466:	2101      	movs	r1, #1
10006468:	4249      	negs	r1, r1
1000646a:	f000 fbb5 	bl	10006bd8 <__mutex_enter_timeout_ms_veneer>
1000646e:	8931      	ldrh	r1, [r6, #8]
10006470:	8972      	ldrh	r2, [r6, #10]
10006472:	88b5      	ldrh	r5, [r6, #4]
10006474:	b28b      	uxth	r3, r1
10006476:	b294      	uxth	r4, r2
10006478:	4291      	cmp	r1, r2
1000647a:	d354      	bcc.n	10006526 <tu_fifo_read_n+0xd6>
1000647c:	1b1f      	subs	r7, r3, r4
1000647e:	b2bf      	uxth	r7, r7
10006480:	2f00      	cmp	r7, #0
10006482:	d04a      	beq.n	1000651a <tu_fifo_read_n+0xca>
10006484:	42bd      	cmp	r5, r7
10006486:	d205      	bcs.n	10006494 <tu_fifo_read_n+0x44>
10006488:	42ab      	cmp	r3, r5
1000648a:	d251      	bcs.n	10006530 <tu_fifo_read_n+0xe0>
1000648c:	195b      	adds	r3, r3, r5
1000648e:	b29c      	uxth	r4, r3
10006490:	002f      	movs	r7, r5
10006492:	8174      	strh	r4, [r6, #10]
10006494:	4643      	mov	r3, r8
10006496:	45b8      	cmp	r8, r7
10006498:	d83d      	bhi.n	10006516 <tu_fifo_read_n+0xc6>
1000649a:	b29f      	uxth	r7, r3
1000649c:	42a5      	cmp	r5, r4
1000649e:	d803      	bhi.n	100064a8 <tu_fifo_read_n+0x58>
100064a0:	1b64      	subs	r4, r4, r5
100064a2:	b2a4      	uxth	r4, r4
100064a4:	42a5      	cmp	r5, r4
100064a6:	d9fb      	bls.n	100064a0 <tu_fifo_read_n+0x50>
100064a8:	88f2      	ldrh	r2, [r6, #6]
100064aa:	6831      	ldr	r1, [r6, #0]
100064ac:	0452      	lsls	r2, r2, #17
100064ae:	0c52      	lsrs	r2, r2, #17
100064b0:	4690      	mov	r8, r2
100064b2:	4362      	muls	r2, r4
100064b4:	1b2b      	subs	r3, r5, r4
100064b6:	b29b      	uxth	r3, r3
100064b8:	1889      	adds	r1, r1, r2
100064ba:	4642      	mov	r2, r8
100064bc:	429f      	cmp	r7, r3
100064be:	d925      	bls.n	1000650c <tu_fifo_read_n+0xbc>
100064c0:	4353      	muls	r3, r2
100064c2:	b29b      	uxth	r3, r3
100064c4:	001a      	movs	r2, r3
100064c6:	4648      	mov	r0, r9
100064c8:	469a      	mov	sl, r3
100064ca:	f7fc f8cf 	bl	1000266c <__wrap___aeabi_memcpy>
100064ce:	4643      	mov	r3, r8
100064d0:	4648      	mov	r0, r9
100064d2:	1b7d      	subs	r5, r7, r5
100064d4:	1964      	adds	r4, r4, r5
100064d6:	435c      	muls	r4, r3
100064d8:	6831      	ldr	r1, [r6, #0]
100064da:	4450      	add	r0, sl
100064dc:	b2a2      	uxth	r2, r4
100064de:	f7fc f8c5 	bl	1000266c <__wrap___aeabi_memcpy>
100064e2:	8971      	ldrh	r1, [r6, #10]
100064e4:	88b5      	ldrh	r5, [r6, #4]
100064e6:	19cb      	adds	r3, r1, r7
100064e8:	b29b      	uxth	r3, r3
100064ea:	006a      	lsls	r2, r5, #1
100064ec:	4299      	cmp	r1, r3
100064ee:	d916      	bls.n	1000651e <tu_fifo_read_n+0xce>
100064f0:	1a9b      	subs	r3, r3, r2
100064f2:	b29b      	uxth	r3, r3
100064f4:	6930      	ldr	r0, [r6, #16]
100064f6:	8173      	strh	r3, [r6, #10]
100064f8:	2800      	cmp	r0, #0
100064fa:	d001      	beq.n	10006500 <tu_fifo_read_n+0xb0>
100064fc:	f000 fb44 	bl	10006b88 <__mutex_exit_veneer>
10006500:	0038      	movs	r0, r7
10006502:	bce0      	pop	{r5, r6, r7}
10006504:	46ba      	mov	sl, r7
10006506:	46b1      	mov	r9, r6
10006508:	46a8      	mov	r8, r5
1000650a:	bdf0      	pop	{r4, r5, r6, r7, pc}
1000650c:	4648      	mov	r0, r9
1000650e:	437a      	muls	r2, r7
10006510:	f7fc f8ac 	bl	1000266c <__wrap___aeabi_memcpy>
10006514:	e7e5      	b.n	100064e2 <tu_fifo_read_n+0x92>
10006516:	1c3b      	adds	r3, r7, #0
10006518:	e7bf      	b.n	1000649a <tu_fifo_read_n+0x4a>
1000651a:	8973      	ldrh	r3, [r6, #10]
1000651c:	b29b      	uxth	r3, r3
1000651e:	006a      	lsls	r2, r5, #1
10006520:	4293      	cmp	r3, r2
10006522:	dbe7      	blt.n	100064f4 <tu_fifo_read_n+0xa4>
10006524:	e7e4      	b.n	100064f0 <tu_fifo_read_n+0xa0>
10006526:	006f      	lsls	r7, r5, #1
10006528:	1b3f      	subs	r7, r7, r4
1000652a:	19df      	adds	r7, r3, r7
1000652c:	b2bf      	uxth	r7, r7
1000652e:	e7a7      	b.n	10006480 <tu_fifo_read_n+0x30>
10006530:	1b5b      	subs	r3, r3, r5
10006532:	b29c      	uxth	r4, r3
10006534:	e7ac      	b.n	10006490 <tu_fifo_read_n+0x40>
10006536:	46c0      	nop			@ (mov r8, r8)

10006538 <tu_fifo_write>:
10006538:	b5f8      	push	{r3, r4, r5, r6, r7, lr}
1000653a:	0004      	movs	r4, r0
1000653c:	68c0      	ldr	r0, [r0, #12]
1000653e:	000e      	movs	r6, r1
10006540:	2800      	cmp	r0, #0
10006542:	d003      	beq.n	1000654c <tu_fifo_write+0x14>
10006544:	2101      	movs	r1, #1
10006546:	4249      	negs	r1, r1
10006548:	f000 fb46 	bl	10006bd8 <__mutex_enter_timeout_ms_veneer>
1000654c:	8925      	ldrh	r5, [r4, #8]
1000654e:	8920      	ldrh	r0, [r4, #8]
10006550:	8961      	ldrh	r1, [r4, #10]
10006552:	88a2      	ldrh	r2, [r4, #4]
10006554:	b2ad      	uxth	r5, r5
10006556:	b283      	uxth	r3, r0
10006558:	b28f      	uxth	r7, r1
1000655a:	4288      	cmp	r0, r1
1000655c:	d329      	bcc.n	100065b2 <tu_fifo_write+0x7a>
1000655e:	1bdb      	subs	r3, r3, r7
10006560:	b29b      	uxth	r3, r3
10006562:	429a      	cmp	r2, r3
10006564:	d809      	bhi.n	1000657a <tu_fifo_write+0x42>
10006566:	79e7      	ldrb	r7, [r4, #7]
10006568:	09ff      	lsrs	r7, r7, #7
1000656a:	d106      	bne.n	1000657a <tu_fifo_write+0x42>
1000656c:	68e0      	ldr	r0, [r4, #12]
1000656e:	2800      	cmp	r0, #0
10006570:	d001      	beq.n	10006576 <tu_fifo_write+0x3e>
10006572:	f000 fb09 	bl	10006b88 <__mutex_exit_veneer>
10006576:	0038      	movs	r0, r7
10006578:	bdf8      	pop	{r3, r4, r5, r6, r7, pc}
1000657a:	4295      	cmp	r5, r2
1000657c:	d31e      	bcc.n	100065bc <tu_fifo_write+0x84>
1000657e:	002b      	movs	r3, r5
10006580:	1a9b      	subs	r3, r3, r2
10006582:	b29b      	uxth	r3, r3
10006584:	4293      	cmp	r3, r2
10006586:	d2fb      	bcs.n	10006580 <tu_fifo_write+0x48>
10006588:	88e2      	ldrh	r2, [r4, #6]
1000658a:	6820      	ldr	r0, [r4, #0]
1000658c:	0452      	lsls	r2, r2, #17
1000658e:	0c52      	lsrs	r2, r2, #17
10006590:	4353      	muls	r3, r2
10006592:	0031      	movs	r1, r6
10006594:	18c0      	adds	r0, r0, r3
10006596:	f7fc f869 	bl	1000266c <__wrap___aeabi_memcpy>
1000659a:	1c6b      	adds	r3, r5, #1
1000659c:	b29b      	uxth	r3, r3
1000659e:	88a2      	ldrh	r2, [r4, #4]
100065a0:	429d      	cmp	r5, r3
100065a2:	d918      	bls.n	100065d6 <tu_fifo_write+0x9e>
100065a4:	2300      	movs	r3, #0
100065a6:	0052      	lsls	r2, r2, #1
100065a8:	1a9b      	subs	r3, r3, r2
100065aa:	b29b      	uxth	r3, r3
100065ac:	2701      	movs	r7, #1
100065ae:	8123      	strh	r3, [r4, #8]
100065b0:	e7dc      	b.n	1000656c <tu_fifo_write+0x34>
100065b2:	0051      	lsls	r1, r2, #1
100065b4:	1bc9      	subs	r1, r1, r7
100065b6:	185b      	adds	r3, r3, r1
100065b8:	b29b      	uxth	r3, r3
100065ba:	e7d2      	b.n	10006562 <tu_fifo_write+0x2a>
100065bc:	002b      	movs	r3, r5
100065be:	88e2      	ldrh	r2, [r4, #6]
100065c0:	6820      	ldr	r0, [r4, #0]
100065c2:	0452      	lsls	r2, r2, #17
100065c4:	0c52      	lsrs	r2, r2, #17
100065c6:	4353      	muls	r3, r2
100065c8:	0031      	movs	r1, r6
100065ca:	18c0      	adds	r0, r0, r3
100065cc:	f7fc f84e 	bl	1000266c <__wrap___aeabi_memcpy>
100065d0:	3501      	adds	r5, #1
100065d2:	88a2      	ldrh	r2, [r4, #4]
100065d4:	b2ab      	uxth	r3, r5
100065d6:	0052      	lsls	r2, r2, #1
100065d8:	4293      	cmp	r3, r2
100065da:	dbe7      	blt.n	100065ac <tu_fifo_write+0x74>
100065dc:	e7e4      	b.n	100065a8 <tu_fifo_write+0x70>
100065de:	46c0      	nop			@ (mov r8, r8)

100065e0 <tu_fifo_write_n>:
100065e0:	b5f0      	push	{r4, r5, r6, r7, lr}
100065e2:	4657      	mov	r7, sl
100065e4:	4645      	mov	r5, r8
100065e6:	46de      	mov	lr, fp
100065e8:	464e      	mov	r6, r9
100065ea:	b5e0      	push	{r5, r6, r7, lr}
100065ec:	0014      	movs	r4, r2
100065ee:	0005      	movs	r5, r0
100065f0:	000f      	movs	r7, r1
100065f2:	b083      	sub	sp, #12
100065f4:	2a00      	cmp	r2, #0
100065f6:	d075      	beq.n	100066e4 <tu_fifo_write_n+0x104>
100065f8:	68c0      	ldr	r0, [r0, #12]
100065fa:	2800      	cmp	r0, #0
100065fc:	d003      	beq.n	10006606 <tu_fifo_write_n+0x26>
100065fe:	2101      	movs	r1, #1
10006600:	4249      	negs	r1, r1
10006602:	f000 fae9 	bl	10006bd8 <__mutex_enter_timeout_ms_veneer>
10006606:	892e      	ldrh	r6, [r5, #8]
10006608:	79e9      	ldrb	r1, [r5, #7]
1000660a:	896a      	ldrh	r2, [r5, #10]
1000660c:	88ab      	ldrh	r3, [r5, #4]
1000660e:	b2b6      	uxth	r6, r6
10006610:	b292      	uxth	r2, r2
10006612:	09c9      	lsrs	r1, r1, #7
10006614:	d145      	bne.n	100066a2 <tu_fifo_write_n+0xc2>
10006616:	4296      	cmp	r6, r2
10006618:	d300      	bcc.n	1000661c <tu_fifo_write_n+0x3c>
1000661a:	e06d      	b.n	100066f8 <tu_fifo_write_n+0x118>
1000661c:	0059      	lsls	r1, r3, #1
1000661e:	1a8a      	subs	r2, r1, r2
10006620:	18b2      	adds	r2, r6, r2
10006622:	b292      	uxth	r2, r2
10006624:	2100      	movs	r1, #0
10006626:	4689      	mov	r9, r1
10006628:	429a      	cmp	r2, r3
1000662a:	d234      	bcs.n	10006696 <tu_fifo_write_n+0xb6>
1000662c:	1a9a      	subs	r2, r3, r2
1000662e:	1c11      	adds	r1, r2, #0
10006630:	b292      	uxth	r2, r2
10006632:	42a2      	cmp	r2, r4
10006634:	d900      	bls.n	10006638 <tu_fifo_write_n+0x58>
10006636:	1c21      	adds	r1, r4, #0
10006638:	b28a      	uxth	r2, r1
1000663a:	4691      	mov	r9, r2
1000663c:	88ea      	ldrh	r2, [r5, #6]
1000663e:	0452      	lsls	r2, r2, #17
10006640:	0c52      	lsrs	r2, r2, #17
10006642:	4690      	mov	r8, r2
10006644:	464a      	mov	r2, r9
10006646:	18b2      	adds	r2, r6, r2
10006648:	b292      	uxth	r2, r2
1000664a:	4692      	mov	sl, r2
1000664c:	464a      	mov	r2, r9
1000664e:	1ad2      	subs	r2, r2, r3
10006650:	b292      	uxth	r2, r2
10006652:	4693      	mov	fp, r2
10006654:	0034      	movs	r4, r6
10006656:	429e      	cmp	r6, r3
10006658:	d303      	bcc.n	10006662 <tu_fifo_write_n+0x82>
1000665a:	1ae4      	subs	r4, r4, r3
1000665c:	b2a4      	uxth	r4, r4
1000665e:	429c      	cmp	r4, r3
10006660:	d2fb      	bcs.n	1000665a <tu_fifo_write_n+0x7a>
10006662:	4642      	mov	r2, r8
10006664:	4362      	muls	r2, r4
10006666:	6828      	ldr	r0, [r5, #0]
10006668:	1b1b      	subs	r3, r3, r4
1000666a:	b29b      	uxth	r3, r3
1000666c:	1880      	adds	r0, r0, r2
1000666e:	4642      	mov	r2, r8
10006670:	454b      	cmp	r3, r9
10006672:	d354      	bcc.n	1000671e <tu_fifo_write_n+0x13e>
10006674:	464b      	mov	r3, r9
10006676:	0039      	movs	r1, r7
10006678:	435a      	muls	r2, r3
1000667a:	f7fb fff7 	bl	1000266c <__wrap___aeabi_memcpy>
1000667e:	88ab      	ldrh	r3, [r5, #4]
10006680:	005b      	lsls	r3, r3, #1
10006682:	4556      	cmp	r6, sl
10006684:	d801      	bhi.n	1000668a <tu_fifo_write_n+0xaa>
10006686:	459a      	cmp	sl, r3
10006688:	db03      	blt.n	10006692 <tu_fifo_write_n+0xb2>
1000668a:	4652      	mov	r2, sl
1000668c:	1ad3      	subs	r3, r2, r3
1000668e:	b29b      	uxth	r3, r3
10006690:	469a      	mov	sl, r3
10006692:	4653      	mov	r3, sl
10006694:	812b      	strh	r3, [r5, #8]
10006696:	68e8      	ldr	r0, [r5, #12]
10006698:	2800      	cmp	r0, #0
1000669a:	d025      	beq.n	100066e8 <tu_fifo_write_n+0x108>
1000669c:	f000 fa74 	bl	10006b88 <__mutex_exit_veneer>
100066a0:	e022      	b.n	100066e8 <tu_fifo_write_n+0x108>
100066a2:	88e9      	ldrh	r1, [r5, #6]
100066a4:	0449      	lsls	r1, r1, #17
100066a6:	0c49      	lsrs	r1, r1, #17
100066a8:	4688      	mov	r8, r1
100066aa:	429c      	cmp	r4, r3
100066ac:	d227      	bcs.n	100066fe <tu_fifo_write_n+0x11e>
100066ae:	4296      	cmp	r6, r2
100066b0:	d347      	bcc.n	10006742 <tu_fifo_write_n+0x162>
100066b2:	1ab1      	subs	r1, r6, r2
100066b4:	b289      	uxth	r1, r1
100066b6:	468c      	mov	ip, r1
100066b8:	0058      	lsls	r0, r3, #1
100066ba:	1ae1      	subs	r1, r4, r3
100066bc:	b289      	uxth	r1, r1
100066be:	468b      	mov	fp, r1
100066c0:	4661      	mov	r1, ip
100066c2:	1909      	adds	r1, r1, r4
100066c4:	4281      	cmp	r1, r0
100066c6:	db08      	blt.n	100066da <tu_fifo_write_n+0xfa>
100066c8:	18d1      	adds	r1, r2, r3
100066ca:	b289      	uxth	r1, r1
100066cc:	1b0e      	subs	r6, r1, r4
100066ce:	b2b6      	uxth	r6, r6
100066d0:	468a      	mov	sl, r1
100066d2:	42b2      	cmp	r2, r6
100066d4:	d93b      	bls.n	1000674e <tu_fifo_write_n+0x16e>
100066d6:	1a36      	subs	r6, r6, r0
100066d8:	b2b6      	uxth	r6, r6
100066da:	19a2      	adds	r2, r4, r6
100066dc:	b292      	uxth	r2, r2
100066de:	4692      	mov	sl, r2
100066e0:	46a1      	mov	r9, r4
100066e2:	e7b7      	b.n	10006654 <tu_fifo_write_n+0x74>
100066e4:	2300      	movs	r3, #0
100066e6:	4699      	mov	r9, r3
100066e8:	4648      	mov	r0, r9
100066ea:	b003      	add	sp, #12
100066ec:	bcf0      	pop	{r4, r5, r6, r7}
100066ee:	46bb      	mov	fp, r7
100066f0:	46b2      	mov	sl, r6
100066f2:	46a9      	mov	r9, r5
100066f4:	46a0      	mov	r8, r4
100066f6:	bdf0      	pop	{r4, r5, r6, r7, pc}
100066f8:	1ab2      	subs	r2, r6, r2
100066fa:	b292      	uxth	r2, r2
100066fc:	e792      	b.n	10006624 <tu_fifo_write_n+0x44>
100066fe:	2100      	movs	r1, #0
10006700:	4689      	mov	r9, r1
10006702:	2b00      	cmp	r3, #0
10006704:	d0c7      	beq.n	10006696 <tu_fifo_write_n+0xb6>
10006706:	4641      	mov	r1, r8
10006708:	1ae4      	subs	r4, r4, r3
1000670a:	434c      	muls	r4, r1
1000670c:	0016      	movs	r6, r2
1000670e:	18d1      	adds	r1, r2, r3
10006710:	2200      	movs	r2, #0
10006712:	b289      	uxth	r1, r1
10006714:	468a      	mov	sl, r1
10006716:	4699      	mov	r9, r3
10006718:	4693      	mov	fp, r2
1000671a:	193f      	adds	r7, r7, r4
1000671c:	e79a      	b.n	10006654 <tu_fifo_write_n+0x74>
1000671e:	4353      	muls	r3, r2
10006720:	b29b      	uxth	r3, r3
10006722:	001a      	movs	r2, r3
10006724:	0039      	movs	r1, r7
10006726:	445c      	add	r4, fp
10006728:	9301      	str	r3, [sp, #4]
1000672a:	f7fb ff9f 	bl	1000266c <__wrap___aeabi_memcpy>
1000672e:	4641      	mov	r1, r8
10006730:	0022      	movs	r2, r4
10006732:	434a      	muls	r2, r1
10006734:	9b01      	ldr	r3, [sp, #4]
10006736:	6828      	ldr	r0, [r5, #0]
10006738:	b292      	uxth	r2, r2
1000673a:	18f9      	adds	r1, r7, r3
1000673c:	f7fb ff96 	bl	1000266c <__wrap___aeabi_memcpy>
10006740:	e79d      	b.n	1000667e <tu_fifo_write_n+0x9e>
10006742:	0058      	lsls	r0, r3, #1
10006744:	1a81      	subs	r1, r0, r2
10006746:	1871      	adds	r1, r6, r1
10006748:	b289      	uxth	r1, r1
1000674a:	468c      	mov	ip, r1
1000674c:	e7b5      	b.n	100066ba <tu_fifo_write_n+0xda>
1000674e:	46a1      	mov	r9, r4
10006750:	42b0      	cmp	r0, r6
10006752:	dd00      	ble.n	10006756 <tu_fifo_write_n+0x176>
10006754:	e77e      	b.n	10006654 <tu_fifo_write_n+0x74>
10006756:	e7be      	b.n	100066d6 <tu_fifo_write_n+0xf6>

10006758 <tu_fifo_clear>:
10006758:	b510      	push	{r4, lr}
1000675a:	0004      	movs	r4, r0
1000675c:	68c0      	ldr	r0, [r0, #12]
1000675e:	2800      	cmp	r0, #0
10006760:	d003      	beq.n	1000676a <tu_fifo_clear+0x12>
10006762:	2101      	movs	r1, #1
10006764:	4249      	negs	r1, r1
10006766:	f000 fa37 	bl	10006bd8 <__mutex_enter_timeout_ms_veneer>
1000676a:	6920      	ldr	r0, [r4, #16]
1000676c:	2800      	cmp	r0, #0
1000676e:	d003      	beq.n	10006778 <tu_fifo_clear+0x20>
10006770:	2101      	movs	r1, #1
10006772:	4249      	negs	r1, r1
10006774:	f000 fa30 	bl	10006bd8 <__mutex_enter_timeout_ms_veneer>
10006778:	2300      	movs	r3, #0
1000677a:	68e0      	ldr	r0, [r4, #12]
1000677c:	8163      	strh	r3, [r4, #10]
1000677e:	8123      	strh	r3, [r4, #8]
10006780:	2800      	cmp	r0, #0
10006782:	d001      	beq.n	10006788 <tu_fifo_clear+0x30>
10006784:	f000 fa00 	bl	10006b88 <__mutex_exit_veneer>
10006788:	6920      	ldr	r0, [r4, #16]
1000678a:	2800      	cmp	r0, #0
1000678c:	d001      	beq.n	10006792 <tu_fifo_clear+0x3a>
1000678e:	f000 f9fb 	bl	10006b88 <__mutex_exit_veneer>
10006792:	2001      	movs	r0, #1
10006794:	bd10      	pop	{r4, pc}
10006796:	46c0      	nop			@ (mov r8, r8)

10006798 <tu_fifo_set_overwritable>:
10006798:	b570      	push	{r4, r5, r6, lr}
1000679a:	0004      	movs	r4, r0
1000679c:	68c0      	ldr	r0, [r0, #12]
1000679e:	000d      	movs	r5, r1
100067a0:	2800      	cmp	r0, #0
100067a2:	d003      	beq.n	100067ac <tu_fifo_set_overwritable+0x14>
100067a4:	2101      	movs	r1, #1
100067a6:	4249      	negs	r1, r1
100067a8:	f000 fa16 	bl	10006bd8 <__mutex_enter_timeout_ms_veneer>
100067ac:	6920      	ldr	r0, [r4, #16]
100067ae:	2800      	cmp	r0, #0
100067b0:	d003      	beq.n	100067ba <tu_fifo_set_overwritable+0x22>
100067b2:	2101      	movs	r1, #1
100067b4:	4249      	negs	r1, r1
100067b6:	f000 fa0f 	bl	10006bd8 <__mutex_enter_timeout_ms_veneer>
100067ba:	217f      	movs	r1, #127	@ 0x7f
100067bc:	79e3      	ldrb	r3, [r4, #7]
100067be:	01ed      	lsls	r5, r5, #7
100067c0:	4019      	ands	r1, r3
100067c2:	68e0      	ldr	r0, [r4, #12]
100067c4:	4329      	orrs	r1, r5
100067c6:	71e1      	strb	r1, [r4, #7]
100067c8:	2800      	cmp	r0, #0
100067ca:	d001      	beq.n	100067d0 <tu_fifo_set_overwritable+0x38>
100067cc:	f000 f9dc 	bl	10006b88 <__mutex_exit_veneer>
100067d0:	6920      	ldr	r0, [r4, #16]
100067d2:	2800      	cmp	r0, #0
100067d4:	d001      	beq.n	100067da <tu_fifo_set_overwritable+0x42>
100067d6:	f000 f9d7 	bl	10006b88 <__mutex_exit_veneer>
100067da:	2001      	movs	r0, #1
100067dc:	bd70      	pop	{r4, r5, r6, pc}
100067de:	46c0      	nop			@ (mov r8, r8)

100067e0 <i2c_set_baudrate>:
100067e0:	b5f8      	push	{r3, r4, r5, r6, r7, lr}
100067e2:	46de      	mov	lr, fp
100067e4:	4657      	mov	r7, sl
100067e6:	464e      	mov	r6, r9
100067e8:	4645      	mov	r5, r8
100067ea:	4683      	mov	fp, r0
100067ec:	b5e0      	push	{r5, r6, r7, lr}
100067ee:	2005      	movs	r0, #5
100067f0:	000c      	movs	r4, r1
100067f2:	f7fa fea3 	bl	1000153c <clock_get_hz>
100067f6:	0006      	movs	r6, r0
100067f8:	0860      	lsrs	r0, r4, #1
100067fa:	0021      	movs	r1, r4
100067fc:	1980      	adds	r0, r0, r6
100067fe:	f7fb f8a9 	bl	10001954 <__wrap___aeabi_uidiv>
10006802:	0043      	lsls	r3, r0, #1
10006804:	4698      	mov	r8, r3
10006806:	4480      	add	r8, r0
10006808:	0007      	movs	r7, r0
1000680a:	2105      	movs	r1, #5
1000680c:	4640      	mov	r0, r8
1000680e:	f7fb f8a1 	bl	10001954 <__wrap___aeabi_uidiv>
10006812:	1a3b      	subs	r3, r7, r0
10006814:	469a      	mov	sl, r3
10006816:	4b1e      	ldr	r3, [pc, #120]	@ (10006890 <i2c_set_baudrate+0xb0>)
10006818:	4681      	mov	r9, r0
1000681a:	0070      	lsls	r0, r6, #1
1000681c:	1980      	adds	r0, r0, r6
1000681e:	429c      	cmp	r4, r3
10006820:	d831      	bhi.n	10006886 <i2c_set_baudrate+0xa6>
10006822:	491c      	ldr	r1, [pc, #112]	@ (10006894 <i2c_set_baudrate+0xb4>)
10006824:	f7fb f896 	bl	10001954 <__wrap___aeabi_uidiv>
10006828:	1c45      	adds	r5, r0, #1
1000682a:	465b      	mov	r3, fp
1000682c:	681c      	ldr	r4, [r3, #0]
1000682e:	2300      	movs	r3, #0
10006830:	66e3      	str	r3, [r4, #108]	@ 0x6c
10006832:	6822      	ldr	r2, [r4, #0]
10006834:	3304      	adds	r3, #4
10006836:	405a      	eors	r2, r3
10006838:	3302      	adds	r3, #2
1000683a:	4013      	ands	r3, r2
1000683c:	2280      	movs	r2, #128	@ 0x80
1000683e:	0152      	lsls	r2, r2, #5
10006840:	18a2      	adds	r2, r4, r2
10006842:	6013      	str	r3, [r2, #0]
10006844:	4653      	mov	r3, sl
10006846:	61e3      	str	r3, [r4, #28]
10006848:	464b      	mov	r3, r9
1000684a:	6223      	str	r3, [r4, #32]
1000684c:	4643      	mov	r3, r8
1000684e:	2001      	movs	r0, #1
10006850:	2b4f      	cmp	r3, #79	@ 0x4f
10006852:	d903      	bls.n	1000685c <i2c_set_baudrate+0x7c>
10006854:	2150      	movs	r1, #80	@ 0x50
10006856:	4640      	mov	r0, r8
10006858:	f7fb f87c 	bl	10001954 <__wrap___aeabi_uidiv>
1000685c:	23a0      	movs	r3, #160	@ 0xa0
1000685e:	50e0      	str	r0, [r4, r3]
10006860:	6fe3      	ldr	r3, [r4, #124]	@ 0x7c
10006862:	0039      	movs	r1, r7
10006864:	405d      	eors	r5, r3
10006866:	4b0c      	ldr	r3, [pc, #48]	@ (10006898 <i2c_set_baudrate+0xb8>)
10006868:	042d      	lsls	r5, r5, #16
1000686a:	0c2d      	lsrs	r5, r5, #16
1000686c:	18e3      	adds	r3, r4, r3
1000686e:	601d      	str	r5, [r3, #0]
10006870:	2301      	movs	r3, #1
10006872:	0030      	movs	r0, r6
10006874:	66e3      	str	r3, [r4, #108]	@ 0x6c
10006876:	f7fb f86d 	bl	10001954 <__wrap___aeabi_uidiv>
1000687a:	bcf0      	pop	{r4, r5, r6, r7}
1000687c:	46bb      	mov	fp, r7
1000687e:	46b2      	mov	sl, r6
10006880:	46a9      	mov	r9, r5
10006882:	46a0      	mov	r8, r4
10006884:	bdf8      	pop	{r3, r4, r5, r6, r7, pc}
10006886:	4905      	ldr	r1, [pc, #20]	@ (1000689c <i2c_set_baudrate+0xbc>)
10006888:	f7fb f864 	bl	10001954 <__wrap___aeabi_uidiv>
1000688c:	1c45      	adds	r5, r0, #1
1000688e:	e7cc      	b.n	1000682a <i2c_set_baudrate+0x4a>
10006890:	000f423f 	.word	0x000f423f
10006894:	00989680 	.word	0x00989680
10006898:	0000107c 	.word	0x0000107c
1000689c:	017d7840 	.word	0x017d7840

100068a0 <i2c_init>:
100068a0:	4a0f      	ldr	r2, [pc, #60]	@ (100068e0 <i2c_init+0x40>)
100068a2:	b570      	push	{r4, r5, r6, lr}
100068a4:	1a82      	subs	r2, r0, r2
100068a6:	1e53      	subs	r3, r2, #1
100068a8:	419a      	sbcs	r2, r3
100068aa:	4b0e      	ldr	r3, [pc, #56]	@ (100068e4 <i2c_init+0x44>)
100068ac:	00d2      	lsls	r2, r2, #3
100068ae:	3208      	adds	r2, #8
100068b0:	601a      	str	r2, [r3, #0]
100068b2:	4b0d      	ldr	r3, [pc, #52]	@ (100068e8 <i2c_init+0x48>)
100068b4:	4c0d      	ldr	r4, [pc, #52]	@ (100068ec <i2c_init+0x4c>)
100068b6:	601a      	str	r2, [r3, #0]
100068b8:	0015      	movs	r5, r2
100068ba:	6823      	ldr	r3, [r4, #0]
100068bc:	439d      	bics	r5, r3
100068be:	1e2b      	subs	r3, r5, #0
100068c0:	d1fa      	bne.n	100068b8 <i2c_init+0x18>
100068c2:	2466      	movs	r4, #102	@ 0x66
100068c4:	6802      	ldr	r2, [r0, #0]
100068c6:	34ff      	adds	r4, #255	@ 0xff
100068c8:	7105      	strb	r5, [r0, #4]
100068ca:	66d5      	str	r5, [r2, #108]	@ 0x6c
100068cc:	6014      	str	r4, [r2, #0]
100068ce:	3c63      	subs	r4, #99	@ 0x63
100068d0:	3388      	adds	r3, #136	@ 0x88
100068d2:	3cff      	subs	r4, #255	@ 0xff
100068d4:	63d5      	str	r5, [r2, #60]	@ 0x3c
100068d6:	6395      	str	r5, [r2, #56]	@ 0x38
100068d8:	50d4      	str	r4, [r2, r3]
100068da:	f7ff ff81 	bl	100067e0 <i2c_set_baudrate>
100068de:	bd70      	pop	{r4, r5, r6, pc}
100068e0:	20001058 	.word	0x20001058
100068e4:	4000e000 	.word	0x4000e000
100068e8:	4000f000 	.word	0x4000f000
100068ec:	4000c008 	.word	0x4000c008

100068f0 <i2c_write_blocking>:
100068f0:	b5f0      	push	{r4, r5, r6, r7, lr}
100068f2:	4657      	mov	r7, sl
100068f4:	464e      	mov	r6, r9
100068f6:	46de      	mov	lr, fp
100068f8:	4645      	mov	r5, r8
100068fa:	4684      	mov	ip, r0
100068fc:	b5e0      	push	{r5, r6, r7, lr}
100068fe:	b083      	sub	sp, #12
10006900:	001f      	movs	r7, r3
10006902:	ab0c      	add	r3, sp, #48	@ 0x30
10006904:	7818      	ldrb	r0, [r3, #0]
10006906:	4663      	mov	r3, ip
10006908:	4691      	mov	r9, r2
1000690a:	2200      	movs	r2, #0
1000690c:	681b      	ldr	r3, [r3, #0]
1000690e:	9001      	str	r0, [sp, #4]
10006910:	66da      	str	r2, [r3, #108]	@ 0x6c
10006912:	3201      	adds	r2, #1
10006914:	6059      	str	r1, [r3, #4]
10006916:	66da      	str	r2, [r3, #108]	@ 0x6c
10006918:	2f00      	cmp	r7, #0
1000691a:	dd4f      	ble.n	100069bc <i2c_write_blocking+0xcc>
1000691c:	1e7a      	subs	r2, r7, #1
1000691e:	4690      	mov	r8, r2
10006920:	4662      	mov	r2, ip
10006922:	7912      	ldrb	r2, [r2, #4]
10006924:	2601      	movs	r6, #1
10006926:	0292      	lsls	r2, r2, #10
10006928:	2480      	movs	r4, #128	@ 0x80
1000692a:	4693      	mov	fp, r2
1000692c:	003a      	movs	r2, r7
1000692e:	4046      	eors	r6, r0
10006930:	0276      	lsls	r6, r6, #9
10006932:	2580      	movs	r5, #128	@ 0x80
10006934:	0037      	movs	r7, r6
10006936:	2000      	movs	r0, #0
10006938:	4646      	mov	r6, r8
1000693a:	2110      	movs	r1, #16
1000693c:	46a2      	mov	sl, r4
1000693e:	4690      	mov	r8, r2
10006940:	00ad      	lsls	r5, r5, #2
10006942:	1b84      	subs	r4, r0, r6
10006944:	4262      	negs	r2, r4
10006946:	4154      	adcs	r4, r2
10006948:	464a      	mov	r2, r9
1000694a:	4264      	negs	r4, r4
1000694c:	403c      	ands	r4, r7
1000694e:	9400      	str	r4, [sp, #0]
10006950:	465c      	mov	r4, fp
10006952:	5c12      	ldrb	r2, [r2, r0]
10006954:	4322      	orrs	r2, r4
10006956:	9c00      	ldr	r4, [sp, #0]
10006958:	4322      	orrs	r2, r4
1000695a:	611a      	str	r2, [r3, #16]
1000695c:	6b5a      	ldr	r2, [r3, #52]	@ 0x34
1000695e:	4211      	tst	r1, r2
10006960:	d0fc      	beq.n	1000695c <i2c_write_blocking+0x6c>
10006962:	4652      	mov	r2, sl
10006964:	589c      	ldr	r4, [r3, r2]
10006966:	2c00      	cmp	r4, #0
10006968:	d110      	bne.n	1000698c <i2c_write_blocking+0x9c>
1000696a:	42b0      	cmp	r0, r6
1000696c:	d021      	beq.n	100069b2 <i2c_write_blocking+0xc2>
1000696e:	2200      	movs	r2, #0
10006970:	3001      	adds	r0, #1
10006972:	4693      	mov	fp, r2
10006974:	4580      	cmp	r8, r0
10006976:	d1e4      	bne.n	10006942 <i2c_write_blocking+0x52>
10006978:	4663      	mov	r3, ip
1000697a:	9a01      	ldr	r2, [sp, #4]
1000697c:	711a      	strb	r2, [r3, #4]
1000697e:	b003      	add	sp, #12
10006980:	bcf0      	pop	{r4, r5, r6, r7}
10006982:	46bb      	mov	fp, r7
10006984:	46b2      	mov	sl, r6
10006986:	46a9      	mov	r9, r5
10006988:	46a0      	mov	r8, r4
1000698a:	bdf0      	pop	{r4, r5, r6, r7, pc}
1000698c:	6d5a      	ldr	r2, [r3, #84]	@ 0x54
1000698e:	2201      	movs	r2, #1
10006990:	4693      	mov	fp, r2
10006992:	6b5a      	ldr	r2, [r3, #52]	@ 0x34
10006994:	422a      	tst	r2, r5
10006996:	d0fc      	beq.n	10006992 <i2c_write_blocking+0xa2>
10006998:	6e1a      	ldr	r2, [r3, #96]	@ 0x60
1000699a:	465a      	mov	r2, fp
1000699c:	2a00      	cmp	r2, #0
1000699e:	d0e6      	beq.n	1000696e <i2c_write_blocking+0x7e>
100069a0:	2c00      	cmp	r4, #0
100069a2:	d003      	beq.n	100069ac <i2c_write_blocking+0xbc>
100069a4:	07e3      	lsls	r3, r4, #31
100069a6:	d401      	bmi.n	100069ac <i2c_write_blocking+0xbc>
100069a8:	0724      	lsls	r4, r4, #28
100069aa:	d4e5      	bmi.n	10006978 <i2c_write_blocking+0x88>
100069ac:	2001      	movs	r0, #1
100069ae:	4240      	negs	r0, r0
100069b0:	e7e2      	b.n	10006978 <i2c_write_blocking+0x88>
100069b2:	9a01      	ldr	r2, [sp, #4]
100069b4:	2a00      	cmp	r2, #0
100069b6:	d1da      	bne.n	1000696e <i2c_write_blocking+0x7e>
100069b8:	4693      	mov	fp, r2
100069ba:	e7ea      	b.n	10006992 <i2c_write_blocking+0xa2>
100069bc:	2000      	movs	r0, #0
100069be:	e7db      	b.n	10006978 <i2c_write_blocking+0x88>

100069c0 <i2c_read_blocking>:
100069c0:	b5f0      	push	{r4, r5, r6, r7, lr}
100069c2:	46de      	mov	lr, fp
100069c4:	464e      	mov	r6, r9
100069c6:	4645      	mov	r5, r8
100069c8:	4657      	mov	r7, sl
100069ca:	b5e0      	push	{r5, r6, r7, lr}
100069cc:	0006      	movs	r6, r0
100069ce:	a809      	add	r0, sp, #36	@ 0x24
100069d0:	7800      	ldrb	r0, [r0, #0]
100069d2:	6834      	ldr	r4, [r6, #0]
100069d4:	4680      	mov	r8, r0
100069d6:	2000      	movs	r0, #0
100069d8:	66e0      	str	r0, [r4, #108]	@ 0x6c
100069da:	6061      	str	r1, [r4, #4]
100069dc:	2101      	movs	r1, #1
100069de:	4693      	mov	fp, r2
100069e0:	66e1      	str	r1, [r4, #108]	@ 0x6c
100069e2:	2b00      	cmp	r3, #0
100069e4:	dd32      	ble.n	10006a4c <i2c_read_blocking+0x8c>
100069e6:	2280      	movs	r2, #128	@ 0x80
100069e8:	1e59      	subs	r1, r3, #1
100069ea:	0052      	lsls	r2, r2, #1
100069ec:	468c      	mov	ip, r1
100069ee:	4692      	mov	sl, r2
100069f0:	2580      	movs	r5, #128	@ 0x80
100069f2:	6f61      	ldr	r1, [r4, #116]	@ 0x74
100069f4:	2910      	cmp	r1, #16
100069f6:	d0fc      	beq.n	100069f2 <i2c_read_blocking+0x32>
100069f8:	2100      	movs	r1, #0
100069fa:	2800      	cmp	r0, #0
100069fc:	d101      	bne.n	10006a02 <i2c_read_blocking+0x42>
100069fe:	7931      	ldrb	r1, [r6, #4]
10006a00:	0289      	lsls	r1, r1, #10
10006a02:	4584      	cmp	ip, r0
10006a04:	d01c      	beq.n	10006a40 <i2c_read_blocking+0x80>
10006a06:	4652      	mov	r2, sl
10006a08:	4311      	orrs	r1, r2
10006a0a:	6121      	str	r1, [r4, #16]
10006a0c:	e002      	b.n	10006a14 <i2c_read_blocking+0x54>
10006a0e:	6fa1      	ldr	r1, [r4, #120]	@ 0x78
10006a10:	2900      	cmp	r1, #0
10006a12:	d10d      	bne.n	10006a30 <i2c_read_blocking+0x70>
10006a14:	5961      	ldr	r1, [r4, r5]
10006a16:	6d61      	ldr	r1, [r4, #84]	@ 0x54
10006a18:	2900      	cmp	r1, #0
10006a1a:	d0f8      	beq.n	10006a0e <i2c_read_blocking+0x4e>
10006a1c:	2001      	movs	r0, #1
10006a1e:	4240      	negs	r0, r0
10006a20:	4643      	mov	r3, r8
10006a22:	7133      	strb	r3, [r6, #4]
10006a24:	bcf0      	pop	{r4, r5, r6, r7}
10006a26:	46bb      	mov	fp, r7
10006a28:	46b2      	mov	sl, r6
10006a2a:	46a9      	mov	r9, r5
10006a2c:	46a0      	mov	r8, r4
10006a2e:	bdf0      	pop	{r4, r5, r6, r7, pc}
10006a30:	465a      	mov	r2, fp
10006a32:	6921      	ldr	r1, [r4, #16]
10006a34:	5411      	strb	r1, [r2, r0]
10006a36:	3001      	adds	r0, #1
10006a38:	4283      	cmp	r3, r0
10006a3a:	d0f1      	beq.n	10006a20 <i2c_read_blocking+0x60>
10006a3c:	6834      	ldr	r4, [r6, #0]
10006a3e:	e7d8      	b.n	100069f2 <i2c_read_blocking+0x32>
10006a40:	4642      	mov	r2, r8
10006a42:	2701      	movs	r7, #1
10006a44:	4057      	eors	r7, r2
10006a46:	027a      	lsls	r2, r7, #9
10006a48:	4311      	orrs	r1, r2
10006a4a:	e7dc      	b.n	10006a06 <i2c_read_blocking+0x46>
10006a4c:	2000      	movs	r0, #0
10006a4e:	e7e7      	b.n	10006a20 <i2c_read_blocking+0x60>

10006a50 <atexit>:
10006a50:	b510      	push	{r4, lr}
10006a52:	0001      	movs	r1, r0
10006a54:	2300      	movs	r3, #0
10006a56:	2200      	movs	r2, #0
10006a58:	2000      	movs	r0, #0
10006a5a:	f000 f843 	bl	10006ae4 <__register_exitproc>
10006a5e:	bd10      	pop	{r4, pc}

10006a60 <strlen>:
10006a60:	b510      	push	{r4, lr}
10006a62:	0783      	lsls	r3, r0, #30
10006a64:	d00a      	beq.n	10006a7c <strlen+0x1c>
10006a66:	0003      	movs	r3, r0
10006a68:	2103      	movs	r1, #3
10006a6a:	e002      	b.n	10006a72 <strlen+0x12>
10006a6c:	3301      	adds	r3, #1
10006a6e:	420b      	tst	r3, r1
10006a70:	d005      	beq.n	10006a7e <strlen+0x1e>
10006a72:	781a      	ldrb	r2, [r3, #0]
10006a74:	2a00      	cmp	r2, #0
10006a76:	d1f9      	bne.n	10006a6c <strlen+0xc>
10006a78:	1a18      	subs	r0, r3, r0
10006a7a:	bd10      	pop	{r4, pc}
10006a7c:	0003      	movs	r3, r0
10006a7e:	6819      	ldr	r1, [r3, #0]
10006a80:	4a0c      	ldr	r2, [pc, #48]	@ (10006ab4 <strlen+0x54>)
10006a82:	4c0d      	ldr	r4, [pc, #52]	@ (10006ab8 <strlen+0x58>)
10006a84:	188a      	adds	r2, r1, r2
10006a86:	438a      	bics	r2, r1
10006a88:	4222      	tst	r2, r4
10006a8a:	d10f      	bne.n	10006aac <strlen+0x4c>
10006a8c:	6859      	ldr	r1, [r3, #4]
10006a8e:	4a09      	ldr	r2, [pc, #36]	@ (10006ab4 <strlen+0x54>)
10006a90:	3304      	adds	r3, #4
10006a92:	188a      	adds	r2, r1, r2
10006a94:	438a      	bics	r2, r1
10006a96:	4222      	tst	r2, r4
10006a98:	d108      	bne.n	10006aac <strlen+0x4c>
10006a9a:	6859      	ldr	r1, [r3, #4]
10006a9c:	4a05      	ldr	r2, [pc, #20]	@ (10006ab4 <strlen+0x54>)
10006a9e:	3304      	adds	r3, #4
10006aa0:	188a      	adds	r2, r1, r2
10006aa2:	438a      	bics	r2, r1
10006aa4:	4222      	tst	r2, r4
10006aa6:	d0f1      	beq.n	10006a8c <strlen+0x2c>
10006aa8:	e000      	b.n	10006aac <strlen+0x4c>
10006aaa:	3301      	adds	r3, #1
10006aac:	781a      	ldrb	r2, [r3, #0]
10006aae:	2a00      	cmp	r2, #0
10006ab0:	d1fb      	bne.n	10006aaa <strlen+0x4a>
10006ab2:	e7e1      	b.n	10006a78 <strlen+0x18>
10006ab4:	fefefeff 	.word	0xfefefeff
10006ab8:	80808080 	.word	0x80808080

10006abc <__libc_fini_array>:
10006abc:	b570      	push	{r4, r5, r6, lr}
10006abe:	4c07      	ldr	r4, [pc, #28]	@ (10006adc <__libc_fini_array+0x20>)
10006ac0:	4d07      	ldr	r5, [pc, #28]	@ (10006ae0 <__libc_fini_array+0x24>)
10006ac2:	1b64      	subs	r4, r4, r5
10006ac4:	10a4      	asrs	r4, r4, #2
10006ac6:	d005      	beq.n	10006ad4 <__libc_fini_array+0x18>
10006ac8:	3c01      	subs	r4, #1
10006aca:	00a3      	lsls	r3, r4, #2
10006acc:	58eb      	ldr	r3, [r5, r3]
10006ace:	4798      	blx	r3
10006ad0:	2c00      	cmp	r4, #0
10006ad2:	d1f9      	bne.n	10006ac8 <__libc_fini_array+0xc>
10006ad4:	f000 f84e 	bl	10006b74 <_fini>
10006ad8:	bd70      	pop	{r4, r5, r6, pc}
10006ada:	46c0      	nop			@ (mov r8, r8)
10006adc:	10006c80 	.word	0x10006c80
10006ae0:	10006c80 	.word	0x10006c80

10006ae4 <__register_exitproc>:
10006ae4:	b5f0      	push	{r4, r5, r6, r7, lr}
10006ae6:	46c6      	mov	lr, r8
10006ae8:	4c1a      	ldr	r4, [pc, #104]	@ (10006b54 <__register_exitproc+0x70>)
10006aea:	b500      	push	{lr}
10006aec:	6825      	ldr	r5, [r4, #0]
10006aee:	2d00      	cmp	r5, #0
10006af0:	d02a      	beq.n	10006b48 <__register_exitproc+0x64>
10006af2:	686c      	ldr	r4, [r5, #4]
10006af4:	2c1f      	cmp	r4, #31
10006af6:	dc2a      	bgt.n	10006b4e <__register_exitproc+0x6a>
10006af8:	2800      	cmp	r0, #0
10006afa:	d108      	bne.n	10006b0e <__register_exitproc+0x2a>
10006afc:	2000      	movs	r0, #0
10006afe:	1c63      	adds	r3, r4, #1
10006b00:	3402      	adds	r4, #2
10006b02:	00a4      	lsls	r4, r4, #2
10006b04:	606b      	str	r3, [r5, #4]
10006b06:	5161      	str	r1, [r4, r5]
10006b08:	bc80      	pop	{r7}
10006b0a:	46b8      	mov	r8, r7
10006b0c:	bdf0      	pop	{r4, r5, r6, r7, pc}
10006b0e:	2788      	movs	r7, #136	@ 0x88
10006b10:	00a6      	lsls	r6, r4, #2
10006b12:	19ae      	adds	r6, r5, r6
10006b14:	51f2      	str	r2, [r6, r7]
10006b16:	3701      	adds	r7, #1
10006b18:	37ff      	adds	r7, #255	@ 0xff
10006b1a:	46bc      	mov	ip, r7
10006b1c:	2201      	movs	r2, #1
10006b1e:	44ac      	add	ip, r5
10006b20:	4667      	mov	r7, ip
10006b22:	40a2      	lsls	r2, r4
10006b24:	683f      	ldr	r7, [r7, #0]
10006b26:	4690      	mov	r8, r2
10006b28:	4317      	orrs	r7, r2
10006b2a:	4662      	mov	r2, ip
10006b2c:	6017      	str	r7, [r2, #0]
10006b2e:	2784      	movs	r7, #132	@ 0x84
10006b30:	007f      	lsls	r7, r7, #1
10006b32:	51f3      	str	r3, [r6, r7]
10006b34:	2802      	cmp	r0, #2
10006b36:	d1e1      	bne.n	10006afc <__register_exitproc+0x18>
10006b38:	0028      	movs	r0, r5
10006b3a:	4642      	mov	r2, r8
10006b3c:	308d      	adds	r0, #141	@ 0x8d
10006b3e:	30ff      	adds	r0, #255	@ 0xff
10006b40:	6803      	ldr	r3, [r0, #0]
10006b42:	4313      	orrs	r3, r2
10006b44:	6003      	str	r3, [r0, #0]
10006b46:	e7d9      	b.n	10006afc <__register_exitproc+0x18>
10006b48:	4d03      	ldr	r5, [pc, #12]	@ (10006b58 <__register_exitproc+0x74>)
10006b4a:	6025      	str	r5, [r4, #0]
10006b4c:	e7d1      	b.n	10006af2 <__register_exitproc+0xe>
10006b4e:	2001      	movs	r0, #1
10006b50:	4240      	negs	r0, r0
10006b52:	e7d9      	b.n	10006b08 <__register_exitproc+0x24>
10006b54:	2000185c 	.word	0x2000185c
10006b58:	200016cc 	.word	0x200016cc

10006b5c <register_fini>:
10006b5c:	4b03      	ldr	r3, [pc, #12]	@ (10006b6c <register_fini+0x10>)
10006b5e:	b510      	push	{r4, lr}
10006b60:	2b00      	cmp	r3, #0
10006b62:	d002      	beq.n	10006b6a <register_fini+0xe>
10006b64:	4802      	ldr	r0, [pc, #8]	@ (10006b70 <register_fini+0x14>)
10006b66:	f7ff ff73 	bl	10006a50 <atexit>
10006b6a:	bd10      	pop	{r4, pc}
10006b6c:	00000000 	.word	0x00000000
10006b70:	10006abd 	.word	0x10006abd

10006b74 <_fini>:
10006b74:	b5f8      	push	{r3, r4, r5, r6, r7, lr}
10006b76:	46c0      	nop			@ (mov r8, r8)

10006b78 <__flash_do_cmd_veneer>:
10006b78:	b401      	push	{r0}
10006b7a:	4802      	ldr	r0, [pc, #8]	@ (10006b84 <__flash_do_cmd_veneer+0xc>)
10006b7c:	4684      	mov	ip, r0
10006b7e:	bc01      	pop	{r0}
10006b80:	4760      	bx	ip
10006b82:	bf00      	nop
10006b84:	200002c9 	.word	0x200002c9

10006b88 <__mutex_exit_veneer>:
10006b88:	b401      	push	{r0}
10006b8a:	4802      	ldr	r0, [pc, #8]	@ (10006b94 <__mutex_exit_veneer+0xc>)
10006b8c:	4684      	mov	ip, r0
10006b8e:	bc01      	pop	{r0}
10006b90:	4760      	bx	ip
10006b92:	bf00      	nop
10006b94:	2000022d 	.word	0x2000022d

10006b98 <____aeabi_ldiv0_veneer>:
10006b98:	b401      	push	{r0}
10006b9a:	4802      	ldr	r0, [pc, #8]	@ (10006ba4 <____aeabi_ldiv0_veneer+0xc>)
10006b9c:	4684      	mov	ip, r0
10006b9e:	bc01      	pop	{r0}
10006ba0:	4760      	bx	ip
10006ba2:	bf00      	nop
10006ba4:	20000f11 	.word	0x20000f11

10006ba8 <__e15_is_bulkin_ep_veneer>:
10006ba8:	b401      	push	{r0}
10006baa:	4802      	ldr	r0, [pc, #8]	@ (10006bb4 <__e15_is_bulkin_ep_veneer+0xc>)
10006bac:	4684      	mov	ip, r0
10006bae:	bc01      	pop	{r0}
10006bb0:	4760      	bx	ip
10006bb2:	bf00      	nop
10006bb4:	20000bc9 	.word	0x20000bc9

10006bb8 <____aeabi_idiv0_veneer>:
10006bb8:	b401      	push	{r0}
10006bba:	4802      	ldr	r0, [pc, #8]	@ (10006bc4 <____aeabi_idiv0_veneer+0xc>)
10006bbc:	4684      	mov	ip, r0
10006bbe:	bc01      	pop	{r0}
10006bc0:	4760      	bx	ip
10006bc2:	bf00      	nop
10006bc4:	20000f11 	.word	0x20000f11

10006bc8 <__mutex_try_enter_veneer>:
10006bc8:	b401      	push	{r0}
10006bca:	4802      	ldr	r0, [pc, #8]	@ (10006bd4 <__mutex_try_enter_veneer+0xc>)
10006bcc:	4684      	mov	ip, r0
10006bce:	bc01      	pop	{r0}
10006bd0:	4760      	bx	ip
10006bd2:	bf00      	nop
10006bd4:	200000c1 	.word	0x200000c1

10006bd8 <__mutex_enter_timeout_ms_veneer>:
10006bd8:	b401      	push	{r0}
10006bda:	4802      	ldr	r0, [pc, #8]	@ (10006be4 <__mutex_enter_timeout_ms_veneer+0xc>)
10006bdc:	4684      	mov	ip, r0
10006bde:	bc01      	pop	{r0}
10006be0:	4760      	bx	ip
10006be2:	bf00      	nop
10006be4:	2000019d 	.word	0x2000019d

10006be8 <__mutex_try_enter_block_until_veneer>:
10006be8:	b401      	push	{r0}
10006bea:	4802      	ldr	r0, [pc, #8]	@ (10006bf4 <__mutex_try_enter_block_until_veneer+0xc>)
10006bec:	4684      	mov	ip, r0
10006bee:	bc01      	pop	{r0}
10006bf0:	4760      	bx	ip
10006bf2:	bf00      	nop
10006bf4:	20000101 	.word	0x20000101

10006bf8 <__hw_endpoint_start_next_buffer_veneer>:
10006bf8:	b401      	push	{r0}
10006bfa:	4802      	ldr	r0, [pc, #8]	@ (10006c04 <__hw_endpoint_start_next_buffer_veneer+0xc>)
10006bfc:	4684      	mov	ip, r0
10006bfe:	bc01      	pop	{r0}
10006c00:	4760      	bx	ip
10006c02:	bf00      	nop
10006c04:	20000c81 	.word	0x20000c81

10006c08 <__e15_is_critical_frame_period_veneer>:
10006c08:	b401      	push	{r0}
10006c0a:	4802      	ldr	r0, [pc, #8]	@ (10006c14 <__e15_is_critical_frame_period_veneer+0xc>)
10006c0c:	4684      	mov	ip, r0
10006c0e:	bc01      	pop	{r0}
10006c10:	4760      	bx	ip
10006c12:	bf00      	nop
10006c14:	20000bf1 	.word	0x20000bf1

10006c18 <__reset_non_control_endpoints_veneer>:
10006c18:	b401      	push	{r0}
10006c1a:	4802      	ldr	r0, [pc, #8]	@ (10006c24 <__reset_non_control_endpoints_veneer+0xc>)
10006c1c:	4684      	mov	ip, r0
10006c1e:	bc01      	pop	{r0}
10006c20:	4760      	bx	ip
10006c22:	bf00      	nop
10006c24:	20000389 	.word	0x20000389

10006c28 <___hw_endpoint_buffer_control_update32_veneer>:
10006c28:	b401      	push	{r0}
10006c2a:	4802      	ldr	r0, [pc, #8]	@ (10006c34 <___hw_endpoint_buffer_control_update32_veneer+0xc>)
10006c2c:	4684      	mov	ip, r0
10006c2e:	bc01      	pop	{r0}
10006c30:	4760      	bx	ip
10006c32:	bf00      	nop
10006c34:	20000c31 	.word	0x20000c31

10006c38 <__pre_init_runtime_init_early_resets>:
10006c38:	100016f9                                ....

10006c3c <__pre_init_runtime_init_usb_power_down>:
10006c3c:	10001725 10001871 10002651 10001f89     %...q...Q&......
10006c4c:	100025c1                                .%..

10006c50 <__pre_init_runtime_init_clocks>:
10006c50:	10001799                                ....

10006c54 <__pre_init_runtime_init_post_clock_resets>:
10006c54:	10001741                                A...

10006c58 <__pre_init_runtime_init_rp2040_gpio_ie_disable>:
10006c58:	10001761                                a...

10006c5c <__pre_init_runtime_init_spin_locks_reset>:
10006c5c:	10001775                                u...

10006c60 <__pre_init_runtime_init_mutex>:
10006c60:	10000a35                                5...

10006c64 <__pre_init_runtime_init_install_ram_vector_table>:
10006c64:	1000177d                                }...

10006c68 <__pre_init_runtime_init_default_alarm_pool>:
10006c68:	10000de5                                ....

10006c6c <__pre_init_first_per_core_initializer>:
10006c6c:	100016c1                                ....

10006c70 <__pre_init_runtime_init_per_core_irq_priorities>:
10006c70:	10000661                                a...

10006c74 <__init_array_start>:
10006c74:	10006b5d 	.word	0x10006b5d

10006c78 <__frame_dummy_init_array_entry>:
10006c78:	100002fd 100047b5                       .....G..

Disassembly of section .data:

200000c0 <mutex_try_enter>:
200000c0:	0003      	movs	r3, r0
200000c2:	6800      	ldr	r0, [r0, #0]
200000c4:	f3ef 8c10 	mrs	ip, PRIMASK
200000c8:	b672      	cpsid	i
200000ca:	6802      	ldr	r2, [r0, #0]
200000cc:	2a00      	cmp	r2, #0
200000ce:	d0fc      	beq.n	200000ca <mutex_try_enter+0xa>
200000d0:	f3bf 8f5f 	dmb	sy
200000d4:	2204      	movs	r2, #4
200000d6:	569a      	ldrsb	r2, [r3, r2]
200000d8:	2a00      	cmp	r2, #0
200000da:	db04      	blt.n	200000e6 <mutex_try_enter+0x26>
200000dc:	2900      	cmp	r1, #0
200000de:	d000      	beq.n	200000e2 <mutex_try_enter+0x22>
200000e0:	600a      	str	r2, [r1, #0]
200000e2:	2000      	movs	r0, #0
200000e4:	e004      	b.n	200000f0 <mutex_try_enter+0x30>
200000e6:	22d0      	movs	r2, #208	@ 0xd0
200000e8:	2001      	movs	r0, #1
200000ea:	0612      	lsls	r2, r2, #24
200000ec:	6812      	ldr	r2, [r2, #0]
200000ee:	711a      	strb	r2, [r3, #4]
200000f0:	681b      	ldr	r3, [r3, #0]
200000f2:	f3bf 8f5f 	dmb	sy
200000f6:	2200      	movs	r2, #0
200000f8:	601a      	str	r2, [r3, #0]
200000fa:	f38c 8810 	msr	PRIMASK, ip
200000fe:	4770      	bx	lr

20000100 <mutex_try_enter_block_until>:
20000100:	b5f0      	push	{r4, r5, r6, r7, lr}
20000102:	46c6      	mov	lr, r8
20000104:	0015      	movs	r5, r2
20000106:	b500      	push	{lr}
20000108:	0004      	movs	r4, r0
2000010a:	001e      	movs	r6, r3
2000010c:	6802      	ldr	r2, [r0, #0]
2000010e:	f3ef 8110 	mrs	r1, PRIMASK
20000112:	b672      	cpsid	i
20000114:	6813      	ldr	r3, [r2, #0]
20000116:	2b00      	cmp	r3, #0
20000118:	d0fc      	beq.n	20000114 <mutex_try_enter_block_until+0x14>
2000011a:	f3bf 8f5f 	dmb	sy
2000011e:	2304      	movs	r3, #4
20000120:	56e3      	ldrsb	r3, [r4, r3]
20000122:	2b00      	cmp	r3, #0
20000124:	db2d      	blt.n	20000182 <mutex_try_enter_block_until+0x82>
20000126:	6822      	ldr	r2, [r4, #0]
20000128:	f3bf 8f5f 	dmb	sy
2000012c:	2000      	movs	r0, #0
2000012e:	6010      	str	r0, [r2, #0]
20000130:	f381 8810 	msr	PRIMASK, r1
20000134:	22d0      	movs	r2, #208	@ 0xd0
20000136:	0612      	lsls	r2, r2, #24
20000138:	7812      	ldrb	r2, [r2, #0]
2000013a:	b252      	sxtb	r2, r2
2000013c:	4690      	mov	r8, r2
2000013e:	429a      	cmp	r2, r3
20000140:	d103      	bne.n	2000014a <mutex_try_enter_block_until+0x4a>
20000142:	2000      	movs	r0, #0
20000144:	bc80      	pop	{r7}
20000146:	46b8      	mov	r8, r7
20000148:	bdf0      	pop	{r4, r5, r6, r7, pc}
2000014a:	2700      	movs	r7, #0
2000014c:	e00b      	b.n	20000166 <mutex_try_enter_block_until+0x66>
2000014e:	6823      	ldr	r3, [r4, #0]
20000150:	f3bf 8f5f 	dmb	sy
20000154:	601f      	str	r7, [r3, #0]
20000156:	f381 8810 	msr	PRIMASK, r1
2000015a:	0028      	movs	r0, r5
2000015c:	0031      	movs	r1, r6
2000015e:	f000 fefb 	bl	20000f58 <__best_effort_wfe_or_timeout_veneer>
20000162:	2800      	cmp	r0, #0
20000164:	d1ed      	bne.n	20000142 <mutex_try_enter_block_until+0x42>
20000166:	6822      	ldr	r2, [r4, #0]
20000168:	f3ef 8110 	mrs	r1, PRIMASK
2000016c:	b672      	cpsid	i
2000016e:	6813      	ldr	r3, [r2, #0]
20000170:	2b00      	cmp	r3, #0
20000172:	d0fc      	beq.n	2000016e <mutex_try_enter_block_until+0x6e>
20000174:	f3bf 8f5f 	dmb	sy
20000178:	7923      	ldrb	r3, [r4, #4]
2000017a:	2b7f      	cmp	r3, #127	@ 0x7f
2000017c:	d9e7      	bls.n	2000014e <mutex_try_enter_block_until+0x4e>
2000017e:	4643      	mov	r3, r8
20000180:	e002      	b.n	20000188 <mutex_try_enter_block_until+0x88>
20000182:	23d0      	movs	r3, #208	@ 0xd0
20000184:	061b      	lsls	r3, r3, #24
20000186:	681b      	ldr	r3, [r3, #0]
20000188:	7123      	strb	r3, [r4, #4]
2000018a:	6823      	ldr	r3, [r4, #0]
2000018c:	f3bf 8f5f 	dmb	sy
20000190:	2200      	movs	r2, #0
20000192:	601a      	str	r2, [r3, #0]
20000194:	f381 8810 	msr	PRIMASK, r1
20000198:	2001      	movs	r0, #1
2000019a:	e7d3      	b.n	20000144 <mutex_try_enter_block_until+0x44>

2000019c <mutex_enter_timeout_ms>:
2000019c:	b5f0      	push	{r4, r5, r6, r7, lr}
2000019e:	46c6      	mov	lr, r8
200001a0:	b500      	push	{lr}
200001a2:	000d      	movs	r5, r1
200001a4:	0004      	movs	r4, r0
200001a6:	f000 febf 	bl	20000f28 <__time_us_64_veneer>
200001aa:	22fa      	movs	r2, #250	@ 0xfa
200001ac:	0006      	movs	r6, r0
200001ae:	000f      	movs	r7, r1
200001b0:	2300      	movs	r3, #0
200001b2:	0028      	movs	r0, r5
200001b4:	2100      	movs	r1, #0
200001b6:	0092      	lsls	r2, r2, #2
200001b8:	f000 fed6 	bl	20000f68 <____wrap___aeabi_lmul_veneer>
200001bc:	2380      	movs	r3, #128	@ 0x80
200001be:	1836      	adds	r6, r6, r0
200001c0:	414f      	adcs	r7, r1
200001c2:	061b      	lsls	r3, r3, #24
200001c4:	429f      	cmp	r7, r3
200001c6:	d302      	bcc.n	200001ce <mutex_enter_timeout_ms+0x32>
200001c8:	2601      	movs	r6, #1
200001ca:	4f17      	ldr	r7, [pc, #92]	@ (20000228 <mutex_enter_timeout_ms+0x8c>)
200001cc:	4276      	negs	r6, r6
200001ce:	23d0      	movs	r3, #208	@ 0xd0
200001d0:	061b      	lsls	r3, r3, #24
200001d2:	681b      	ldr	r3, [r3, #0]
200001d4:	2500      	movs	r5, #0
200001d6:	4698      	mov	r8, r3
200001d8:	e00b      	b.n	200001f2 <mutex_enter_timeout_ms+0x56>
200001da:	6823      	ldr	r3, [r4, #0]
200001dc:	f3bf 8f5f 	dmb	sy
200001e0:	601d      	str	r5, [r3, #0]
200001e2:	f381 8810 	msr	PRIMASK, r1
200001e6:	0030      	movs	r0, r6
200001e8:	0039      	movs	r1, r7
200001ea:	f000 feb5 	bl	20000f58 <__best_effort_wfe_or_timeout_veneer>
200001ee:	2800      	cmp	r0, #0
200001f0:	d118      	bne.n	20000224 <mutex_enter_timeout_ms+0x88>
200001f2:	6822      	ldr	r2, [r4, #0]
200001f4:	f3ef 8110 	mrs	r1, PRIMASK
200001f8:	b672      	cpsid	i
200001fa:	6813      	ldr	r3, [r2, #0]
200001fc:	2b00      	cmp	r3, #0
200001fe:	d0fc      	beq.n	200001fa <mutex_enter_timeout_ms+0x5e>
20000200:	f3bf 8f5f 	dmb	sy
20000204:	7923      	ldrb	r3, [r4, #4]
20000206:	2b7f      	cmp	r3, #127	@ 0x7f
20000208:	d9e7      	bls.n	200001da <mutex_enter_timeout_ms+0x3e>
2000020a:	4643      	mov	r3, r8
2000020c:	7123      	strb	r3, [r4, #4]
2000020e:	6823      	ldr	r3, [r4, #0]
20000210:	f3bf 8f5f 	dmb	sy
20000214:	2200      	movs	r2, #0
20000216:	601a      	str	r2, [r3, #0]
20000218:	f381 8810 	msr	PRIMASK, r1
2000021c:	2001      	movs	r0, #1
2000021e:	bc80      	pop	{r7}
20000220:	46b8      	mov	r8, r7
20000222:	bdf0      	pop	{r4, r5, r6, r7, pc}
20000224:	2000      	movs	r0, #0
20000226:	e7fa      	b.n	2000021e <mutex_enter_timeout_ms+0x82>
20000228:	7fffffff 	.word	0x7fffffff

2000022c <mutex_exit>:
2000022c:	6802      	ldr	r2, [r0, #0]
2000022e:	f3ef 8110 	mrs	r1, PRIMASK
20000232:	b672      	cpsid	i
20000234:	6813      	ldr	r3, [r2, #0]
20000236:	2b00      	cmp	r3, #0
20000238:	d0fc      	beq.n	20000234 <mutex_exit+0x8>
2000023a:	f3bf 8f5f 	dmb	sy
2000023e:	23ff      	movs	r3, #255	@ 0xff
20000240:	7103      	strb	r3, [r0, #4]
20000242:	6803      	ldr	r3, [r0, #0]
20000244:	f3bf 8f5f 	dmb	sy
20000248:	2200      	movs	r2, #0
2000024a:	601a      	str	r2, [r3, #0]
2000024c:	f381 8810 	msr	PRIMASK, r1
20000250:	bf40      	sev
20000252:	4770      	bx	lr

20000254 <flash_init_boot2_copyout>:
20000254:	b510      	push	{r4, lr}
20000256:	4c08      	ldr	r4, [pc, #32]	@ (20000278 <flash_init_boot2_copyout+0x24>)
20000258:	7823      	ldrb	r3, [r4, #0]
2000025a:	2b00      	cmp	r3, #0
2000025c:	d10a      	bne.n	20000274 <flash_init_boot2_copyout+0x20>
2000025e:	2380      	movs	r3, #128	@ 0x80
20000260:	4806      	ldr	r0, [pc, #24]	@ (2000027c <flash_init_boot2_copyout+0x28>)
20000262:	4907      	ldr	r1, [pc, #28]	@ (20000280 <flash_init_boot2_copyout+0x2c>)
20000264:	055b      	lsls	r3, r3, #21
20000266:	681a      	ldr	r2, [r3, #0]
20000268:	50c2      	str	r2, [r0, r3]
2000026a:	3304      	adds	r3, #4
2000026c:	428b      	cmp	r3, r1
2000026e:	d1fa      	bne.n	20000266 <flash_init_boot2_copyout+0x12>
20000270:	2301      	movs	r3, #1
20000272:	7023      	strb	r3, [r4, #0]
20000274:	bd10      	pop	{r4, pc}
20000276:	46c0      	nop			@ (mov r8, r8)
20000278:	20002264 	.word	0x20002264
2000027c:	10001ca8 	.word	0x10001ca8
20000280:	10000100 	.word	0x10000100

20000284 <flash_enable_xip_via_boot2>:
20000284:	b510      	push	{r4, lr}
20000286:	4b01      	ldr	r3, [pc, #4]	@ (2000028c <flash_enable_xip_via_boot2+0x8>)
20000288:	4798      	blx	r3
2000028a:	bd10      	pop	{r4, pc}
2000028c:	20001ca9 	.word	0x20001ca9

20000290 <flash_cs_force.constprop.0>:
20000290:	4b03      	ldr	r3, [pc, #12]	@ (200002a0 <flash_cs_force.constprop.0+0x10>)
20000292:	681a      	ldr	r2, [r3, #0]
20000294:	23c0      	movs	r3, #192	@ 0xc0
20000296:	009b      	lsls	r3, r3, #2
20000298:	4393      	bics	r3, r2
2000029a:	4a02      	ldr	r2, [pc, #8]	@ (200002a4 <flash_cs_force.constprop.0+0x14>)
2000029c:	6013      	str	r3, [r2, #0]
2000029e:	4770      	bx	lr
200002a0:	4001800c 	.word	0x4001800c
200002a4:	4001900c 	.word	0x4001900c

200002a8 <flash_cs_force.constprop.1>:
200002a8:	4b05      	ldr	r3, [pc, #20]	@ (200002c0 <flash_cs_force.constprop.1+0x18>)
200002aa:	681a      	ldr	r2, [r3, #0]
200002ac:	2380      	movs	r3, #128	@ 0x80
200002ae:	009b      	lsls	r3, r3, #2
200002b0:	4053      	eors	r3, r2
200002b2:	22c0      	movs	r2, #192	@ 0xc0
200002b4:	0092      	lsls	r2, r2, #2
200002b6:	4013      	ands	r3, r2
200002b8:	4a02      	ldr	r2, [pc, #8]	@ (200002c4 <flash_cs_force.constprop.1+0x1c>)
200002ba:	6013      	str	r3, [r2, #0]
200002bc:	4770      	bx	lr
200002be:	46c0      	nop			@ (mov r8, r8)
200002c0:	4001800c 	.word	0x4001800c
200002c4:	4001900c 	.word	0x4001900c

200002c8 <flash_do_cmd>:
200002c8:	2314      	movs	r3, #20
200002ca:	b5f0      	push	{r4, r5, r6, r7, lr}
200002cc:	46d6      	mov	lr, sl
200002ce:	464f      	mov	r7, r9
200002d0:	4646      	mov	r6, r8
200002d2:	469a      	mov	sl, r3
200002d4:	4681      	mov	r9, r0
200002d6:	8818      	ldrh	r0, [r3, #0]
200002d8:	3304      	adds	r3, #4
200002da:	b5c0      	push	{r6, r7, lr}
200002dc:	4698      	mov	r8, r3
200002de:	000e      	movs	r6, r1
200002e0:	881b      	ldrh	r3, [r3, #0]
200002e2:	4926      	ldr	r1, [pc, #152]	@ (2000037c <flash_do_cmd+0xb4>)
200002e4:	0014      	movs	r4, r2
200002e6:	4798      	blx	r3
200002e8:	4653      	mov	r3, sl
200002ea:	0007      	movs	r7, r0
200002ec:	8818      	ldrh	r0, [r3, #0]
200002ee:	4643      	mov	r3, r8
200002f0:	4923      	ldr	r1, [pc, #140]	@ (20000380 <flash_do_cmd+0xb8>)
200002f2:	881b      	ldrh	r3, [r3, #0]
200002f4:	4798      	blx	r3
200002f6:	4653      	mov	r3, sl
200002f8:	0005      	movs	r5, r0
200002fa:	8818      	ldrh	r0, [r3, #0]
200002fc:	4643      	mov	r3, r8
200002fe:	4921      	ldr	r1, [pc, #132]	@ (20000384 <flash_do_cmd+0xbc>)
20000300:	881b      	ldrh	r3, [r3, #0]
20000302:	4798      	blx	r3
20000304:	4680      	mov	r8, r0
20000306:	f7ff ffa5 	bl	20000254 <flash_init_boot2_copyout>
2000030a:	47b8      	blx	r7
2000030c:	47a8      	blx	r5
2000030e:	f7ff ffcb 	bl	200002a8 <flash_cs_force.constprop.1>
20000312:	1e22      	subs	r2, r4, #0
20000314:	d020      	beq.n	20000358 <flash_do_cmd+0x90>
20000316:	21c0      	movs	r1, #192	@ 0xc0
20000318:	2708      	movs	r7, #8
2000031a:	2002      	movs	r0, #2
2000031c:	0549      	lsls	r1, r1, #21
2000031e:	e011      	b.n	20000344 <flash_do_cmd+0x7c>
20000320:	2c00      	cmp	r4, #0
20000322:	d014      	beq.n	2000034e <flash_do_cmd+0x86>
20000324:	1b13      	subs	r3, r2, r4
20000326:	2b0d      	cmp	r3, #13
20000328:	d920      	bls.n	2000036c <flash_do_cmd+0xa4>
2000032a:	2d00      	cmp	r5, #0
2000032c:	d00a      	beq.n	20000344 <flash_do_cmd+0x7c>
2000032e:	0023      	movs	r3, r4
20000330:	2a00      	cmp	r2, #0
20000332:	d005      	beq.n	20000340 <flash_do_cmd+0x78>
20000334:	6e0b      	ldr	r3, [r1, #96]	@ 0x60
20000336:	3a01      	subs	r2, #1
20000338:	7033      	strb	r3, [r6, #0]
2000033a:	0013      	movs	r3, r2
2000033c:	3601      	adds	r6, #1
2000033e:	4323      	orrs	r3, r4
20000340:	2b00      	cmp	r3, #0
20000342:	d009      	beq.n	20000358 <flash_do_cmd+0x90>
20000344:	003d      	movs	r5, r7
20000346:	6a8b      	ldr	r3, [r1, #40]	@ 0x28
20000348:	401d      	ands	r5, r3
2000034a:	4218      	tst	r0, r3
2000034c:	d1e8      	bne.n	20000320 <flash_do_cmd+0x58>
2000034e:	2d00      	cmp	r5, #0
20000350:	d1ed      	bne.n	2000032e <flash_do_cmd+0x66>
20000352:	0023      	movs	r3, r4
20000354:	4313      	orrs	r3, r2
20000356:	d1f5      	bne.n	20000344 <flash_do_cmd+0x7c>
20000358:	f7ff ff9a 	bl	20000290 <flash_cs_force.constprop.0>
2000035c:	47c0      	blx	r8
2000035e:	f7ff ff91 	bl	20000284 <flash_enable_xip_via_boot2>
20000362:	bce0      	pop	{r5, r6, r7}
20000364:	46ba      	mov	sl, r7
20000366:	46b1      	mov	r9, r6
20000368:	46a8      	mov	r8, r5
2000036a:	bdf0      	pop	{r4, r5, r6, r7, pc}
2000036c:	464b      	mov	r3, r9
2000036e:	781b      	ldrb	r3, [r3, #0]
20000370:	3c01      	subs	r4, #1
20000372:	660b      	str	r3, [r1, #96]	@ 0x60
20000374:	2301      	movs	r3, #1
20000376:	469c      	mov	ip, r3
20000378:	44e1      	add	r9, ip
2000037a:	e7e8      	b.n	2000034e <flash_do_cmd+0x86>
2000037c:	00004649 	.word	0x00004649
20000380:	00005845 	.word	0x00005845
20000384:	00004346 	.word	0x00004346

20000388 <reset_non_control_endpoints>:
20000388:	2200      	movs	r2, #0
2000038a:	4b15      	ldr	r3, [pc, #84]	@ (200003e0 <reset_non_control_endpoints+0x58>)
2000038c:	b510      	push	{r4, lr}
2000038e:	609a      	str	r2, [r3, #8]
20000390:	60da      	str	r2, [r3, #12]
20000392:	611a      	str	r2, [r3, #16]
20000394:	615a      	str	r2, [r3, #20]
20000396:	619a      	str	r2, [r3, #24]
20000398:	61da      	str	r2, [r3, #28]
2000039a:	621a      	str	r2, [r3, #32]
2000039c:	625a      	str	r2, [r3, #36]	@ 0x24
2000039e:	629a      	str	r2, [r3, #40]	@ 0x28
200003a0:	62da      	str	r2, [r3, #44]	@ 0x2c
200003a2:	631a      	str	r2, [r3, #48]	@ 0x30
200003a4:	635a      	str	r2, [r3, #52]	@ 0x34
200003a6:	639a      	str	r2, [r3, #56]	@ 0x38
200003a8:	63da      	str	r2, [r3, #60]	@ 0x3c
200003aa:	641a      	str	r2, [r3, #64]	@ 0x40
200003ac:	645a      	str	r2, [r3, #68]	@ 0x44
200003ae:	649a      	str	r2, [r3, #72]	@ 0x48
200003b0:	64da      	str	r2, [r3, #76]	@ 0x4c
200003b2:	651a      	str	r2, [r3, #80]	@ 0x50
200003b4:	655a      	str	r2, [r3, #84]	@ 0x54
200003b6:	659a      	str	r2, [r3, #88]	@ 0x58
200003b8:	65da      	str	r2, [r3, #92]	@ 0x5c
200003ba:	661a      	str	r2, [r3, #96]	@ 0x60
200003bc:	665a      	str	r2, [r3, #100]	@ 0x64
200003be:	669a      	str	r2, [r3, #104]	@ 0x68
200003c0:	66da      	str	r2, [r3, #108]	@ 0x6c
200003c2:	671a      	str	r2, [r3, #112]	@ 0x70
200003c4:	675a      	str	r2, [r3, #116]	@ 0x74
200003c6:	679a      	str	r2, [r3, #120]	@ 0x78
200003c8:	67da      	str	r2, [r3, #124]	@ 0x7c
200003ca:	32f0      	adds	r2, #240	@ 0xf0
200003cc:	0092      	lsls	r2, r2, #2
200003ce:	2100      	movs	r1, #0
200003d0:	4804      	ldr	r0, [pc, #16]	@ (200003e4 <reset_non_control_endpoints+0x5c>)
200003d2:	f000 fdd9 	bl	20000f88 <____wrap_memset_veneer>
200003d6:	4b04      	ldr	r3, [pc, #16]	@ (200003e8 <reset_non_control_endpoints+0x60>)
200003d8:	4a04      	ldr	r2, [pc, #16]	@ (200003ec <reset_non_control_endpoints+0x64>)
200003da:	601a      	str	r2, [r3, #0]
200003dc:	bd10      	pop	{r4, pc}
200003de:	46c0      	nop			@ (mov r8, r8)
200003e0:	50100000 	.word	0x50100000
200003e4:	20001e54 	.word	0x20001e54
200003e8:	2000221c 	.word	0x2000221c
200003ec:	50100180 	.word	0x50100180

200003f0 <hw_handle_buff_status>:
200003f0:	b5f0      	push	{r4, r5, r6, r7, lr}
200003f2:	4657      	mov	r7, sl
200003f4:	464e      	mov	r6, r9
200003f6:	4645      	mov	r5, r8
200003f8:	46de      	mov	lr, fp
200003fa:	b5e0      	push	{r5, r6, r7, lr}
200003fc:	4b25      	ldr	r3, [pc, #148]	@ (20000494 <hw_handle_buff_status+0xa4>)
200003fe:	2500      	movs	r5, #0
20000400:	6d9f      	ldr	r7, [r3, #88]	@ 0x58
20000402:	2601      	movs	r6, #1
20000404:	b087      	sub	sp, #28
20000406:	2f00      	cmp	r7, #0
20000408:	d023      	beq.n	20000452 <hw_handle_buff_status+0x62>
2000040a:	4b23      	ldr	r3, [pc, #140]	@ (20000498 <hw_handle_buff_status+0xa8>)
2000040c:	4699      	mov	r9, r3
2000040e:	2301      	movs	r3, #1
20000410:	469b      	mov	fp, r3
20000412:	4b22      	ldr	r3, [pc, #136]	@ (2000049c <hw_handle_buff_status+0xac>)
20000414:	4698      	mov	r8, r3
20000416:	e001      	b.n	2000041c <hw_handle_buff_status+0x2c>
20000418:	2d20      	cmp	r5, #32
2000041a:	d01a      	beq.n	20000452 <hw_handle_buff_status+0x62>
2000041c:	0032      	movs	r2, r6
2000041e:	002c      	movs	r4, r5
20000420:	3501      	adds	r5, #1
20000422:	46b2      	mov	sl, r6
20000424:	403a      	ands	r2, r7
20000426:	b2ed      	uxtb	r5, r5
20000428:	0076      	lsls	r6, r6, #1
2000042a:	2a00      	cmp	r2, #0
2000042c:	d0f4      	beq.n	20000418 <hw_handle_buff_status+0x28>
2000042e:	464b      	mov	r3, r9
20000430:	4652      	mov	r2, sl
20000432:	659a      	str	r2, [r3, #88]	@ 0x58
20000434:	465b      	mov	r3, fp
20000436:	0864      	lsrs	r4, r4, #1
20000438:	0064      	lsls	r4, r4, #1
2000043a:	402b      	ands	r3, r5
2000043c:	18e4      	adds	r4, r4, r3
2000043e:	0164      	lsls	r4, r4, #5
20000440:	4444      	add	r4, r8
20000442:	0020      	movs	r0, r4
20000444:	f000 fc52 	bl	20000cec <hw_endpoint_xfer_continue>
20000448:	2800      	cmp	r0, #0
2000044a:	d109      	bne.n	20000460 <hw_handle_buff_status+0x70>
2000044c:	4653      	mov	r3, sl
2000044e:	439f      	bics	r7, r3
20000450:	d1e2      	bne.n	20000418 <hw_handle_buff_status+0x28>
20000452:	b007      	add	sp, #28
20000454:	bcf0      	pop	{r4, r5, r6, r7}
20000456:	46bb      	mov	fp, r7
20000458:	46b2      	mov	sl, r6
2000045a:	46a9      	mov	r9, r5
2000045c:	46a0      	mov	r8, r4
2000045e:	bdf0      	pop	{r4, r5, r6, r7, pc}
20000460:	8ae2      	ldrh	r2, [r4, #22]
20000462:	78a3      	ldrb	r3, [r4, #2]
20000464:	a802      	add	r0, sp, #8
20000466:	9201      	str	r2, [sp, #4]
20000468:	2100      	movs	r1, #0
2000046a:	2206      	movs	r2, #6
2000046c:	3006      	adds	r0, #6
2000046e:	9300      	str	r3, [sp, #0]
20000470:	f000 fd8a 	bl	20000f88 <____wrap_memset_veneer>
20000474:	23e0      	movs	r3, #224	@ 0xe0
20000476:	a902      	add	r1, sp, #8
20000478:	00db      	lsls	r3, r3, #3
2000047a:	808b      	strh	r3, [r1, #4]
2000047c:	9b00      	ldr	r3, [sp, #0]
2000047e:	9a01      	ldr	r2, [sp, #4]
20000480:	720b      	strb	r3, [r1, #8]
20000482:	a803      	add	r0, sp, #12
20000484:	2101      	movs	r1, #1
20000486:	9205      	str	r2, [sp, #20]
20000488:	f000 fc50 	bl	20000d2c <dcd_event_handler>
2000048c:	0020      	movs	r0, r4
2000048e:	f000 fbc9 	bl	20000c24 <hw_endpoint_reset_transfer>
20000492:	e7db      	b.n	2000044c <hw_handle_buff_status+0x5c>
20000494:	50110000 	.word	0x50110000
20000498:	50113000 	.word	0x50113000
2000049c:	20001e14 	.word	0x20001e14

200004a0 <dcd_rp2040_irq>:
200004a0:	2398      	movs	r3, #152	@ 0x98
200004a2:	b5f0      	push	{r4, r5, r6, r7, lr}
200004a4:	46c6      	mov	lr, r8
200004a6:	4acd      	ldr	r2, [pc, #820]	@ (200007dc <dcd_rp2040_irq+0x33c>)
200004a8:	b500      	push	{lr}
200004aa:	58d5      	ldr	r5, [r2, r3]
200004ac:	2380      	movs	r3, #128	@ 0x80
200004ae:	002e      	movs	r6, r5
200004b0:	029b      	lsls	r3, r3, #10
200004b2:	2410      	movs	r4, #16
200004b4:	b084      	sub	sp, #16
200004b6:	401e      	ands	r6, r3
200004b8:	421d      	tst	r5, r3
200004ba:	d07a      	beq.n	200005b2 <dcd_rp2040_irq+0x112>
200004bc:	4bc8      	ldr	r3, [pc, #800]	@ (200007e0 <dcd_rp2040_irq+0x340>)
200004be:	4cc9      	ldr	r4, [pc, #804]	@ (200007e4 <dcd_rp2040_irq+0x344>)
200004c0:	6a9a      	ldr	r2, [r3, #40]	@ 0x28
200004c2:	4bc9      	ldr	r3, [pc, #804]	@ (200007e8 <dcd_rp2040_irq+0x348>)
200004c4:	2600      	movs	r6, #0
200004c6:	601a      	str	r2, [r3, #0]
200004c8:	233b      	movs	r3, #59	@ 0x3b
200004ca:	5ce3      	ldrb	r3, [r4, r3]
200004cc:	2b02      	cmp	r3, #2
200004ce:	d100      	bne.n	200004d2 <dcd_rp2040_irq+0x32>
200004d0:	e10e      	b.n	200006f0 <dcd_rp2040_irq+0x250>
200004d2:	237b      	movs	r3, #123	@ 0x7b
200004d4:	5ce3      	ldrb	r3, [r4, r3]
200004d6:	2b02      	cmp	r3, #2
200004d8:	d100      	bne.n	200004dc <dcd_rp2040_irq+0x3c>
200004da:	e126      	b.n	2000072a <dcd_rp2040_irq+0x28a>
200004dc:	23bb      	movs	r3, #187	@ 0xbb
200004de:	5ce3      	ldrb	r3, [r4, r3]
200004e0:	2b02      	cmp	r3, #2
200004e2:	d100      	bne.n	200004e6 <dcd_rp2040_irq+0x46>
200004e4:	e115      	b.n	20000712 <dcd_rp2040_irq+0x272>
200004e6:	23fb      	movs	r3, #251	@ 0xfb
200004e8:	5ce3      	ldrb	r3, [r4, r3]
200004ea:	2b02      	cmp	r3, #2
200004ec:	d100      	bne.n	200004f0 <dcd_rp2040_irq+0x50>
200004ee:	e14f      	b.n	20000790 <dcd_rp2040_irq+0x2f0>
200004f0:	233c      	movs	r3, #60	@ 0x3c
200004f2:	33ff      	adds	r3, #255	@ 0xff
200004f4:	5ce3      	ldrb	r3, [r4, r3]
200004f6:	2b02      	cmp	r3, #2
200004f8:	d100      	bne.n	200004fc <dcd_rp2040_irq+0x5c>
200004fa:	e13c      	b.n	20000776 <dcd_rp2040_irq+0x2d6>
200004fc:	237c      	movs	r3, #124	@ 0x7c
200004fe:	33ff      	adds	r3, #255	@ 0xff
20000500:	5ce3      	ldrb	r3, [r4, r3]
20000502:	2b02      	cmp	r3, #2
20000504:	d100      	bne.n	20000508 <dcd_rp2040_irq+0x68>
20000506:	e129      	b.n	2000075c <dcd_rp2040_irq+0x2bc>
20000508:	23bc      	movs	r3, #188	@ 0xbc
2000050a:	33ff      	adds	r3, #255	@ 0xff
2000050c:	5ce3      	ldrb	r3, [r4, r3]
2000050e:	2b02      	cmp	r3, #2
20000510:	d100      	bne.n	20000514 <dcd_rp2040_irq+0x74>
20000512:	e116      	b.n	20000742 <dcd_rp2040_irq+0x2a2>
20000514:	23fc      	movs	r3, #252	@ 0xfc
20000516:	33ff      	adds	r3, #255	@ 0xff
20000518:	5ce3      	ldrb	r3, [r4, r3]
2000051a:	2b02      	cmp	r3, #2
2000051c:	d100      	bne.n	20000520 <dcd_rp2040_irq+0x80>
2000051e:	e1be      	b.n	2000089e <dcd_rp2040_irq+0x3fe>
20000520:	4bb2      	ldr	r3, [pc, #712]	@ (200007ec <dcd_rp2040_irq+0x34c>)
20000522:	5ce3      	ldrb	r3, [r4, r3]
20000524:	2b02      	cmp	r3, #2
20000526:	d100      	bne.n	2000052a <dcd_rp2040_irq+0x8a>
20000528:	e1ae      	b.n	20000888 <dcd_rp2040_irq+0x3e8>
2000052a:	4bb1      	ldr	r3, [pc, #708]	@ (200007f0 <dcd_rp2040_irq+0x350>)
2000052c:	5ce3      	ldrb	r3, [r4, r3]
2000052e:	2b02      	cmp	r3, #2
20000530:	d100      	bne.n	20000534 <dcd_rp2040_irq+0x94>
20000532:	e19d      	b.n	20000870 <dcd_rp2040_irq+0x3d0>
20000534:	4baf      	ldr	r3, [pc, #700]	@ (200007f4 <dcd_rp2040_irq+0x354>)
20000536:	5ce3      	ldrb	r3, [r4, r3]
20000538:	2b02      	cmp	r3, #2
2000053a:	d100      	bne.n	2000053e <dcd_rp2040_irq+0x9e>
2000053c:	e18c      	b.n	20000858 <dcd_rp2040_irq+0x3b8>
2000053e:	4bae      	ldr	r3, [pc, #696]	@ (200007f8 <dcd_rp2040_irq+0x358>)
20000540:	5ce3      	ldrb	r3, [r4, r3]
20000542:	2b02      	cmp	r3, #2
20000544:	d100      	bne.n	20000548 <dcd_rp2040_irq+0xa8>
20000546:	e17b      	b.n	20000840 <dcd_rp2040_irq+0x3a0>
20000548:	4bac      	ldr	r3, [pc, #688]	@ (200007fc <dcd_rp2040_irq+0x35c>)
2000054a:	5ce3      	ldrb	r3, [r4, r3]
2000054c:	2b02      	cmp	r3, #2
2000054e:	d100      	bne.n	20000552 <dcd_rp2040_irq+0xb2>
20000550:	e16a      	b.n	20000828 <dcd_rp2040_irq+0x388>
20000552:	4bab      	ldr	r3, [pc, #684]	@ (20000800 <dcd_rp2040_irq+0x360>)
20000554:	5ce3      	ldrb	r3, [r4, r3]
20000556:	2b02      	cmp	r3, #2
20000558:	d100      	bne.n	2000055c <dcd_rp2040_irq+0xbc>
2000055a:	e125      	b.n	200007a8 <dcd_rp2040_irq+0x308>
2000055c:	4ba9      	ldr	r3, [pc, #676]	@ (20000804 <dcd_rp2040_irq+0x364>)
2000055e:	5ce3      	ldrb	r3, [r4, r3]
20000560:	2b02      	cmp	r3, #2
20000562:	d100      	bne.n	20000566 <dcd_rp2040_irq+0xc6>
20000564:	e1a7      	b.n	200008b6 <dcd_rp2040_irq+0x416>
20000566:	4ba8      	ldr	r3, [pc, #672]	@ (20000808 <dcd_rp2040_irq+0x368>)
20000568:	5ce3      	ldrb	r3, [r4, r3]
2000056a:	2b02      	cmp	r3, #2
2000056c:	d100      	bne.n	20000570 <dcd_rp2040_irq+0xd0>
2000056e:	e1be      	b.n	200008ee <dcd_rp2040_irq+0x44e>
20000570:	2e00      	cmp	r6, #0
20000572:	d108      	bne.n	20000586 <dcd_rp2040_irq+0xe6>
20000574:	4ba5      	ldr	r3, [pc, #660]	@ (2000080c <dcd_rp2040_irq+0x36c>)
20000576:	781b      	ldrb	r3, [r3, #0]
20000578:	2b00      	cmp	r3, #0
2000057a:	d104      	bne.n	20000586 <dcd_rp2040_irq+0xe6>
2000057c:	2180      	movs	r1, #128	@ 0x80
2000057e:	4aa4      	ldr	r2, [pc, #656]	@ (20000810 <dcd_rp2040_irq+0x370>)
20000580:	3390      	adds	r3, #144	@ 0x90
20000582:	0289      	lsls	r1, r1, #10
20000584:	50d1      	str	r1, [r2, r3]
20000586:	4b95      	ldr	r3, [pc, #596]	@ (200007dc <dcd_rp2040_irq+0x33c>)
20000588:	220a      	movs	r2, #10
2000058a:	6c9c      	ldr	r4, [r3, #72]	@ 0x48
2000058c:	466b      	mov	r3, sp
2000058e:	2100      	movs	r1, #0
20000590:	1d98      	adds	r0, r3, #6
20000592:	f000 fcf9 	bl	20000f88 <____wrap_memset_veneer>
20000596:	23c0      	movs	r3, #192	@ 0xc0
20000598:	ae01      	add	r6, sp, #4
2000059a:	009b      	lsls	r3, r3, #2
2000059c:	0564      	lsls	r4, r4, #21
2000059e:	8033      	strh	r3, [r6, #0]
200005a0:	0030      	movs	r0, r6
200005a2:	0d64      	lsrs	r4, r4, #21
200005a4:	2101      	movs	r1, #1
200005a6:	2680      	movs	r6, #128	@ 0x80
200005a8:	9402      	str	r4, [sp, #8]
200005aa:	f000 fbbf 	bl	20000d2c <dcd_event_handler>
200005ae:	4c99      	ldr	r4, [pc, #612]	@ (20000814 <dcd_rp2040_irq+0x374>)
200005b0:	02b6      	lsls	r6, r6, #10
200005b2:	06eb      	lsls	r3, r5, #27
200005b4:	d500      	bpl.n	200005b8 <dcd_rp2040_irq+0x118>
200005b6:	e08f      	b.n	200006d8 <dcd_rp2040_irq+0x238>
200005b8:	2380      	movs	r3, #128	@ 0x80
200005ba:	025b      	lsls	r3, r3, #9
200005bc:	421d      	tst	r5, r3
200005be:	d032      	beq.n	20000626 <dcd_rp2040_irq+0x186>
200005c0:	431e      	orrs	r6, r3
200005c2:	2301      	movs	r3, #1
200005c4:	2402      	movs	r4, #2
200005c6:	4698      	mov	r8, r3
200005c8:	4f86      	ldr	r7, [pc, #536]	@ (200007e4 <dcd_rp2040_irq+0x344>)
200005ca:	7ebb      	ldrb	r3, [r7, #26]
200005cc:	2b00      	cmp	r3, #0
200005ce:	d014      	beq.n	200005fa <dcd_rp2040_irq+0x15a>
200005d0:	f000 fca2 	bl	20000f18 <__rp2040_chip_version_veneer>
200005d4:	2801      	cmp	r0, #1
200005d6:	d900      	bls.n	200005da <dcd_rp2040_irq+0x13a>
200005d8:	e082      	b.n	200006e0 <dcd_rp2040_irq+0x240>
200005da:	22c0      	movs	r2, #192	@ 0xc0
200005dc:	2100      	movs	r1, #0
200005de:	0038      	movs	r0, r7
200005e0:	0192      	lsls	r2, r2, #6
200005e2:	f000 fb25 	bl	20000c30 <_hw_endpoint_buffer_control_update32>
200005e6:	0038      	movs	r0, r7
200005e8:	f000 fb1c 	bl	20000c24 <hw_endpoint_reset_transfer>
200005ec:	f000 fc94 	bl	20000f18 <__rp2040_chip_version_veneer>
200005f0:	2801      	cmp	r0, #1
200005f2:	d902      	bls.n	200005fa <dcd_rp2040_irq+0x15a>
200005f4:	4b86      	ldr	r3, [pc, #536]	@ (20000810 <dcd_rp2040_irq+0x370>)
200005f6:	665c      	str	r4, [r3, #100]	@ 0x64
200005f8:	661c      	str	r4, [r3, #96]	@ 0x60
200005fa:	4643      	mov	r3, r8
200005fc:	70fb      	strb	r3, [r7, #3]
200005fe:	3720      	adds	r7, #32
20000600:	2c01      	cmp	r4, #1
20000602:	d001      	beq.n	20000608 <dcd_rp2040_irq+0x168>
20000604:	2401      	movs	r4, #1
20000606:	e7e0      	b.n	200005ca <dcd_rp2040_irq+0x12a>
20000608:	23c0      	movs	r3, #192	@ 0xc0
2000060a:	4a83      	ldr	r2, [pc, #524]	@ (20000818 <dcd_rp2040_irq+0x378>)
2000060c:	00db      	lsls	r3, r3, #3
2000060e:	9301      	str	r3, [sp, #4]
20000610:	ab02      	add	r3, sp, #8
20000612:	ca03      	ldmia	r2!, {r0, r1}
20000614:	c303      	stmia	r3!, {r0, r1}
20000616:	2101      	movs	r1, #1
20000618:	a801      	add	r0, sp, #4
2000061a:	f000 fb87 	bl	20000d2c <dcd_event_handler>
2000061e:	2280      	movs	r2, #128	@ 0x80
20000620:	4b7b      	ldr	r3, [pc, #492]	@ (20000810 <dcd_rp2040_irq+0x370>)
20000622:	0292      	lsls	r2, r2, #10
20000624:	651a      	str	r2, [r3, #80]	@ 0x50
20000626:	2380      	movs	r3, #128	@ 0x80
20000628:	015b      	lsls	r3, r3, #5
2000062a:	421d      	tst	r5, r3
2000062c:	d10e      	bne.n	2000064c <dcd_rp2040_irq+0x1ac>
2000062e:	2380      	movs	r3, #128	@ 0x80
20000630:	01db      	lsls	r3, r3, #7
20000632:	421d      	tst	r5, r3
20000634:	d126      	bne.n	20000684 <dcd_rp2040_irq+0x1e4>
20000636:	2380      	movs	r3, #128	@ 0x80
20000638:	021b      	lsls	r3, r3, #8
2000063a:	421d      	tst	r5, r3
2000063c:	d138      	bne.n	200006b0 <dcd_rp2040_irq+0x210>
2000063e:	42ae      	cmp	r6, r5
20000640:	d000      	beq.n	20000644 <dcd_rp2040_irq+0x1a4>
20000642:	e1d1      	b.n	200009e8 <dcd_rp2040_irq+0x548>
20000644:	b004      	add	sp, #16
20000646:	bc80      	pop	{r7}
20000648:	46b8      	mov	r8, r7
2000064a:	bdf0      	pop	{r4, r5, r6, r7, pc}
2000064c:	2200      	movs	r2, #0
2000064e:	431e      	orrs	r6, r3
20000650:	4b62      	ldr	r3, [pc, #392]	@ (200007dc <dcd_rp2040_irq+0x33c>)
20000652:	ac01      	add	r4, sp, #4
20000654:	601a      	str	r2, [r3, #0]
20000656:	f7ff fe97 	bl	20000388 <reset_non_control_endpoints>
2000065a:	466b      	mov	r3, sp
2000065c:	220a      	movs	r2, #10
2000065e:	2100      	movs	r1, #0
20000660:	1d98      	adds	r0, r3, #6
20000662:	f000 fc91 	bl	20000f88 <____wrap_memset_veneer>
20000666:	2380      	movs	r3, #128	@ 0x80
20000668:	005b      	lsls	r3, r3, #1
2000066a:	8023      	strh	r3, [r4, #0]
2000066c:	2101      	movs	r1, #1
2000066e:	0020      	movs	r0, r4
20000670:	f000 fb5c 	bl	20000d2c <dcd_event_handler>
20000674:	2280      	movs	r2, #128	@ 0x80
20000676:	4b66      	ldr	r3, [pc, #408]	@ (20000810 <dcd_rp2040_irq+0x370>)
20000678:	0312      	lsls	r2, r2, #12
2000067a:	651a      	str	r2, [r3, #80]	@ 0x50
2000067c:	2380      	movs	r3, #128	@ 0x80
2000067e:	01db      	lsls	r3, r3, #7
20000680:	421d      	tst	r5, r3
20000682:	d0d8      	beq.n	20000636 <dcd_rp2040_irq+0x196>
20000684:	431e      	orrs	r6, r3
20000686:	466b      	mov	r3, sp
20000688:	220a      	movs	r2, #10
2000068a:	2100      	movs	r1, #0
2000068c:	1d98      	adds	r0, r3, #6
2000068e:	f000 fc7b 	bl	20000f88 <____wrap_memset_veneer>
20000692:	2380      	movs	r3, #128	@ 0x80
20000694:	ac01      	add	r4, sp, #4
20000696:	00db      	lsls	r3, r3, #3
20000698:	8023      	strh	r3, [r4, #0]
2000069a:	2101      	movs	r1, #1
2000069c:	0020      	movs	r0, r4
2000069e:	f000 fb45 	bl	20000d2c <dcd_event_handler>
200006a2:	2210      	movs	r2, #16
200006a4:	4b5a      	ldr	r3, [pc, #360]	@ (20000810 <dcd_rp2040_irq+0x370>)
200006a6:	651a      	str	r2, [r3, #80]	@ 0x50
200006a8:	2380      	movs	r3, #128	@ 0x80
200006aa:	021b      	lsls	r3, r3, #8
200006ac:	421d      	tst	r5, r3
200006ae:	d0c6      	beq.n	2000063e <dcd_rp2040_irq+0x19e>
200006b0:	431e      	orrs	r6, r3
200006b2:	466b      	mov	r3, sp
200006b4:	220a      	movs	r2, #10
200006b6:	2100      	movs	r1, #0
200006b8:	1d98      	adds	r0, r3, #6
200006ba:	f000 fc65 	bl	20000f88 <____wrap_memset_veneer>
200006be:	23a0      	movs	r3, #160	@ 0xa0
200006c0:	ac01      	add	r4, sp, #4
200006c2:	00db      	lsls	r3, r3, #3
200006c4:	8023      	strh	r3, [r4, #0]
200006c6:	2101      	movs	r1, #1
200006c8:	0020      	movs	r0, r4
200006ca:	f000 fb2f 	bl	20000d2c <dcd_event_handler>
200006ce:	2280      	movs	r2, #128	@ 0x80
200006d0:	4b4f      	ldr	r3, [pc, #316]	@ (20000810 <dcd_rp2040_irq+0x370>)
200006d2:	0112      	lsls	r2, r2, #4
200006d4:	651a      	str	r2, [r3, #80]	@ 0x50
200006d6:	e7b2      	b.n	2000063e <dcd_rp2040_irq+0x19e>
200006d8:	f7ff fe8a 	bl	200003f0 <hw_handle_buff_status>
200006dc:	0026      	movs	r6, r4
200006de:	e76b      	b.n	200005b8 <dcd_rp2040_irq+0x118>
200006e0:	4b4e      	ldr	r3, [pc, #312]	@ (2000081c <dcd_rp2040_irq+0x37c>)
200006e2:	4a3e      	ldr	r2, [pc, #248]	@ (200007dc <dcd_rp2040_irq+0x33c>)
200006e4:	661c      	str	r4, [r3, #96]	@ 0x60
200006e6:	6e53      	ldr	r3, [r2, #100]	@ 0x64
200006e8:	4023      	ands	r3, r4
200006ea:	42a3      	cmp	r3, r4
200006ec:	d1fb      	bne.n	200006e6 <dcd_rp2040_irq+0x246>
200006ee:	e774      	b.n	200005da <dcd_rp2040_irq+0x13a>
200006f0:	3338      	adds	r3, #56	@ 0x38
200006f2:	5ce6      	ldrb	r6, [r4, r3]
200006f4:	2e00      	cmp	r6, #0
200006f6:	d100      	bne.n	200006fa <dcd_rp2040_irq+0x25a>
200006f8:	e6eb      	b.n	200004d2 <dcd_rp2040_irq+0x32>
200006fa:	3302      	adds	r3, #2
200006fc:	5ce2      	ldrb	r2, [r4, r3]
200006fe:	2a00      	cmp	r2, #0
20000700:	d100      	bne.n	20000704 <dcd_rp2040_irq+0x264>
20000702:	e6e6      	b.n	200004d2 <dcd_rp2040_irq+0x32>
20000704:	0020      	movs	r0, r4
20000706:	2200      	movs	r2, #0
20000708:	3020      	adds	r0, #32
2000070a:	54e2      	strb	r2, [r4, r3]
2000070c:	f000 fab8 	bl	20000c80 <hw_endpoint_start_next_buffer>
20000710:	e6df      	b.n	200004d2 <dcd_rp2040_irq+0x32>
20000712:	33b8      	adds	r3, #184	@ 0xb8
20000714:	5ce7      	ldrb	r7, [r4, r3]
20000716:	2f00      	cmp	r7, #0
20000718:	d100      	bne.n	2000071c <dcd_rp2040_irq+0x27c>
2000071a:	e6e4      	b.n	200004e6 <dcd_rp2040_irq+0x46>
2000071c:	3302      	adds	r3, #2
2000071e:	5ce2      	ldrb	r2, [r4, r3]
20000720:	2a00      	cmp	r2, #0
20000722:	d000      	beq.n	20000726 <dcd_rp2040_irq+0x286>
20000724:	e120      	b.n	20000968 <dcd_rp2040_irq+0x4c8>
20000726:	003e      	movs	r6, r7
20000728:	e6dd      	b.n	200004e6 <dcd_rp2040_irq+0x46>
2000072a:	3378      	adds	r3, #120	@ 0x78
2000072c:	5ce7      	ldrb	r7, [r4, r3]
2000072e:	2f00      	cmp	r7, #0
20000730:	d100      	bne.n	20000734 <dcd_rp2040_irq+0x294>
20000732:	e6d3      	b.n	200004dc <dcd_rp2040_irq+0x3c>
20000734:	3302      	adds	r3, #2
20000736:	5ce2      	ldrb	r2, [r4, r3]
20000738:	2a00      	cmp	r2, #0
2000073a:	d000      	beq.n	2000073e <dcd_rp2040_irq+0x29e>
2000073c:	e10c      	b.n	20000958 <dcd_rp2040_irq+0x4b8>
2000073e:	003e      	movs	r6, r7
20000740:	e6cc      	b.n	200004dc <dcd_rp2040_irq+0x3c>
20000742:	33b9      	adds	r3, #185	@ 0xb9
20000744:	33ff      	adds	r3, #255	@ 0xff
20000746:	5ce7      	ldrb	r7, [r4, r3]
20000748:	2f00      	cmp	r7, #0
2000074a:	d100      	bne.n	2000074e <dcd_rp2040_irq+0x2ae>
2000074c:	e6e2      	b.n	20000514 <dcd_rp2040_irq+0x74>
2000074e:	3302      	adds	r3, #2
20000750:	5ce2      	ldrb	r2, [r4, r3]
20000752:	2a00      	cmp	r2, #0
20000754:	d000      	beq.n	20000758 <dcd_rp2040_irq+0x2b8>
20000756:	e0f6      	b.n	20000946 <dcd_rp2040_irq+0x4a6>
20000758:	003e      	movs	r6, r7
2000075a:	e6db      	b.n	20000514 <dcd_rp2040_irq+0x74>
2000075c:	3379      	adds	r3, #121	@ 0x79
2000075e:	33ff      	adds	r3, #255	@ 0xff
20000760:	5ce7      	ldrb	r7, [r4, r3]
20000762:	2f00      	cmp	r7, #0
20000764:	d100      	bne.n	20000768 <dcd_rp2040_irq+0x2c8>
20000766:	e6cf      	b.n	20000508 <dcd_rp2040_irq+0x68>
20000768:	3302      	adds	r3, #2
2000076a:	5ce2      	ldrb	r2, [r4, r3]
2000076c:	2a00      	cmp	r2, #0
2000076e:	d000      	beq.n	20000772 <dcd_rp2040_irq+0x2d2>
20000770:	e0e0      	b.n	20000934 <dcd_rp2040_irq+0x494>
20000772:	003e      	movs	r6, r7
20000774:	e6c8      	b.n	20000508 <dcd_rp2040_irq+0x68>
20000776:	3339      	adds	r3, #57	@ 0x39
20000778:	33ff      	adds	r3, #255	@ 0xff
2000077a:	5ce7      	ldrb	r7, [r4, r3]
2000077c:	2f00      	cmp	r7, #0
2000077e:	d100      	bne.n	20000782 <dcd_rp2040_irq+0x2e2>
20000780:	e6bc      	b.n	200004fc <dcd_rp2040_irq+0x5c>
20000782:	3302      	adds	r3, #2
20000784:	5ce2      	ldrb	r2, [r4, r3]
20000786:	2a00      	cmp	r2, #0
20000788:	d000      	beq.n	2000078c <dcd_rp2040_irq+0x2ec>
2000078a:	e0ca      	b.n	20000922 <dcd_rp2040_irq+0x482>
2000078c:	003e      	movs	r6, r7
2000078e:	e6b5      	b.n	200004fc <dcd_rp2040_irq+0x5c>
20000790:	33f8      	adds	r3, #248	@ 0xf8
20000792:	5ce7      	ldrb	r7, [r4, r3]
20000794:	2f00      	cmp	r7, #0
20000796:	d100      	bne.n	2000079a <dcd_rp2040_irq+0x2fa>
20000798:	e6aa      	b.n	200004f0 <dcd_rp2040_irq+0x50>
2000079a:	3302      	adds	r3, #2
2000079c:	5ce2      	ldrb	r2, [r4, r3]
2000079e:	2a00      	cmp	r2, #0
200007a0:	d000      	beq.n	200007a4 <dcd_rp2040_irq+0x304>
200007a2:	e0b6      	b.n	20000912 <dcd_rp2040_irq+0x472>
200007a4:	003e      	movs	r6, r7
200007a6:	e6a3      	b.n	200004f0 <dcd_rp2040_irq+0x50>
200007a8:	4b1d      	ldr	r3, [pc, #116]	@ (20000820 <dcd_rp2040_irq+0x380>)
200007aa:	5ce7      	ldrb	r7, [r4, r3]
200007ac:	2f00      	cmp	r7, #0
200007ae:	d100      	bne.n	200007b2 <dcd_rp2040_irq+0x312>
200007b0:	e6d4      	b.n	2000055c <dcd_rp2040_irq+0xbc>
200007b2:	3302      	adds	r3, #2
200007b4:	5ce2      	ldrb	r2, [r4, r3]
200007b6:	2a00      	cmp	r2, #0
200007b8:	d000      	beq.n	200007bc <dcd_rp2040_irq+0x31c>
200007ba:	e10e      	b.n	200009da <dcd_rp2040_irq+0x53a>
200007bc:	4b11      	ldr	r3, [pc, #68]	@ (20000804 <dcd_rp2040_irq+0x364>)
200007be:	5ce3      	ldrb	r3, [r4, r3]
200007c0:	2b02      	cmp	r3, #2
200007c2:	d100      	bne.n	200007c6 <dcd_rp2040_irq+0x326>
200007c4:	e089      	b.n	200008da <dcd_rp2040_irq+0x43a>
200007c6:	4b10      	ldr	r3, [pc, #64]	@ (20000808 <dcd_rp2040_irq+0x368>)
200007c8:	5ce3      	ldrb	r3, [r4, r3]
200007ca:	2b02      	cmp	r3, #2
200007cc:	d000      	beq.n	200007d0 <dcd_rp2040_irq+0x330>
200007ce:	e6da      	b.n	20000586 <dcd_rp2040_irq+0xe6>
200007d0:	4b14      	ldr	r3, [pc, #80]	@ (20000824 <dcd_rp2040_irq+0x384>)
200007d2:	5ce3      	ldrb	r3, [r4, r3]
200007d4:	2b00      	cmp	r3, #0
200007d6:	d000      	beq.n	200007da <dcd_rp2040_irq+0x33a>
200007d8:	e08e      	b.n	200008f8 <dcd_rp2040_irq+0x458>
200007da:	e6d4      	b.n	20000586 <dcd_rp2040_irq+0xe6>
200007dc:	50110000 	.word	0x50110000
200007e0:	40054000 	.word	0x40054000
200007e4:	20001e14 	.word	0x20001e14
200007e8:	20001e0c 	.word	0x20001e0c
200007ec:	0000023b 	.word	0x0000023b
200007f0:	0000027b 	.word	0x0000027b
200007f4:	000002bb 	.word	0x000002bb
200007f8:	000002fb 	.word	0x000002fb
200007fc:	0000033b 	.word	0x0000033b
20000800:	0000037b 	.word	0x0000037b
20000804:	000003bb 	.word	0x000003bb
20000808:	000003fb 	.word	0x000003fb
2000080c:	20002262 	.word	0x20002262
20000810:	50113000 	.word	0x50113000
20000814:	00020010 	.word	0x00020010
20000818:	50100000 	.word	0x50100000
2000081c:	50112000 	.word	0x50112000
20000820:	0000037a 	.word	0x0000037a
20000824:	000003fa 	.word	0x000003fa
20000828:	4b72      	ldr	r3, [pc, #456]	@ (200009f4 <dcd_rp2040_irq+0x554>)
2000082a:	5ce7      	ldrb	r7, [r4, r3]
2000082c:	2f00      	cmp	r7, #0
2000082e:	d100      	bne.n	20000832 <dcd_rp2040_irq+0x392>
20000830:	e68f      	b.n	20000552 <dcd_rp2040_irq+0xb2>
20000832:	3302      	adds	r3, #2
20000834:	5ce2      	ldrb	r2, [r4, r3]
20000836:	2a00      	cmp	r2, #0
20000838:	d000      	beq.n	2000083c <dcd_rp2040_irq+0x39c>
2000083a:	e0c6      	b.n	200009ca <dcd_rp2040_irq+0x52a>
2000083c:	003e      	movs	r6, r7
2000083e:	e688      	b.n	20000552 <dcd_rp2040_irq+0xb2>
20000840:	4b6d      	ldr	r3, [pc, #436]	@ (200009f8 <dcd_rp2040_irq+0x558>)
20000842:	5ce7      	ldrb	r7, [r4, r3]
20000844:	2f00      	cmp	r7, #0
20000846:	d100      	bne.n	2000084a <dcd_rp2040_irq+0x3aa>
20000848:	e67e      	b.n	20000548 <dcd_rp2040_irq+0xa8>
2000084a:	3302      	adds	r3, #2
2000084c:	5ce2      	ldrb	r2, [r4, r3]
2000084e:	2a00      	cmp	r2, #0
20000850:	d000      	beq.n	20000854 <dcd_rp2040_irq+0x3b4>
20000852:	e0b2      	b.n	200009ba <dcd_rp2040_irq+0x51a>
20000854:	003e      	movs	r6, r7
20000856:	e677      	b.n	20000548 <dcd_rp2040_irq+0xa8>
20000858:	4b68      	ldr	r3, [pc, #416]	@ (200009fc <dcd_rp2040_irq+0x55c>)
2000085a:	5ce7      	ldrb	r7, [r4, r3]
2000085c:	2f00      	cmp	r7, #0
2000085e:	d100      	bne.n	20000862 <dcd_rp2040_irq+0x3c2>
20000860:	e66d      	b.n	2000053e <dcd_rp2040_irq+0x9e>
20000862:	3302      	adds	r3, #2
20000864:	5ce2      	ldrb	r2, [r4, r3]
20000866:	2a00      	cmp	r2, #0
20000868:	d000      	beq.n	2000086c <dcd_rp2040_irq+0x3cc>
2000086a:	e09e      	b.n	200009aa <dcd_rp2040_irq+0x50a>
2000086c:	003e      	movs	r6, r7
2000086e:	e666      	b.n	2000053e <dcd_rp2040_irq+0x9e>
20000870:	4b63      	ldr	r3, [pc, #396]	@ (20000a00 <dcd_rp2040_irq+0x560>)
20000872:	5ce7      	ldrb	r7, [r4, r3]
20000874:	2f00      	cmp	r7, #0
20000876:	d100      	bne.n	2000087a <dcd_rp2040_irq+0x3da>
20000878:	e65c      	b.n	20000534 <dcd_rp2040_irq+0x94>
2000087a:	3302      	adds	r3, #2
2000087c:	5ce2      	ldrb	r2, [r4, r3]
2000087e:	2a00      	cmp	r2, #0
20000880:	d000      	beq.n	20000884 <dcd_rp2040_irq+0x3e4>
20000882:	e08a      	b.n	2000099a <dcd_rp2040_irq+0x4fa>
20000884:	003e      	movs	r6, r7
20000886:	e655      	b.n	20000534 <dcd_rp2040_irq+0x94>
20000888:	4b5e      	ldr	r3, [pc, #376]	@ (20000a04 <dcd_rp2040_irq+0x564>)
2000088a:	5ce7      	ldrb	r7, [r4, r3]
2000088c:	2f00      	cmp	r7, #0
2000088e:	d100      	bne.n	20000892 <dcd_rp2040_irq+0x3f2>
20000890:	e64b      	b.n	2000052a <dcd_rp2040_irq+0x8a>
20000892:	3302      	adds	r3, #2
20000894:	5ce2      	ldrb	r2, [r4, r3]
20000896:	2a00      	cmp	r2, #0
20000898:	d177      	bne.n	2000098a <dcd_rp2040_irq+0x4ea>
2000089a:	003e      	movs	r6, r7
2000089c:	e645      	b.n	2000052a <dcd_rp2040_irq+0x8a>
2000089e:	33f9      	adds	r3, #249	@ 0xf9
200008a0:	33ff      	adds	r3, #255	@ 0xff
200008a2:	5ce7      	ldrb	r7, [r4, r3]
200008a4:	2f00      	cmp	r7, #0
200008a6:	d100      	bne.n	200008aa <dcd_rp2040_irq+0x40a>
200008a8:	e63a      	b.n	20000520 <dcd_rp2040_irq+0x80>
200008aa:	3302      	adds	r3, #2
200008ac:	5ce2      	ldrb	r2, [r4, r3]
200008ae:	2a00      	cmp	r2, #0
200008b0:	d162      	bne.n	20000978 <dcd_rp2040_irq+0x4d8>
200008b2:	003e      	movs	r6, r7
200008b4:	e634      	b.n	20000520 <dcd_rp2040_irq+0x80>
200008b6:	4b54      	ldr	r3, [pc, #336]	@ (20000a08 <dcd_rp2040_irq+0x568>)
200008b8:	5ce3      	ldrb	r3, [r4, r3]
200008ba:	2b00      	cmp	r3, #0
200008bc:	d100      	bne.n	200008c0 <dcd_rp2040_irq+0x420>
200008be:	e652      	b.n	20000566 <dcd_rp2040_irq+0xc6>
200008c0:	23ef      	movs	r3, #239	@ 0xef
200008c2:	009b      	lsls	r3, r3, #2
200008c4:	5ce2      	ldrb	r2, [r4, r3]
200008c6:	2a00      	cmp	r2, #0
200008c8:	d100      	bne.n	200008cc <dcd_rp2040_irq+0x42c>
200008ca:	e77c      	b.n	200007c6 <dcd_rp2040_irq+0x326>
200008cc:	2200      	movs	r2, #0
200008ce:	54e2      	strb	r2, [r4, r3]
200008d0:	3b1c      	subs	r3, #28
200008d2:	18e0      	adds	r0, r4, r3
200008d4:	f000 f9d4 	bl	20000c80 <hw_endpoint_start_next_buffer>
200008d8:	e775      	b.n	200007c6 <dcd_rp2040_irq+0x326>
200008da:	4b4b      	ldr	r3, [pc, #300]	@ (20000a08 <dcd_rp2040_irq+0x568>)
200008dc:	5ce3      	ldrb	r3, [r4, r3]
200008de:	2b00      	cmp	r3, #0
200008e0:	d1ee      	bne.n	200008c0 <dcd_rp2040_irq+0x420>
200008e2:	4b4a      	ldr	r3, [pc, #296]	@ (20000a0c <dcd_rp2040_irq+0x56c>)
200008e4:	5ce3      	ldrb	r3, [r4, r3]
200008e6:	2b02      	cmp	r3, #2
200008e8:	d000      	beq.n	200008ec <dcd_rp2040_irq+0x44c>
200008ea:	e64c      	b.n	20000586 <dcd_rp2040_irq+0xe6>
200008ec:	003e      	movs	r6, r7
200008ee:	4b48      	ldr	r3, [pc, #288]	@ (20000a10 <dcd_rp2040_irq+0x570>)
200008f0:	5ce3      	ldrb	r3, [r4, r3]
200008f2:	2b00      	cmp	r3, #0
200008f4:	d100      	bne.n	200008f8 <dcd_rp2040_irq+0x458>
200008f6:	e63b      	b.n	20000570 <dcd_rp2040_irq+0xd0>
200008f8:	23ff      	movs	r3, #255	@ 0xff
200008fa:	009b      	lsls	r3, r3, #2
200008fc:	5ce2      	ldrb	r2, [r4, r3]
200008fe:	2a00      	cmp	r2, #0
20000900:	d100      	bne.n	20000904 <dcd_rp2040_irq+0x464>
20000902:	e640      	b.n	20000586 <dcd_rp2040_irq+0xe6>
20000904:	2200      	movs	r2, #0
20000906:	54e2      	strb	r2, [r4, r3]
20000908:	3b1c      	subs	r3, #28
2000090a:	18e0      	adds	r0, r4, r3
2000090c:	f000 f9b8 	bl	20000c80 <hw_endpoint_start_next_buffer>
20000910:	e639      	b.n	20000586 <dcd_rp2040_irq+0xe6>
20000912:	0020      	movs	r0, r4
20000914:	2200      	movs	r2, #0
20000916:	30e0      	adds	r0, #224	@ 0xe0
20000918:	54e2      	strb	r2, [r4, r3]
2000091a:	003e      	movs	r6, r7
2000091c:	f000 f9b0 	bl	20000c80 <hw_endpoint_start_next_buffer>
20000920:	e5e6      	b.n	200004f0 <dcd_rp2040_irq+0x50>
20000922:	0020      	movs	r0, r4
20000924:	2200      	movs	r2, #0
20000926:	3021      	adds	r0, #33	@ 0x21
20000928:	30ff      	adds	r0, #255	@ 0xff
2000092a:	54e2      	strb	r2, [r4, r3]
2000092c:	003e      	movs	r6, r7
2000092e:	f000 f9a7 	bl	20000c80 <hw_endpoint_start_next_buffer>
20000932:	e5e3      	b.n	200004fc <dcd_rp2040_irq+0x5c>
20000934:	0020      	movs	r0, r4
20000936:	2200      	movs	r2, #0
20000938:	3061      	adds	r0, #97	@ 0x61
2000093a:	30ff      	adds	r0, #255	@ 0xff
2000093c:	54e2      	strb	r2, [r4, r3]
2000093e:	003e      	movs	r6, r7
20000940:	f000 f99e 	bl	20000c80 <hw_endpoint_start_next_buffer>
20000944:	e5e0      	b.n	20000508 <dcd_rp2040_irq+0x68>
20000946:	0020      	movs	r0, r4
20000948:	2200      	movs	r2, #0
2000094a:	30a1      	adds	r0, #161	@ 0xa1
2000094c:	30ff      	adds	r0, #255	@ 0xff
2000094e:	54e2      	strb	r2, [r4, r3]
20000950:	003e      	movs	r6, r7
20000952:	f000 f995 	bl	20000c80 <hw_endpoint_start_next_buffer>
20000956:	e5dd      	b.n	20000514 <dcd_rp2040_irq+0x74>
20000958:	0020      	movs	r0, r4
2000095a:	2200      	movs	r2, #0
2000095c:	3060      	adds	r0, #96	@ 0x60
2000095e:	54e2      	strb	r2, [r4, r3]
20000960:	003e      	movs	r6, r7
20000962:	f000 f98d 	bl	20000c80 <hw_endpoint_start_next_buffer>
20000966:	e5b9      	b.n	200004dc <dcd_rp2040_irq+0x3c>
20000968:	0020      	movs	r0, r4
2000096a:	2200      	movs	r2, #0
2000096c:	30a0      	adds	r0, #160	@ 0xa0
2000096e:	54e2      	strb	r2, [r4, r3]
20000970:	003e      	movs	r6, r7
20000972:	f000 f985 	bl	20000c80 <hw_endpoint_start_next_buffer>
20000976:	e5b6      	b.n	200004e6 <dcd_rp2040_irq+0x46>
20000978:	0020      	movs	r0, r4
2000097a:	2200      	movs	r2, #0
2000097c:	30e1      	adds	r0, #225	@ 0xe1
2000097e:	30ff      	adds	r0, #255	@ 0xff
20000980:	54e2      	strb	r2, [r4, r3]
20000982:	003e      	movs	r6, r7
20000984:	f000 f97c 	bl	20000c80 <hw_endpoint_start_next_buffer>
20000988:	e5ca      	b.n	20000520 <dcd_rp2040_irq+0x80>
2000098a:	2200      	movs	r2, #0
2000098c:	54e2      	strb	r2, [r4, r3]
2000098e:	3b1c      	subs	r3, #28
20000990:	18e0      	adds	r0, r4, r3
20000992:	f000 f975 	bl	20000c80 <hw_endpoint_start_next_buffer>
20000996:	003e      	movs	r6, r7
20000998:	e5c7      	b.n	2000052a <dcd_rp2040_irq+0x8a>
2000099a:	2200      	movs	r2, #0
2000099c:	54e2      	strb	r2, [r4, r3]
2000099e:	3b1c      	subs	r3, #28
200009a0:	18e0      	adds	r0, r4, r3
200009a2:	f000 f96d 	bl	20000c80 <hw_endpoint_start_next_buffer>
200009a6:	003e      	movs	r6, r7
200009a8:	e5c4      	b.n	20000534 <dcd_rp2040_irq+0x94>
200009aa:	2200      	movs	r2, #0
200009ac:	54e2      	strb	r2, [r4, r3]
200009ae:	3b1c      	subs	r3, #28
200009b0:	18e0      	adds	r0, r4, r3
200009b2:	f000 f965 	bl	20000c80 <hw_endpoint_start_next_buffer>
200009b6:	003e      	movs	r6, r7
200009b8:	e5c1      	b.n	2000053e <dcd_rp2040_irq+0x9e>
200009ba:	2200      	movs	r2, #0
200009bc:	54e2      	strb	r2, [r4, r3]
200009be:	3b1c      	subs	r3, #28
200009c0:	18e0      	adds	r0, r4, r3
200009c2:	f000 f95d 	bl	20000c80 <hw_endpoint_start_next_buffer>
200009c6:	003e      	movs	r6, r7
200009c8:	e5be      	b.n	20000548 <dcd_rp2040_irq+0xa8>
200009ca:	2200      	movs	r2, #0
200009cc:	54e2      	strb	r2, [r4, r3]
200009ce:	3b1c      	subs	r3, #28
200009d0:	18e0      	adds	r0, r4, r3
200009d2:	f000 f955 	bl	20000c80 <hw_endpoint_start_next_buffer>
200009d6:	003e      	movs	r6, r7
200009d8:	e5bb      	b.n	20000552 <dcd_rp2040_irq+0xb2>
200009da:	2200      	movs	r2, #0
200009dc:	54e2      	strb	r2, [r4, r3]
200009de:	3b1c      	subs	r3, #28
200009e0:	18e0      	adds	r0, r4, r3
200009e2:	f000 f94d 	bl	20000c80 <hw_endpoint_start_next_buffer>
200009e6:	e6e9      	b.n	200007bc <dcd_rp2040_irq+0x31c>
200009e8:	0031      	movs	r1, r6
200009ea:	480a      	ldr	r0, [pc, #40]	@ (20000a14 <dcd_rp2040_irq+0x574>)
200009ec:	4069      	eors	r1, r5
200009ee:	f000 faab 	bl	20000f48 <__panic_veneer>
200009f2:	46c0      	nop			@ (mov r8, r8)
200009f4:	0000033a 	.word	0x0000033a
200009f8:	000002fa 	.word	0x000002fa
200009fc:	000002ba 	.word	0x000002ba
20000a00:	0000027a 	.word	0x0000027a
20000a04:	0000023a 	.word	0x0000023a
20000a08:	000003ba 	.word	0x000003ba
20000a0c:	000003fb 	.word	0x000003fb
20000a10:	000003fa 	.word	0x000003fa
20000a14:	10006e04 	.word	0x10006e04

20000a18 <prepare_ep_buffer>:
20000a18:	b5f0      	push	{r4, r5, r6, r7, lr}
20000a1a:	46d6      	mov	lr, sl
20000a1c:	464f      	mov	r7, r9
20000a1e:	4646      	mov	r6, r8
20000a20:	b5c0      	push	{r6, r7, lr}
20000a22:	0002      	movs	r2, r0
20000a24:	8a83      	ldrh	r3, [r0, #20]
20000a26:	8b00      	ldrh	r0, [r0, #24]
20000a28:	468a      	mov	sl, r1
20000a2a:	1c04      	adds	r4, r0, #0
20000a2c:	4298      	cmp	r0, r3
20000a2e:	d900      	bls.n	20000a32 <prepare_ep_buffer+0x1a>
20000a30:	1c1c      	adds	r4, r3, #0
20000a32:	78d5      	ldrb	r5, [r2, #3]
20000a34:	2680      	movs	r6, #128	@ 0x80
20000a36:	0028      	movs	r0, r5
20000a38:	1e47      	subs	r7, r0, #1
20000a3a:	41b8      	sbcs	r0, r7
20000a3c:	b2a4      	uxth	r4, r4
20000a3e:	00f6      	lsls	r6, r6, #3
20000a40:	4326      	orrs	r6, r4
20000a42:	0340      	lsls	r0, r0, #13
20000a44:	4330      	orrs	r0, r6
20000a46:	2601      	movs	r6, #1
20000a48:	4075      	eors	r5, r6
20000a4a:	1b1b      	subs	r3, r3, r4
20000a4c:	70d5      	strb	r5, [r2, #3]
20000a4e:	7855      	ldrb	r5, [r2, #1]
20000a50:	b29b      	uxth	r3, r3
20000a52:	8293      	strh	r3, [r2, #20]
20000a54:	2d00      	cmp	r5, #0
20000a56:	d137      	bne.n	20000ac8 <prepare_ep_buffer+0xb0>
20000a58:	4651      	mov	r1, sl
20000a5a:	68d6      	ldr	r6, [r2, #12]
20000a5c:	018d      	lsls	r5, r1, #6
20000a5e:	1e61      	subs	r1, r4, #1
20000a60:	1976      	adds	r6, r6, r5
20000a62:	4688      	mov	r8, r1
20000a64:	6915      	ldr	r5, [r2, #16]
20000a66:	2c00      	cmp	r4, #0
20000a68:	d029      	beq.n	20000abe <prepare_ep_buffer+0xa6>
20000a6a:	2906      	cmp	r1, #6
20000a6c:	d93a      	bls.n	20000ae4 <prepare_ep_buffer+0xcc>
20000a6e:	0033      	movs	r3, r6
20000a70:	432b      	orrs	r3, r5
20000a72:	079b      	lsls	r3, r3, #30
20000a74:	d136      	bne.n	20000ae4 <prepare_ep_buffer+0xcc>
20000a76:	1c6b      	adds	r3, r5, #1
20000a78:	1af3      	subs	r3, r6, r3
20000a7a:	2b02      	cmp	r3, #2
20000a7c:	d932      	bls.n	20000ae4 <prepare_ep_buffer+0xcc>
20000a7e:	1f23      	subs	r3, r4, #4
20000a80:	089b      	lsrs	r3, r3, #2
20000a82:	3301      	adds	r3, #1
20000a84:	469c      	mov	ip, r3
20000a86:	2700      	movs	r7, #0
20000a88:	2300      	movs	r3, #0
20000a8a:	58e9      	ldr	r1, [r5, r3]
20000a8c:	3701      	adds	r7, #1
20000a8e:	50f1      	str	r1, [r6, r3]
20000a90:	3304      	adds	r3, #4
20000a92:	45bc      	cmp	ip, r7
20000a94:	d8f9      	bhi.n	20000a8a <prepare_ep_buffer+0x72>
20000a96:	4663      	mov	r3, ip
20000a98:	4641      	mov	r1, r8
20000a9a:	009b      	lsls	r3, r3, #2
20000a9c:	18ed      	adds	r5, r5, r3
20000a9e:	18f6      	adds	r6, r6, r3
20000aa0:	1acf      	subs	r7, r1, r3
20000aa2:	429c      	cmp	r4, r3
20000aa4:	d009      	beq.n	20000aba <prepare_ep_buffer+0xa2>
20000aa6:	782b      	ldrb	r3, [r5, #0]
20000aa8:	7033      	strb	r3, [r6, #0]
20000aaa:	2f00      	cmp	r7, #0
20000aac:	d005      	beq.n	20000aba <prepare_ep_buffer+0xa2>
20000aae:	786b      	ldrb	r3, [r5, #1]
20000ab0:	7073      	strb	r3, [r6, #1]
20000ab2:	2f01      	cmp	r7, #1
20000ab4:	d001      	beq.n	20000aba <prepare_ep_buffer+0xa2>
20000ab6:	78ab      	ldrb	r3, [r5, #2]
20000ab8:	70b3      	strb	r3, [r6, #2]
20000aba:	6915      	ldr	r5, [r2, #16]
20000abc:	8a93      	ldrh	r3, [r2, #20]
20000abe:	192d      	adds	r5, r5, r4
20000ac0:	6115      	str	r5, [r2, #16]
20000ac2:	2280      	movs	r2, #128	@ 0x80
20000ac4:	0212      	lsls	r2, r2, #8
20000ac6:	4310      	orrs	r0, r2
20000ac8:	2b00      	cmp	r3, #0
20000aca:	d102      	bne.n	20000ad2 <prepare_ep_buffer+0xba>
20000acc:	2380      	movs	r3, #128	@ 0x80
20000ace:	01db      	lsls	r3, r3, #7
20000ad0:	4318      	orrs	r0, r3
20000ad2:	4653      	mov	r3, sl
20000ad4:	2b00      	cmp	r3, #0
20000ad6:	d000      	beq.n	20000ada <prepare_ep_buffer+0xc2>
20000ad8:	0400      	lsls	r0, r0, #16
20000ada:	bce0      	pop	{r5, r6, r7}
20000adc:	46ba      	mov	sl, r7
20000ade:	46b1      	mov	r9, r6
20000ae0:	46a8      	mov	r8, r5
20000ae2:	bdf0      	pop	{r4, r5, r6, r7, pc}
20000ae4:	2300      	movs	r3, #0
20000ae6:	5cef      	ldrb	r7, [r5, r3]
20000ae8:	54f7      	strb	r7, [r6, r3]
20000aea:	3301      	adds	r3, #1
20000aec:	429c      	cmp	r4, r3
20000aee:	d1fa      	bne.n	20000ae6 <prepare_ep_buffer+0xce>
20000af0:	6915      	ldr	r5, [r2, #16]
20000af2:	8a93      	ldrh	r3, [r2, #20]
20000af4:	e7e3      	b.n	20000abe <prepare_ep_buffer+0xa6>
20000af6:	46c0      	nop			@ (mov r8, r8)

20000af8 <sync_ep_buffer>:
20000af8:	6883      	ldr	r3, [r0, #8]
20000afa:	b5f0      	push	{r4, r5, r6, r7, lr}
20000afc:	681b      	ldr	r3, [r3, #0]
20000afe:	0005      	movs	r5, r0
20000b00:	2900      	cmp	r1, #0
20000b02:	d000      	beq.n	20000b06 <sync_ep_buffer+0xe>
20000b04:	0c1b      	lsrs	r3, r3, #16
20000b06:	059b      	lsls	r3, r3, #22
20000b08:	0d98      	lsrs	r0, r3, #22
20000b0a:	786b      	ldrb	r3, [r5, #1]
20000b0c:	2b00      	cmp	r3, #0
20000b0e:	d108      	bne.n	20000b22 <sync_ep_buffer+0x2a>
20000b10:	8aeb      	ldrh	r3, [r5, #22]
20000b12:	18c3      	adds	r3, r0, r3
20000b14:	82eb      	strh	r3, [r5, #22]
20000b16:	8b2b      	ldrh	r3, [r5, #24]
20000b18:	4283      	cmp	r3, r0
20000b1a:	d901      	bls.n	20000b20 <sync_ep_buffer+0x28>
20000b1c:	2300      	movs	r3, #0
20000b1e:	82ab      	strh	r3, [r5, #20]
20000b20:	bdf0      	pop	{r4, r5, r6, r7, pc}
20000b22:	68eb      	ldr	r3, [r5, #12]
20000b24:	0189      	lsls	r1, r1, #6
20000b26:	1e46      	subs	r6, r0, #1
20000b28:	46b4      	mov	ip, r6
20000b2a:	692a      	ldr	r2, [r5, #16]
20000b2c:	185c      	adds	r4, r3, r1
20000b2e:	2800      	cmp	r0, #0
20000b30:	d027      	beq.n	20000b82 <sync_ep_buffer+0x8a>
20000b32:	2e06      	cmp	r6, #6
20000b34:	d92b      	bls.n	20000b8e <sync_ep_buffer+0x96>
20000b36:	3101      	adds	r1, #1
20000b38:	185b      	adds	r3, r3, r1
20000b3a:	1ad3      	subs	r3, r2, r3
20000b3c:	2b02      	cmp	r3, #2
20000b3e:	d926      	bls.n	20000b8e <sync_ep_buffer+0x96>
20000b40:	0013      	movs	r3, r2
20000b42:	4323      	orrs	r3, r4
20000b44:	079b      	lsls	r3, r3, #30
20000b46:	d122      	bne.n	20000b8e <sync_ep_buffer+0x96>
20000b48:	2300      	movs	r3, #0
20000b4a:	2100      	movs	r1, #0
20000b4c:	1f06      	subs	r6, r0, #4
20000b4e:	08b6      	lsrs	r6, r6, #2
20000b50:	3601      	adds	r6, #1
20000b52:	58e7      	ldr	r7, [r4, r3]
20000b54:	3101      	adds	r1, #1
20000b56:	50d7      	str	r7, [r2, r3]
20000b58:	3304      	adds	r3, #4
20000b5a:	428e      	cmp	r6, r1
20000b5c:	d8f9      	bhi.n	20000b52 <sync_ep_buffer+0x5a>
20000b5e:	4663      	mov	r3, ip
20000b60:	00b6      	lsls	r6, r6, #2
20000b62:	19a4      	adds	r4, r4, r6
20000b64:	1992      	adds	r2, r2, r6
20000b66:	1b9f      	subs	r7, r3, r6
20000b68:	42b0      	cmp	r0, r6
20000b6a:	d009      	beq.n	20000b80 <sync_ep_buffer+0x88>
20000b6c:	7823      	ldrb	r3, [r4, #0]
20000b6e:	7013      	strb	r3, [r2, #0]
20000b70:	2f00      	cmp	r7, #0
20000b72:	d005      	beq.n	20000b80 <sync_ep_buffer+0x88>
20000b74:	7863      	ldrb	r3, [r4, #1]
20000b76:	7053      	strb	r3, [r2, #1]
20000b78:	2f01      	cmp	r7, #1
20000b7a:	d001      	beq.n	20000b80 <sync_ep_buffer+0x88>
20000b7c:	78a3      	ldrb	r3, [r4, #2]
20000b7e:	7093      	strb	r3, [r2, #2]
20000b80:	692a      	ldr	r2, [r5, #16]
20000b82:	8aeb      	ldrh	r3, [r5, #22]
20000b84:	1812      	adds	r2, r2, r0
20000b86:	18c3      	adds	r3, r0, r3
20000b88:	82eb      	strh	r3, [r5, #22]
20000b8a:	612a      	str	r2, [r5, #16]
20000b8c:	e7c3      	b.n	20000b16 <sync_ep_buffer+0x1e>
20000b8e:	2300      	movs	r3, #0
20000b90:	5ce1      	ldrb	r1, [r4, r3]
20000b92:	54d1      	strb	r1, [r2, r3]
20000b94:	3301      	adds	r3, #1
20000b96:	4298      	cmp	r0, r3
20000b98:	d1fa      	bne.n	20000b90 <sync_ep_buffer+0x98>
20000b9a:	692a      	ldr	r2, [r5, #16]
20000b9c:	e7f1      	b.n	20000b82 <sync_ep_buffer+0x8a>
20000b9e:	46c0      	nop			@ (mov r8, r8)

20000ba0 <_hw_endpoint_xfer_sync>:
20000ba0:	b510      	push	{r4, lr}
20000ba2:	0004      	movs	r4, r0
20000ba4:	6883      	ldr	r3, [r0, #8]
20000ba6:	2100      	movs	r1, #0
20000ba8:	681b      	ldr	r3, [r3, #0]
20000baa:	f7ff ffa5 	bl	20000af8 <sync_ep_buffer>
20000bae:	6863      	ldr	r3, [r4, #4]
20000bb0:	681b      	ldr	r3, [r3, #0]
20000bb2:	005b      	lsls	r3, r3, #1
20000bb4:	d502      	bpl.n	20000bbc <_hw_endpoint_xfer_sync+0x1c>
20000bb6:	8b23      	ldrh	r3, [r4, #24]
20000bb8:	4283      	cmp	r3, r0
20000bba:	d000      	beq.n	20000bbe <_hw_endpoint_xfer_sync+0x1e>
20000bbc:	bd10      	pop	{r4, pc}
20000bbe:	2101      	movs	r1, #1
20000bc0:	0020      	movs	r0, r4
20000bc2:	f7ff ff99 	bl	20000af8 <sync_ep_buffer>
20000bc6:	e7f9      	b.n	20000bbc <_hw_endpoint_xfer_sync+0x1c>

20000bc8 <e15_is_bulkin_ep>:
20000bc8:	4a08      	ldr	r2, [pc, #32]	@ (20000bec <e15_is_bulkin_ep+0x24>)
20000bca:	0003      	movs	r3, r0
20000bcc:	6c12      	ldr	r2, [r2, #64]	@ 0x40
20000bce:	2000      	movs	r0, #0
20000bd0:	0792      	lsls	r2, r2, #30
20000bd2:	d403      	bmi.n	20000bdc <e15_is_bulkin_ep+0x14>
20000bd4:	789a      	ldrb	r2, [r3, #2]
20000bd6:	09d2      	lsrs	r2, r2, #7
20000bd8:	2a01      	cmp	r2, #1
20000bda:	d000      	beq.n	20000bde <e15_is_bulkin_ep+0x16>
20000bdc:	4770      	bx	lr
20000bde:	7ed8      	ldrb	r0, [r3, #27]
20000be0:	3802      	subs	r0, #2
20000be2:	4243      	negs	r3, r0
20000be4:	4158      	adcs	r0, r3
20000be6:	b2c0      	uxtb	r0, r0
20000be8:	e7f8      	b.n	20000bdc <e15_is_bulkin_ep+0x14>
20000bea:	46c0      	nop			@ (mov r8, r8)
20000bec:	50110000 	.word	0x50110000

20000bf0 <e15_is_critical_frame_period>:
20000bf0:	b510      	push	{r4, lr}
20000bf2:	f7ff ffe9 	bl	20000bc8 <e15_is_bulkin_ep>
20000bf6:	2800      	cmp	r0, #0
20000bf8:	d00c      	beq.n	20000c14 <e15_is_critical_frame_period+0x24>
20000bfa:	4907      	ldr	r1, [pc, #28]	@ (20000c18 <e15_is_critical_frame_period+0x28>)
20000bfc:	4b07      	ldr	r3, [pc, #28]	@ (20000c1c <e15_is_critical_frame_period+0x2c>)
20000bfe:	468c      	mov	ip, r1
20000c00:	4a07      	ldr	r2, [pc, #28]	@ (20000c20 <e15_is_critical_frame_period+0x30>)
20000c02:	6a9b      	ldr	r3, [r3, #40]	@ 0x28
20000c04:	6812      	ldr	r2, [r2, #0]
20000c06:	4463      	add	r3, ip
20000c08:	1a9b      	subs	r3, r3, r2
20000c0a:	2000      	movs	r0, #0
20000c0c:	22c6      	movs	r2, #198	@ 0xc6
20000c0e:	429a      	cmp	r2, r3
20000c10:	4140      	adcs	r0, r0
20000c12:	b2c0      	uxtb	r0, r0
20000c14:	bd10      	pop	{r4, pc}
20000c16:	46c0      	nop			@ (mov r8, r8)
20000c18:	fffffce0 	.word	0xfffffce0
20000c1c:	40054000 	.word	0x40054000
20000c20:	20001e0c 	.word	0x20001e0c

20000c24 <hw_endpoint_reset_transfer>:
20000c24:	2300      	movs	r3, #0
20000c26:	7683      	strb	r3, [r0, #26]
20000c28:	6143      	str	r3, [r0, #20]
20000c2a:	6103      	str	r3, [r0, #16]
20000c2c:	4770      	bx	lr
20000c2e:	46c0      	nop			@ (mov r8, r8)

20000c30 <_hw_endpoint_buffer_control_update32>:
20000c30:	b510      	push	{r4, lr}
20000c32:	6883      	ldr	r3, [r0, #8]
20000c34:	2900      	cmp	r1, #0
20000c36:	d001      	beq.n	20000c3c <_hw_endpoint_buffer_control_update32+0xc>
20000c38:	681c      	ldr	r4, [r3, #0]
20000c3a:	4021      	ands	r1, r4
20000c3c:	2a00      	cmp	r2, #0
20000c3e:	d012      	beq.n	20000c66 <_hw_endpoint_buffer_control_update32+0x36>
20000c40:	2480      	movs	r4, #128	@ 0x80
20000c42:	00e4      	lsls	r4, r4, #3
20000c44:	4311      	orrs	r1, r2
20000c46:	4222      	tst	r2, r4
20000c48:	d00d      	beq.n	20000c66 <_hw_endpoint_buffer_control_update32+0x36>
20000c4a:	681a      	ldr	r2, [r3, #0]
20000c4c:	4222      	tst	r2, r4
20000c4e:	d10c      	bne.n	20000c6a <_hw_endpoint_buffer_control_update32+0x3a>
20000c50:	4a08      	ldr	r2, [pc, #32]	@ (20000c74 <_hw_endpoint_buffer_control_update32+0x44>)
20000c52:	400a      	ands	r2, r1
20000c54:	601a      	str	r2, [r3, #0]
20000c56:	4a08      	ldr	r2, [pc, #32]	@ (20000c78 <_hw_endpoint_buffer_control_update32+0x48>)
20000c58:	6c12      	ldr	r2, [r2, #64]	@ 0x40
20000c5a:	0792      	lsls	r2, r2, #30
20000c5c:	d403      	bmi.n	20000c66 <_hw_endpoint_buffer_control_update32+0x36>
20000c5e:	230c      	movs	r3, #12
20000c60:	3b03      	subs	r3, #3
20000c62:	d2fd      	bcs.n	20000c60 <_hw_endpoint_buffer_control_update32+0x30>
20000c64:	6883      	ldr	r3, [r0, #8]
20000c66:	6019      	str	r1, [r3, #0]
20000c68:	bd10      	pop	{r4, pc}
20000c6a:	7881      	ldrb	r1, [r0, #2]
20000c6c:	4803      	ldr	r0, [pc, #12]	@ (20000c7c <_hw_endpoint_buffer_control_update32+0x4c>)
20000c6e:	f000 f96b 	bl	20000f48 <__panic_veneer>
20000c72:	46c0      	nop			@ (mov r8, r8)
20000c74:	fffffbff 	.word	0xfffffbff
20000c78:	50110000 	.word	0x50110000
20000c7c:	10006e18 	.word	0x10006e18

20000c80 <hw_endpoint_start_next_buffer>:
20000c80:	6843      	ldr	r3, [r0, #4]
20000c82:	b570      	push	{r4, r5, r6, lr}
20000c84:	2100      	movs	r1, #0
20000c86:	2580      	movs	r5, #128	@ 0x80
20000c88:	681e      	ldr	r6, [r3, #0]
20000c8a:	0004      	movs	r4, r0
20000c8c:	f7ff fec4 	bl	20000a18 <prepare_ep_buffer>
20000c90:	4b13      	ldr	r3, [pc, #76]	@ (20000ce0 <hw_endpoint_start_next_buffer+0x60>)
20000c92:	016d      	lsls	r5, r5, #5
20000c94:	6c1b      	ldr	r3, [r3, #64]	@ 0x40
20000c96:	4305      	orrs	r5, r0
20000c98:	079b      	lsls	r3, r3, #30
20000c9a:	d50f      	bpl.n	20000cbc <hw_endpoint_start_next_buffer+0x3c>
20000c9c:	78a3      	ldrb	r3, [r4, #2]
20000c9e:	065b      	lsls	r3, r3, #25
20000ca0:	d00f      	beq.n	20000cc2 <hw_endpoint_start_next_buffer+0x42>
20000ca2:	4b10      	ldr	r3, [pc, #64]	@ (20000ce4 <hw_endpoint_start_next_buffer+0x64>)
20000ca4:	401e      	ands	r6, r3
20000ca6:	2380      	movs	r3, #128	@ 0x80
20000ca8:	059b      	lsls	r3, r3, #22
20000caa:	4333      	orrs	r3, r6
20000cac:	6862      	ldr	r2, [r4, #4]
20000cae:	2100      	movs	r1, #0
20000cb0:	6013      	str	r3, [r2, #0]
20000cb2:	0020      	movs	r0, r4
20000cb4:	002a      	movs	r2, r5
20000cb6:	f7ff ffbb 	bl	20000c30 <_hw_endpoint_buffer_control_update32>
20000cba:	bd70      	pop	{r4, r5, r6, pc}
20000cbc:	78a3      	ldrb	r3, [r4, #2]
20000cbe:	09db      	lsrs	r3, r3, #7
20000cc0:	d0ef      	beq.n	20000ca2 <hw_endpoint_start_next_buffer+0x22>
20000cc2:	8aa3      	ldrh	r3, [r4, #20]
20000cc4:	2b00      	cmp	r3, #0
20000cc6:	d0ec      	beq.n	20000ca2 <hw_endpoint_start_next_buffer+0x22>
20000cc8:	2101      	movs	r1, #1
20000cca:	0020      	movs	r0, r4
20000ccc:	f7ff fea4 	bl	20000a18 <prepare_ep_buffer>
20000cd0:	23a0      	movs	r3, #160	@ 0xa0
20000cd2:	4a05      	ldr	r2, [pc, #20]	@ (20000ce8 <hw_endpoint_start_next_buffer+0x68>)
20000cd4:	05db      	lsls	r3, r3, #23
20000cd6:	4032      	ands	r2, r6
20000cd8:	4305      	orrs	r5, r0
20000cda:	4313      	orrs	r3, r2
20000cdc:	e7e6      	b.n	20000cac <hw_endpoint_start_next_buffer+0x2c>
20000cde:	46c0      	nop			@ (mov r8, r8)
20000ce0:	50110000 	.word	0x50110000
20000ce4:	afffffff 	.word	0xafffffff
20000ce8:	dfffffff 	.word	0xdfffffff

20000cec <hw_endpoint_xfer_continue>:
20000cec:	b570      	push	{r4, r5, r6, lr}
20000cee:	7e85      	ldrb	r5, [r0, #26]
20000cf0:	0004      	movs	r4, r0
20000cf2:	2d00      	cmp	r5, #0
20000cf4:	d014      	beq.n	20000d20 <hw_endpoint_xfer_continue+0x34>
20000cf6:	f7ff ff53 	bl	20000ba0 <_hw_endpoint_xfer_sync>
20000cfa:	8aa3      	ldrh	r3, [r4, #20]
20000cfc:	2b00      	cmp	r3, #0
20000cfe:	d101      	bne.n	20000d04 <hw_endpoint_xfer_continue+0x18>
20000d00:	0028      	movs	r0, r5
20000d02:	bd70      	pop	{r4, r5, r6, pc}
20000d04:	0020      	movs	r0, r4
20000d06:	f7ff ff73 	bl	20000bf0 <e15_is_critical_frame_period>
20000d0a:	2800      	cmp	r0, #0
20000d0c:	d003      	beq.n	20000d16 <hw_endpoint_xfer_continue+0x2a>
20000d0e:	2301      	movs	r3, #1
20000d10:	2500      	movs	r5, #0
20000d12:	7723      	strb	r3, [r4, #28]
20000d14:	e7f4      	b.n	20000d00 <hw_endpoint_xfer_continue+0x14>
20000d16:	0020      	movs	r0, r4
20000d18:	f7ff ffb2 	bl	20000c80 <hw_endpoint_start_next_buffer>
20000d1c:	2500      	movs	r5, #0
20000d1e:	e7ef      	b.n	20000d00 <hw_endpoint_xfer_continue+0x14>
20000d20:	7881      	ldrb	r1, [r0, #2]
20000d22:	4801      	ldr	r0, [pc, #4]	@ (20000d28 <hw_endpoint_xfer_continue+0x3c>)
20000d24:	f000 f910 	bl	20000f48 <__panic_veneer>
20000d28:	10006e38 	.word	0x10006e38

20000d2c <dcd_event_handler>:
20000d2c:	b5f0      	push	{r4, r5, r6, r7, lr}
20000d2e:	46ce      	mov	lr, r9
20000d30:	4647      	mov	r7, r8
20000d32:	b580      	push	{r7, lr}
20000d34:	7843      	ldrb	r3, [r0, #1]
20000d36:	0005      	movs	r5, r0
20000d38:	000e      	movs	r6, r1
20000d3a:	b085      	sub	sp, #20
20000d3c:	2b06      	cmp	r3, #6
20000d3e:	d808      	bhi.n	20000d52 <dcd_event_handler+0x26>
20000d40:	4a6c      	ldr	r2, [pc, #432]	@ (20000ef4 <dcd_event_handler+0x1c8>)
20000d42:	009b      	lsls	r3, r3, #2
20000d44:	58d3      	ldr	r3, [r2, r3]
20000d46:	469f      	mov	pc, r3
20000d48:	4a6b      	ldr	r2, [pc, #428]	@ (20000ef8 <dcd_event_handler+0x1cc>)
20000d4a:	7813      	ldrb	r3, [r2, #0]
20000d4c:	3301      	adds	r3, #1
20000d4e:	b2db      	uxtb	r3, r3
20000d50:	7013      	strb	r3, [r2, #0]
20000d52:	4b6a      	ldr	r3, [pc, #424]	@ (20000efc <dcd_event_handler+0x1d0>)
20000d54:	681c      	ldr	r4, [r3, #0]
20000d56:	6962      	ldr	r2, [r4, #20]
20000d58:	f3ef 8110 	mrs	r1, PRIMASK
20000d5c:	b672      	cpsid	i
20000d5e:	6813      	ldr	r3, [r2, #0]
20000d60:	2b00      	cmp	r3, #0
20000d62:	d0fc      	beq.n	20000d5e <dcd_event_handler+0x32>
20000d64:	f3bf 8f5f 	dmb	sy
20000d68:	61a1      	str	r1, [r4, #24]
20000d6a:	0020      	movs	r0, r4
20000d6c:	0029      	movs	r1, r5
20000d6e:	f000 f8e3 	bl	20000f38 <__tu_fifo_write_veneer>
20000d72:	6962      	ldr	r2, [r4, #20]
20000d74:	69a3      	ldr	r3, [r4, #24]
20000d76:	f3bf 8f5f 	dmb	sy
20000d7a:	2100      	movs	r1, #0
20000d7c:	6011      	str	r1, [r2, #0]
20000d7e:	f383 8810 	msr	PRIMASK, r3
20000d82:	2800      	cmp	r0, #0
20000d84:	d104      	bne.n	20000d90 <dcd_event_handler+0x64>
20000d86:	b005      	add	sp, #20
20000d88:	bcc0      	pop	{r6, r7}
20000d8a:	46b9      	mov	r9, r7
20000d8c:	46b0      	mov	r8, r6
20000d8e:	bdf0      	pop	{r4, r5, r6, r7, pc}
20000d90:	0032      	movs	r2, r6
20000d92:	7869      	ldrb	r1, [r5, #1]
20000d94:	7828      	ldrb	r0, [r5, #0]
20000d96:	f000 f8ef 	bl	20000f78 <__tud_event_hook_cb_veneer>
20000d9a:	e7f4      	b.n	20000d86 <dcd_event_handler+0x5a>
20000d9c:	2101      	movs	r1, #1
20000d9e:	4b58      	ldr	r3, [pc, #352]	@ (20000f00 <dcd_event_handler+0x1d4>)
20000da0:	781a      	ldrb	r2, [r3, #0]
20000da2:	438a      	bics	r2, r1
20000da4:	701a      	strb	r2, [r3, #0]
20000da6:	781a      	ldrb	r2, [r3, #0]
20000da8:	3101      	adds	r1, #1
20000daa:	438a      	bics	r2, r1
20000dac:	701a      	strb	r2, [r3, #0]
20000dae:	2200      	movs	r2, #0
20000db0:	705a      	strb	r2, [r3, #1]
20000db2:	781a      	ldrb	r2, [r3, #0]
20000db4:	3102      	adds	r1, #2
20000db6:	438a      	bics	r2, r1
20000db8:	701a      	strb	r2, [r3, #0]
20000dba:	e7ca      	b.n	20000d52 <dcd_event_handler+0x26>
20000dbc:	4951      	ldr	r1, [pc, #324]	@ (20000f04 <dcd_event_handler+0x1d8>)
20000dbe:	4f52      	ldr	r7, [pc, #328]	@ (20000f08 <dcd_event_handler+0x1dc>)
20000dc0:	4689      	mov	r9, r1
20000dc2:	4952      	ldr	r1, [pc, #328]	@ (20000f0c <dcd_event_handler+0x1e0>)
20000dc4:	2400      	movs	r4, #0
20000dc6:	2300      	movs	r3, #0
20000dc8:	4688      	mov	r8, r1
20000dca:	783a      	ldrb	r2, [r7, #0]
20000dcc:	e012      	b.n	20000df4 <dcd_event_handler+0xc8>
20000dce:	4643      	mov	r3, r8
20000dd0:	681b      	ldr	r3, [r3, #0]
20000dd2:	0161      	lsls	r1, r4, #5
20000dd4:	185b      	adds	r3, r3, r1
20000dd6:	2b00      	cmp	r3, #0
20000dd8:	d006      	beq.n	20000de8 <dcd_event_handler+0xbc>
20000dda:	69db      	ldr	r3, [r3, #28]
20000ddc:	2b00      	cmp	r3, #0
20000dde:	d003      	beq.n	20000de8 <dcd_event_handler+0xbc>
20000de0:	6869      	ldr	r1, [r5, #4]
20000de2:	7828      	ldrb	r0, [r5, #0]
20000de4:	4798      	blx	r3
20000de6:	783a      	ldrb	r2, [r7, #0]
20000de8:	3401      	adds	r4, #1
20000dea:	b2e4      	uxtb	r4, r4
20000dec:	1c51      	adds	r1, r2, #1
20000dee:	0023      	movs	r3, r4
20000df0:	42a1      	cmp	r1, r4
20000df2:	db17      	blt.n	20000e24 <dcd_event_handler+0xf8>
20000df4:	42a2      	cmp	r2, r4
20000df6:	d8ea      	bhi.n	20000dce <dcd_event_handler+0xa2>
20000df8:	1a9b      	subs	r3, r3, r2
20000dfa:	015b      	lsls	r3, r3, #5
20000dfc:	444b      	add	r3, r9
20000dfe:	e7ec      	b.n	20000dda <dcd_event_handler+0xae>
20000e00:	4b3f      	ldr	r3, [pc, #252]	@ (20000f00 <dcd_event_handler+0x1d4>)
20000e02:	781a      	ldrb	r2, [r3, #0]
20000e04:	07d2      	lsls	r2, r2, #31
20000e06:	d5be      	bpl.n	20000d86 <dcd_event_handler+0x5a>
20000e08:	2104      	movs	r1, #4
20000e0a:	781a      	ldrb	r2, [r3, #0]
20000e0c:	430a      	orrs	r2, r1
20000e0e:	701a      	strb	r2, [r3, #0]
20000e10:	e79f      	b.n	20000d52 <dcd_event_handler+0x26>
20000e12:	4b3b      	ldr	r3, [pc, #236]	@ (20000f00 <dcd_event_handler+0x1d4>)
20000e14:	781a      	ldrb	r2, [r3, #0]
20000e16:	07d2      	lsls	r2, r2, #31
20000e18:	d5b5      	bpl.n	20000d86 <dcd_event_handler+0x5a>
20000e1a:	2104      	movs	r1, #4
20000e1c:	781a      	ldrb	r2, [r3, #0]
20000e1e:	438a      	bics	r2, r1
20000e20:	701a      	strb	r2, [r3, #0]
20000e22:	e796      	b.n	20000d52 <dcd_event_handler+0x26>
20000e24:	4f36      	ldr	r7, [pc, #216]	@ (20000f00 <dcd_event_handler+0x1d4>)
20000e26:	783b      	ldrb	r3, [r7, #0]
20000e28:	075b      	lsls	r3, r3, #29
20000e2a:	d52b      	bpl.n	20000e84 <dcd_event_handler+0x158>
20000e2c:	2204      	movs	r2, #4
20000e2e:	783b      	ldrb	r3, [r7, #0]
20000e30:	2100      	movs	r1, #0
20000e32:	4393      	bics	r3, r2
20000e34:	703b      	strb	r3, [r7, #0]
20000e36:	466b      	mov	r3, sp
20000e38:	3206      	adds	r2, #6
20000e3a:	1d98      	adds	r0, r3, #6
20000e3c:	f000 f8a4 	bl	20000f88 <____wrap_memset_veneer>
20000e40:	782b      	ldrb	r3, [r5, #0]
20000e42:	ac01      	add	r4, sp, #4
20000e44:	7023      	strb	r3, [r4, #0]
20000e46:	2305      	movs	r3, #5
20000e48:	7063      	strb	r3, [r4, #1]
20000e4a:	4b2c      	ldr	r3, [pc, #176]	@ (20000efc <dcd_event_handler+0x1d0>)
20000e4c:	681b      	ldr	r3, [r3, #0]
20000e4e:	4698      	mov	r8, r3
20000e50:	695a      	ldr	r2, [r3, #20]
20000e52:	f3ef 8110 	mrs	r1, PRIMASK
20000e56:	b672      	cpsid	i
20000e58:	6813      	ldr	r3, [r2, #0]
20000e5a:	2b00      	cmp	r3, #0
20000e5c:	d0fc      	beq.n	20000e58 <dcd_event_handler+0x12c>
20000e5e:	f3bf 8f5f 	dmb	sy
20000e62:	4643      	mov	r3, r8
20000e64:	4640      	mov	r0, r8
20000e66:	6199      	str	r1, [r3, #24]
20000e68:	0021      	movs	r1, r4
20000e6a:	f000 f865 	bl	20000f38 <__tu_fifo_write_veneer>
20000e6e:	4643      	mov	r3, r8
20000e70:	695a      	ldr	r2, [r3, #20]
20000e72:	699b      	ldr	r3, [r3, #24]
20000e74:	f3bf 8f5f 	dmb	sy
20000e78:	2100      	movs	r1, #0
20000e7a:	6011      	str	r1, [r2, #0]
20000e7c:	f383 8810 	msr	PRIMASK, r3
20000e80:	2800      	cmp	r0, #0
20000e82:	d131      	bne.n	20000ee8 <dcd_event_handler+0x1bc>
20000e84:	78fb      	ldrb	r3, [r7, #3]
20000e86:	07db      	lsls	r3, r3, #31
20000e88:	d400      	bmi.n	20000e8c <dcd_event_handler+0x160>
20000e8a:	e77c      	b.n	20000d86 <dcd_event_handler+0x5a>
20000e8c:	466b      	mov	r3, sp
20000e8e:	220a      	movs	r2, #10
20000e90:	2100      	movs	r1, #0
20000e92:	1d98      	adds	r0, r3, #6
20000e94:	f000 f878 	bl	20000f88 <____wrap_memset_veneer>
20000e98:	782b      	ldrb	r3, [r5, #0]
20000e9a:	ac01      	add	r4, sp, #4
20000e9c:	7023      	strb	r3, [r4, #0]
20000e9e:	2303      	movs	r3, #3
20000ea0:	7063      	strb	r3, [r4, #1]
20000ea2:	686b      	ldr	r3, [r5, #4]
20000ea4:	6063      	str	r3, [r4, #4]
20000ea6:	4b15      	ldr	r3, [pc, #84]	@ (20000efc <dcd_event_handler+0x1d0>)
20000ea8:	681d      	ldr	r5, [r3, #0]
20000eaa:	696a      	ldr	r2, [r5, #20]
20000eac:	f3ef 8110 	mrs	r1, PRIMASK
20000eb0:	b672      	cpsid	i
20000eb2:	6813      	ldr	r3, [r2, #0]
20000eb4:	2b00      	cmp	r3, #0
20000eb6:	d0fc      	beq.n	20000eb2 <dcd_event_handler+0x186>
20000eb8:	f3bf 8f5f 	dmb	sy
20000ebc:	61a9      	str	r1, [r5, #24]
20000ebe:	0028      	movs	r0, r5
20000ec0:	0021      	movs	r1, r4
20000ec2:	f000 f839 	bl	20000f38 <__tu_fifo_write_veneer>
20000ec6:	696a      	ldr	r2, [r5, #20]
20000ec8:	69ab      	ldr	r3, [r5, #24]
20000eca:	f3bf 8f5f 	dmb	sy
20000ece:	2100      	movs	r1, #0
20000ed0:	6011      	str	r1, [r2, #0]
20000ed2:	f383 8810 	msr	PRIMASK, r3
20000ed6:	2800      	cmp	r0, #0
20000ed8:	d100      	bne.n	20000edc <dcd_event_handler+0x1b0>
20000eda:	e754      	b.n	20000d86 <dcd_event_handler+0x5a>
20000edc:	0032      	movs	r2, r6
20000ede:	7861      	ldrb	r1, [r4, #1]
20000ee0:	7820      	ldrb	r0, [r4, #0]
20000ee2:	f000 f849 	bl	20000f78 <__tud_event_hook_cb_veneer>
20000ee6:	e74e      	b.n	20000d86 <dcd_event_handler+0x5a>
20000ee8:	0032      	movs	r2, r6
20000eea:	7861      	ldrb	r1, [r4, #1]
20000eec:	7820      	ldrb	r0, [r4, #0]
20000eee:	f000 f843 	bl	20000f78 <__tud_event_hook_cb_veneer>
20000ef2:	e7c7      	b.n	20000e84 <dcd_event_handler+0x158>
20000ef4:	100072a8 	.word	0x100072a8
20000ef8:	20002263 	.word	0x20002263
20000efc:	20001be4 	.word	0x20001be4
20000f00:	20001b8c 	.word	0x20001b8c
20000f04:	100072c4 	.word	0x100072c4
20000f08:	20002261 	.word	0x20002261
20000f0c:	20001860 	.word	0x20001860

20000f10 <__aeabi_idiv0>:
20000f10:	4770      	bx	lr
20000f12:	46c0      	nop			@ (mov r8, r8)
20000f14:	0000      	movs	r0, r0
	...

20000f18 <__rp2040_chip_version_veneer>:
20000f18:	b401      	push	{r0}
20000f1a:	4802      	ldr	r0, [pc, #8]	@ (20000f24 <__rp2040_chip_version_veneer+0xc>)
20000f1c:	4684      	mov	ip, r0
20000f1e:	bc01      	pop	{r0}
20000f20:	4760      	bx	ip
20000f22:	bf00      	nop
20000f24:	100004ed 	.word	0x100004ed

20000f28 <__time_us_64_veneer>:
20000f28:	b401      	push	{r0}
20000f2a:	4802      	ldr	r0, [pc, #8]	@ (20000f34 <__time_us_64_veneer+0xc>)
20000f2c:	4684      	mov	ip, r0
20000f2e:	bc01      	pop	{r0}
20000f30:	4760      	bx	ip
20000f32:	bf00      	nop
20000f34:	1000132d 	.word	0x1000132d

20000f38 <__tu_fifo_write_veneer>:
20000f38:	b401      	push	{r0}
20000f3a:	4802      	ldr	r0, [pc, #8]	@ (20000f44 <__tu_fifo_write_veneer+0xc>)
20000f3c:	4684      	mov	ip, r0
20000f3e:	bc01      	pop	{r0}
20000f40:	4760      	bx	ip
20000f42:	bf00      	nop
20000f44:	10006539 	.word	0x10006539

20000f48 <__panic_veneer>:
20000f48:	b401      	push	{r0}
20000f4a:	4802      	ldr	r0, [pc, #8]	@ (20000f54 <__panic_veneer+0xc>)
20000f4c:	4684      	mov	ip, r0
20000f4e:	bc01      	pop	{r0}
20000f50:	4760      	bx	ip
20000f52:	bf00      	nop
20000f54:	100004f9 	.word	0x100004f9

20000f58 <__best_effort_wfe_or_timeout_veneer>:
20000f58:	b401      	push	{r0}
20000f5a:	4802      	ldr	r0, [pc, #8]	@ (20000f64 <__best_effort_wfe_or_timeout_veneer+0xc>)
20000f5c:	4684      	mov	ip, r0
20000f5e:	bc01      	pop	{r0}
20000f60:	4760      	bx	ip
20000f62:	bf00      	nop
20000f64:	100011d5 	.word	0x100011d5

20000f68 <____wrap___aeabi_lmul_veneer>:
20000f68:	b401      	push	{r0}
20000f6a:	4802      	ldr	r0, [pc, #8]	@ (20000f74 <____wrap___aeabi_lmul_veneer+0xc>)
20000f6c:	4684      	mov	ip, r0
20000f6e:	bc01      	pop	{r0}
20000f70:	4760      	bx	ip
20000f72:	bf00      	nop
20000f74:	1000258d 	.word	0x1000258d

20000f78 <__tud_event_hook_cb_veneer>:
20000f78:	b401      	push	{r0}
20000f7a:	4802      	ldr	r0, [pc, #8]	@ (20000f84 <__tud_event_hook_cb_veneer+0xc>)
20000f7c:	4684      	mov	ip, r0
20000f7e:	bc01      	pop	{r0}
20000f80:	4760      	bx	ip
20000f82:	bf00      	nop
20000f84:	10004ca5 	.word	0x10004ca5

20000f88 <____wrap_memset_veneer>:
20000f88:	b401      	push	{r0}
20000f8a:	4802      	ldr	r0, [pc, #8]	@ (20000f94 <____wrap_memset_veneer+0xc>)
20000f8c:	4684      	mov	ip, r0
20000f8e:	bc01      	pop	{r0}
20000f90:	4760      	bx	ip
20000f92:	bf00      	nop
20000f94:	10002661 	.word	0x10002661

20000f98 <striped_spin_lock_num>:
20000f98:	00000010                                ....

20000f9c <irq_handler_chain_slots>:
20000f9c:	00000000 	.word	0x00000000
20000fa0:	00010000 	.word	0x00010000
	...
20000fac:	00020000 	.word	0x00020000
	...
20000fb8:	00030000 	.word	0x00030000
	...
20000fc4:	00ff0000 	.word	0x00ff0000
20000fc8:	00000000 	.word	0x00000000

20000fcc <irq_handler_chain_first_slot>:
20000fcc:	b501      	push	{r0, lr}
20000fce:	6848      	ldr	r0, [r1, #4]
20000fd0:	3101      	adds	r1, #1
20000fd2:	468e      	mov	lr, r1
20000fd4:	4700      	bx	r0

20000fd6 <irq_handler_chain_remove_tail>:
20000fd6:	4670      	mov	r0, lr
20000fd8:	3809      	subs	r0, #9
20000fda:	4901      	ldr	r1, [pc, #4]	@ (20000fe0 <irq_handler_chain_remove_tail+0xa>)
20000fdc:	4788      	blx	r1
20000fde:	bd01      	pop	{r0, pc}
20000fe0:	10000945 	.word	0x10000945

20000fe4 <default_alarm_pool>:
	...
20000ff8:	20001328 00000000                       (.. ....

20001000 <aeabi_bits_funcs>:
20001000:	00003350 	.word	0x00003350
20001004:	0000334c 	.word	0x0000334c
20001008:	00003354 	.word	0x00003354
2000100c:	00003352 	.word	0x00003352

20001010 <aeabi_bits_funcs_end>:
20001010:	0000534d 	.word	0x0000534d
20001014:	0000434d 	.word	0x0000434d
20001018:	00003453 	.word	0x00003453
2000101c:	00003443 	.word	0x00003443

20001020 <stdio_usb>:
20001020:	10004475 10004425 10004395 1000430d     uD..%D...C...C..
20001030:	00000000 00000100                       ........

20001038 <_usbd_qdef>:
20001038:	20001be8 000c0010 00000000 00000000     ... ............
	...

20001054 <_usbd_rhport>:
20001054:	000000ff                                ....

20001058 <i2c0_inst>:
20001058:	40044000 00000000                       .@.@....

20001060 <print_mutex>:
	...
